
MR.elf:     file format elf32-avr

Sections:
Idx Name          Size      VMA       LMA       File off  Algn
  0 .data         00000104  00800100  00008dea  00008e7e  2**0
                  CONTENTS, ALLOC, LOAD, DATA
  1 .text         00008dea  00000000  00000000  00000094  2**1
                  CONTENTS, ALLOC, LOAD, READONLY, CODE
  2 .bss          00000157  00800204  00800204  00008f82  2**0
                  ALLOC
  3 .stab         00004098  00000000  00000000  00008f84  2**2
                  CONTENTS, READONLY, DEBUGGING
  4 .stabstr      00000e54  00000000  00000000  0000d01c  2**0
                  CONTENTS, READONLY, DEBUGGING
  5 .debug_aranges 00000100  00000000  00000000  0000de70  2**0
                  CONTENTS, READONLY, DEBUGGING
  6 .debug_pubnames 000008b8  00000000  00000000  0000df70  2**0
                  CONTENTS, READONLY, DEBUGGING
  7 .debug_info   000037d2  00000000  00000000  0000e828  2**0
                  CONTENTS, READONLY, DEBUGGING
  8 .debug_abbrev 00000d21  00000000  00000000  00011ffa  2**0
                  CONTENTS, READONLY, DEBUGGING
  9 .debug_line   000038a3  00000000  00000000  00012d1b  2**0
                  CONTENTS, READONLY, DEBUGGING
 10 .debug_frame  00000490  00000000  00000000  000165c0  2**2
                  CONTENTS, READONLY, DEBUGGING
 11 .debug_str    000006d3  00000000  00000000  00016a50  2**0
                  CONTENTS, READONLY, DEBUGGING
 12 .debug_loc    00003c61  00000000  00000000  00017123  2**0
                  CONTENTS, READONLY, DEBUGGING
 13 .debug_pubtypes 000001cd  00000000  00000000  0001ad84  2**0
                  CONTENTS, READONLY, DEBUGGING
 14 .debug_ranges 00000060  00000000  00000000  0001af51  2**0
                  CONTENTS, READONLY, DEBUGGING

Disassembly of section .text:

00000000 <__vectors>:
       0:	0c 94 55 00 	jmp	0xaa	; 0xaa <__ctors_end>
       4:	0c 94 74 00 	jmp	0xe8	; 0xe8 <__bad_interrupt>
       8:	0c 94 74 00 	jmp	0xe8	; 0xe8 <__bad_interrupt>
       c:	0c 94 74 00 	jmp	0xe8	; 0xe8 <__bad_interrupt>
      10:	0c 94 74 00 	jmp	0xe8	; 0xe8 <__bad_interrupt>
      14:	0c 94 74 00 	jmp	0xe8	; 0xe8 <__bad_interrupt>
      18:	0c 94 74 00 	jmp	0xe8	; 0xe8 <__bad_interrupt>
      1c:	0c 94 74 00 	jmp	0xe8	; 0xe8 <__bad_interrupt>
      20:	0c 94 74 00 	jmp	0xe8	; 0xe8 <__bad_interrupt>
      24:	0c 94 74 00 	jmp	0xe8	; 0xe8 <__bad_interrupt>
      28:	0c 94 74 00 	jmp	0xe8	; 0xe8 <__bad_interrupt>
      2c:	0c 94 74 00 	jmp	0xe8	; 0xe8 <__bad_interrupt>
      30:	0c 94 74 00 	jmp	0xe8	; 0xe8 <__bad_interrupt>
      34:	0c 94 74 00 	jmp	0xe8	; 0xe8 <__bad_interrupt>
      38:	0c 94 41 1b 	jmp	0x3682	; 0x3682 <__vector_14>
      3c:	0c 94 74 00 	jmp	0xe8	; 0xe8 <__bad_interrupt>
      40:	0c 94 74 00 	jmp	0xe8	; 0xe8 <__bad_interrupt>
      44:	0c 94 74 00 	jmp	0xe8	; 0xe8 <__bad_interrupt>
      48:	0c 94 75 3f 	jmp	0x7eea	; 0x7eea <__vector_18>
      4c:	0c 94 74 00 	jmp	0xe8	; 0xe8 <__bad_interrupt>
      50:	0c 94 74 00 	jmp	0xe8	; 0xe8 <__bad_interrupt>
      54:	0c 94 74 00 	jmp	0xe8	; 0xe8 <__bad_interrupt>
      58:	0c 94 74 00 	jmp	0xe8	; 0xe8 <__bad_interrupt>
      5c:	0c 94 74 00 	jmp	0xe8	; 0xe8 <__bad_interrupt>
      60:	0c 94 74 00 	jmp	0xe8	; 0xe8 <__bad_interrupt>
      64:	0c 94 74 00 	jmp	0xe8	; 0xe8 <__bad_interrupt>
      68:	0c 94 74 00 	jmp	0xe8	; 0xe8 <__bad_interrupt>
      6c:	0c 94 74 00 	jmp	0xe8	; 0xe8 <__bad_interrupt>
      70:	0c 94 74 00 	jmp	0xe8	; 0xe8 <__bad_interrupt>
      74:	0c 94 74 00 	jmp	0xe8	; 0xe8 <__bad_interrupt>
      78:	0c 94 0a 01 	jmp	0x214	; 0x214 <__vector_30>
      7c:	0c 94 74 00 	jmp	0xe8	; 0xe8 <__bad_interrupt>
      80:	0c 94 74 00 	jmp	0xe8	; 0xe8 <__bad_interrupt>
      84:	0c 94 74 00 	jmp	0xe8	; 0xe8 <__bad_interrupt>
      88:	0c 94 74 00 	jmp	0xe8	; 0xe8 <__bad_interrupt>
      8c:	05 a8       	ldd	r0, Z+53	; 0x35
      8e:	4c cd       	rjmp	.-1384   	; 0xfffffb28 <__eeprom_end+0xff7efb28>
      90:	b2 d4       	rcall	.+2404   	; 0x9f6 <main+0x5a0>
      92:	4e b9       	out	0x0e, r20	; 14
      94:	38 36       	cpi	r19, 0x68	; 104
      96:	a9 02       	muls	r26, r25
      98:	0c 50       	subi	r16, 0x0C	; 12
      9a:	b9 91       	ld	r27, Y+
      9c:	86 88       	ldd	r8, Z+22	; 0x16
      9e:	08 3c       	cpi	r16, 0xC8	; 200
      a0:	a6 aa       	std	Z+54, r10	; 0x36
      a2:	aa 2a       	or	r10, r26
      a4:	be 00       	.word	0x00be	; ????
      a6:	00 00       	nop
      a8:	80 3f       	cpi	r24, 0xF0	; 240

000000aa <__ctors_end>:
      aa:	11 24       	eor	r1, r1
      ac:	1f be       	out	0x3f, r1	; 63
      ae:	cf ef       	ldi	r28, 0xFF	; 255
      b0:	d0 e1       	ldi	r29, 0x10	; 16
      b2:	de bf       	out	0x3e, r29	; 62
      b4:	cd bf       	out	0x3d, r28	; 61

000000b6 <__do_copy_data>:
      b6:	12 e0       	ldi	r17, 0x02	; 2
      b8:	a0 e0       	ldi	r26, 0x00	; 0
      ba:	b1 e0       	ldi	r27, 0x01	; 1
      bc:	ea ee       	ldi	r30, 0xEA	; 234
      be:	fd e8       	ldi	r31, 0x8D	; 141
      c0:	00 e0       	ldi	r16, 0x00	; 0
      c2:	0b bf       	out	0x3b, r16	; 59
      c4:	02 c0       	rjmp	.+4      	; 0xca <__do_copy_data+0x14>
      c6:	07 90       	elpm	r0, Z+
      c8:	0d 92       	st	X+, r0
      ca:	a4 30       	cpi	r26, 0x04	; 4
      cc:	b1 07       	cpc	r27, r17
      ce:	d9 f7       	brne	.-10     	; 0xc6 <__do_copy_data+0x10>

000000d0 <__do_clear_bss>:
      d0:	13 e0       	ldi	r17, 0x03	; 3
      d2:	a4 e0       	ldi	r26, 0x04	; 4
      d4:	b2 e0       	ldi	r27, 0x02	; 2
      d6:	01 c0       	rjmp	.+2      	; 0xda <.do_clear_bss_start>

000000d8 <.do_clear_bss_loop>:
      d8:	1d 92       	st	X+, r1

000000da <.do_clear_bss_start>:
      da:	ab 35       	cpi	r26, 0x5B	; 91
      dc:	b1 07       	cpc	r27, r17
      de:	e1 f7       	brne	.-8      	; 0xd8 <.do_clear_bss_loop>
      e0:	0e 94 2b 02 	call	0x456	; 0x456 <main>
      e4:	0c 94 1d 40 	jmp	0x803a	; 0x803a <exit>

000000e8 <__bad_interrupt>:
      e8:	0c 94 00 00 	jmp	0	; 0x0 <__vectors>

000000ec <read_gyro>:
      ec:	94 ea       	ldi	r25, 0xA4	; 164
      ee:	90 93 74 00 	sts	0x0074, r25
      f2:	90 91 74 00 	lds	r25, 0x0074
      f6:	97 ff       	sbrs	r25, 7
      f8:	fc cf       	rjmp	.-8      	; 0xf2 <read_gyro+0x6>
      fa:	9a e0       	ldi	r25, 0x0A	; 10
      fc:	90 93 73 00 	sts	0x0073, r25
     100:	94 e8       	ldi	r25, 0x84	; 132
     102:	90 93 74 00 	sts	0x0074, r25
     106:	90 91 74 00 	lds	r25, 0x0074
     10a:	97 ff       	sbrs	r25, 7
     10c:	fc cf       	rjmp	.-8      	; 0x106 <read_gyro+0x1a>
     10e:	80 93 73 00 	sts	0x0073, r24
     112:	84 e8       	ldi	r24, 0x84	; 132
     114:	80 93 74 00 	sts	0x0074, r24
     118:	80 91 74 00 	lds	r24, 0x0074
     11c:	87 ff       	sbrs	r24, 7
     11e:	fc cf       	rjmp	.-8      	; 0x118 <read_gyro+0x2c>
     120:	84 e9       	ldi	r24, 0x94	; 148
     122:	80 93 74 00 	sts	0x0074, r24
     126:	84 ea       	ldi	r24, 0xA4	; 164
     128:	80 93 74 00 	sts	0x0074, r24
     12c:	80 91 74 00 	lds	r24, 0x0074
     130:	87 ff       	sbrs	r24, 7
     132:	fc cf       	rjmp	.-8      	; 0x12c <read_gyro+0x40>
     134:	8b e0       	ldi	r24, 0x0B	; 11
     136:	80 93 73 00 	sts	0x0073, r24
     13a:	84 e8       	ldi	r24, 0x84	; 132
     13c:	80 93 74 00 	sts	0x0074, r24
     140:	80 91 74 00 	lds	r24, 0x0074
     144:	87 ff       	sbrs	r24, 7
     146:	fc cf       	rjmp	.-8      	; 0x140 <read_gyro+0x54>
     148:	84 e8       	ldi	r24, 0x84	; 132
     14a:	80 93 74 00 	sts	0x0074, r24
     14e:	80 91 74 00 	lds	r24, 0x0074
     152:	87 ff       	sbrs	r24, 7
     154:	fc cf       	rjmp	.-8      	; 0x14e <read_gyro+0x62>
     156:	80 91 73 00 	lds	r24, 0x0073
     15a:	94 e9       	ldi	r25, 0x94	; 148
     15c:	90 93 74 00 	sts	0x0074, r25
     160:	08 95       	ret

00000162 <write_gyro>:
     162:	94 ea       	ldi	r25, 0xA4	; 164
     164:	90 93 74 00 	sts	0x0074, r25
     168:	90 91 74 00 	lds	r25, 0x0074
     16c:	97 ff       	sbrs	r25, 7
     16e:	fc cf       	rjmp	.-8      	; 0x168 <write_gyro+0x6>
     170:	9a e0       	ldi	r25, 0x0A	; 10
     172:	90 93 73 00 	sts	0x0073, r25
     176:	94 e8       	ldi	r25, 0x84	; 132
     178:	90 93 74 00 	sts	0x0074, r25
     17c:	90 91 74 00 	lds	r25, 0x0074
     180:	97 ff       	sbrs	r25, 7
     182:	fc cf       	rjmp	.-8      	; 0x17c <write_gyro+0x1a>
     184:	80 93 73 00 	sts	0x0073, r24
     188:	84 e8       	ldi	r24, 0x84	; 132
     18a:	80 93 74 00 	sts	0x0074, r24
     18e:	80 91 74 00 	lds	r24, 0x0074
     192:	87 ff       	sbrs	r24, 7
     194:	fc cf       	rjmp	.-8      	; 0x18e <write_gyro+0x2c>
     196:	60 93 73 00 	sts	0x0073, r22
     19a:	84 e8       	ldi	r24, 0x84	; 132
     19c:	80 93 74 00 	sts	0x0074, r24
     1a0:	80 91 74 00 	lds	r24, 0x0074
     1a4:	87 ff       	sbrs	r24, 7
     1a6:	fc cf       	rjmp	.-8      	; 0x1a0 <write_gyro+0x3e>
     1a8:	84 e9       	ldi	r24, 0x94	; 148
     1aa:	80 93 74 00 	sts	0x0074, r24
     1ae:	08 95       	ret

000001b0 <MCU_init>:
     1b0:	10 92 9b 00 	sts	0x009B, r1
     1b4:	88 e9       	ldi	r24, 0x98	; 152
     1b6:	80 93 9a 00 	sts	0x009A, r24
     1ba:	86 e0       	ldi	r24, 0x06	; 6
     1bc:	80 93 9d 00 	sts	0x009D, r24
     1c0:	10 92 98 00 	sts	0x0098, r1
     1c4:	8f e5       	ldi	r24, 0x5F	; 95
     1c6:	80 93 99 00 	sts	0x0099, r24
     1ca:	78 94       	sei
     1cc:	08 95       	ret

000001ce <Interface_init>:
     1ce:	1f 93       	push	r17
     1d0:	1f ef       	ldi	r17, 0xFF	; 255
     1d2:	10 93 73 00 	sts	0x0073, r17
     1d6:	81 e4       	ldi	r24, 0x41	; 65
     1d8:	80 93 70 00 	sts	0x0070, r24
     1dc:	0e 94 6b 14 	call	0x28d6	; 0x28d6 <LM629_HW_Reset>
     1e0:	0e 94 61 3f 	call	0x7ec2	; 0x7ec2 <Sensor_init>
     1e4:	0e 94 d8 00 	call	0x1b0	; 0x1b0 <MCU_init>
     1e8:	0e 94 65 13 	call	0x26ca	; 0x26ca <Motor_init>
     1ec:	1f bc       	out	0x2f, r1	; 47
     1ee:	85 e0       	ldi	r24, 0x05	; 5
     1f0:	8e bd       	out	0x2e, r24	; 46
     1f2:	1d bd       	out	0x2d, r17	; 45
     1f4:	80 e7       	ldi	r24, 0x70	; 112
     1f6:	8c bd       	out	0x2c, r24	; 44
     1f8:	84 e0       	ldi	r24, 0x04	; 4
     1fa:	87 bf       	out	0x37, r24	; 55
     1fc:	78 94       	sei
     1fe:	8f e0       	ldi	r24, 0x0F	; 15
     200:	87 bb       	out	0x17, r24	; 23
     202:	81 b3       	in	r24, 0x11	; 17
     204:	80 7f       	andi	r24, 0xF0	; 240
     206:	81 bb       	out	0x11, r24	; 17
     208:	84 b3       	in	r24, 0x14	; 20
     20a:	80 6f       	ori	r24, 0xF0	; 240
     20c:	84 bb       	out	0x14, r24	; 20
     20e:	18 ba       	out	0x18, r1	; 24
     210:	1f 91       	pop	r17
     212:	08 95       	ret

00000214 <__vector_30>:
     214:	1f 92       	push	r1
     216:	0f 92       	push	r0
     218:	0f b6       	in	r0, 0x3f	; 63
     21a:	0f 92       	push	r0
     21c:	11 24       	eor	r1, r1
     21e:	8f 93       	push	r24
     220:	df 93       	push	r29
     222:	cf 93       	push	r28
     224:	0f 92       	push	r0
     226:	cd b7       	in	r28, 0x3d	; 61
     228:	de b7       	in	r29, 0x3e	; 62
     22a:	80 91 9c 00 	lds	r24, 0x009C
     22e:	89 83       	std	Y+1, r24	; 0x01
     230:	80 91 9b 00 	lds	r24, 0x009B
     234:	88 7b       	andi	r24, 0xB8	; 184
     236:	e1 f3       	breq	.-8      	; 0x230 <__vector_30+0x1c>
     238:	81 e0       	ldi	r24, 0x01	; 1
     23a:	80 93 04 02 	sts	0x0204, r24
     23e:	89 81       	ldd	r24, Y+1	; 0x01
     240:	80 93 05 02 	sts	0x0205, r24
     244:	0f 90       	pop	r0
     246:	cf 91       	pop	r28
     248:	df 91       	pop	r29
     24a:	8f 91       	pop	r24
     24c:	0f 90       	pop	r0
     24e:	0f be       	out	0x3f, r0	; 63
     250:	0f 90       	pop	r0
     252:	1f 90       	pop	r1
     254:	18 95       	reti

00000256 <getchar1>:
     256:	df 93       	push	r29
     258:	cf 93       	push	r28
     25a:	0f 92       	push	r0
     25c:	cd b7       	in	r28, 0x3d	; 61
     25e:	de b7       	in	r29, 0x3e	; 62
     260:	80 91 05 02 	lds	r24, 0x0205
     264:	89 83       	std	Y+1, r24	; 0x01
     266:	10 92 05 02 	sts	0x0205, r1
     26a:	f8 94       	cli
     26c:	10 92 04 02 	sts	0x0204, r1
     270:	78 94       	sei
     272:	89 81       	ldd	r24, Y+1	; 0x01
     274:	0f 90       	pop	r0
     276:	cf 91       	pop	r28
     278:	df 91       	pop	r29
     27a:	08 95       	ret

0000027c <putchar1>:
     27c:	90 91 9b 00 	lds	r25, 0x009B
     280:	95 ff       	sbrs	r25, 5
     282:	fc cf       	rjmp	.-8      	; 0x27c <putchar1>
     284:	80 93 9c 00 	sts	0x009C, r24
     288:	08 95       	ret

0000028a <lcd_write_data>:
     28a:	cf 93       	push	r28
     28c:	df 93       	push	r29
     28e:	e4 e7       	ldi	r30, 0x74	; 116
     290:	f0 e0       	ldi	r31, 0x00	; 0
     292:	94 ea       	ldi	r25, 0xA4	; 164
     294:	90 83       	st	Z, r25
	#else
		//round up by default
		__ticks_dc = (uint32_t)(ceil(fabs(__tmp)));
	#endif

	__builtin_avr_delay_cycles(__ticks_dc);
     296:	a1 ee       	ldi	r26, 0xE1	; 225
     298:	b2 e0       	ldi	r27, 0x02	; 2
     29a:	11 97       	sbiw	r26, 0x01	; 1
     29c:	f1 f7       	brne	.-4      	; 0x29a <lcd_write_data+0x10>
     29e:	00 00       	nop
     2a0:	a3 e7       	ldi	r26, 0x73	; 115
     2a2:	b0 e0       	ldi	r27, 0x00	; 0
     2a4:	9e e0       	ldi	r25, 0x0E	; 14
     2a6:	9c 93       	st	X, r25
     2a8:	94 e8       	ldi	r25, 0x84	; 132
     2aa:	90 83       	st	Z, r25
     2ac:	c1 ee       	ldi	r28, 0xE1	; 225
     2ae:	d2 e0       	ldi	r29, 0x02	; 2
     2b0:	21 97       	sbiw	r28, 0x01	; 1
     2b2:	f1 f7       	brne	.-4      	; 0x2b0 <lcd_write_data+0x26>
     2b4:	00 00       	nop
     2b6:	8c 93       	st	X, r24
     2b8:	90 83       	st	Z, r25
     2ba:	81 ee       	ldi	r24, 0xE1	; 225
     2bc:	92 e0       	ldi	r25, 0x02	; 2
     2be:	01 97       	sbiw	r24, 0x01	; 1
     2c0:	f1 f7       	brne	.-4      	; 0x2be <lcd_write_data+0x34>
     2c2:	00 00       	nop
     2c4:	84 e9       	ldi	r24, 0x94	; 148
     2c6:	80 83       	st	Z, r24
     2c8:	df 91       	pop	r29
     2ca:	cf 91       	pop	r28
     2cc:	08 95       	ret

000002ce <LCD>:
     2ce:	ef 92       	push	r14
     2d0:	ff 92       	push	r15
     2d2:	0f 93       	push	r16
     2d4:	1f 93       	push	r17
     2d6:	df 93       	push	r29
     2d8:	cf 93       	push	r28
     2da:	00 d0       	rcall	.+0      	; 0x2dc <LCD+0xe>
     2dc:	cd b7       	in	r28, 0x3d	; 61
     2de:	de b7       	in	r29, 0x3e	; 62
     2e0:	08 2f       	mov	r16, r24
     2e2:	16 2f       	mov	r17, r22
     2e4:	84 30       	cpi	r24, 0x04	; 4
     2e6:	70 f5       	brcc	.+92     	; 0x344 <LCD+0x76>
     2e8:	64 31       	cpi	r22, 0x14	; 20
     2ea:	60 f5       	brcc	.+88     	; 0x344 <LCD+0x76>
     2ec:	8b e1       	ldi	r24, 0x1B	; 27
     2ee:	49 83       	std	Y+1, r20	; 0x01
     2f0:	5a 83       	std	Y+2, r21	; 0x02
     2f2:	0e 94 45 01 	call	0x28a	; 0x28a <lcd_write_data>
     2f6:	8c e4       	ldi	r24, 0x4C	; 76
     2f8:	0e 94 45 01 	call	0x28a	; 0x28a <lcd_write_data>
     2fc:	81 2f       	mov	r24, r17
     2fe:	0e 94 45 01 	call	0x28a	; 0x28a <lcd_write_data>
     302:	80 2f       	mov	r24, r16
     304:	0e 94 45 01 	call	0x28a	; 0x28a <lcd_write_data>
     308:	80 e7       	ldi	r24, 0x70	; 112
     30a:	91 e0       	ldi	r25, 0x01	; 1
     30c:	01 97       	sbiw	r24, 0x01	; 1
     30e:	f1 f7       	brne	.-4      	; 0x30c <LCD+0x3e>
     310:	00 c0       	rjmp	.+0      	; 0x312 <LCD+0x44>
     312:	e1 2e       	mov	r14, r17
     314:	ff 24       	eor	r15, r15
     316:	49 81       	ldd	r20, Y+1	; 0x01
     318:	5a 81       	ldd	r21, Y+2	; 0x02
     31a:	04 2f       	mov	r16, r20
     31c:	15 2f       	mov	r17, r21
     31e:	06 c0       	rjmp	.+12     	; 0x32c <LCD+0x5e>
     320:	0e 94 45 01 	call	0x28a	; 0x28a <lcd_write_data>
     324:	94 ec       	ldi	r25, 0xC4	; 196
     326:	9a 95       	dec	r25
     328:	f1 f7       	brne	.-4      	; 0x326 <LCD+0x58>
     32a:	00 c0       	rjmp	.+0      	; 0x32c <LCD+0x5e>
     32c:	e4 e1       	ldi	r30, 0x14	; 20
     32e:	ee 16       	cp	r14, r30
     330:	f1 04       	cpc	r15, r1
     332:	44 f4       	brge	.+16     	; 0x344 <LCD+0x76>
     334:	f8 01       	movw	r30, r16
     336:	81 91       	ld	r24, Z+
     338:	8f 01       	movw	r16, r30
     33a:	08 94       	sec
     33c:	e1 1c       	adc	r14, r1
     33e:	f1 1c       	adc	r15, r1
     340:	88 23       	and	r24, r24
     342:	71 f7       	brne	.-36     	; 0x320 <LCD+0x52>
     344:	0f 90       	pop	r0
     346:	0f 90       	pop	r0
     348:	cf 91       	pop	r28
     34a:	df 91       	pop	r29
     34c:	1f 91       	pop	r17
     34e:	0f 91       	pop	r16
     350:	ff 90       	pop	r15
     352:	ef 90       	pop	r14
     354:	08 95       	ret

00000356 <write_lcd_data>:
     356:	1f 93       	push	r17
     358:	df 93       	push	r29
     35a:	cf 93       	push	r28
     35c:	00 d0       	rcall	.+0      	; 0x35e <write_lcd_data+0x8>
     35e:	cd b7       	in	r28, 0x3d	; 61
     360:	de b7       	in	r29, 0x3e	; 62
     362:	18 2f       	mov	r17, r24
     364:	84 30       	cpi	r24, 0x04	; 4
     366:	f0 f4       	brcc	.+60     	; 0x3a4 <write_lcd_data+0x4e>
     368:	64 31       	cpi	r22, 0x14	; 20
     36a:	e0 f4       	brcc	.+56     	; 0x3a4 <write_lcd_data+0x4e>
     36c:	8b e1       	ldi	r24, 0x1B	; 27
     36e:	2a 83       	std	Y+2, r18	; 0x02
     370:	69 83       	std	Y+1, r22	; 0x01
     372:	0e 94 45 01 	call	0x28a	; 0x28a <lcd_write_data>
     376:	8c e4       	ldi	r24, 0x4C	; 76
     378:	0e 94 45 01 	call	0x28a	; 0x28a <lcd_write_data>
     37c:	69 81       	ldd	r22, Y+1	; 0x01
     37e:	86 2f       	mov	r24, r22
     380:	0e 94 45 01 	call	0x28a	; 0x28a <lcd_write_data>
     384:	81 2f       	mov	r24, r17
     386:	0e 94 45 01 	call	0x28a	; 0x28a <lcd_write_data>
     38a:	80 e7       	ldi	r24, 0x70	; 112
     38c:	91 e0       	ldi	r25, 0x01	; 1
     38e:	01 97       	sbiw	r24, 0x01	; 1
     390:	f1 f7       	brne	.-4      	; 0x38e <write_lcd_data+0x38>
     392:	00 c0       	rjmp	.+0      	; 0x394 <write_lcd_data+0x3e>
     394:	2a 81       	ldd	r18, Y+2	; 0x02
     396:	82 2f       	mov	r24, r18
     398:	0e 94 45 01 	call	0x28a	; 0x28a <lcd_write_data>
     39c:	94 ec       	ldi	r25, 0xC4	; 196
     39e:	9a 95       	dec	r25
     3a0:	f1 f7       	brne	.-4      	; 0x39e <write_lcd_data+0x48>
     3a2:	00 c0       	rjmp	.+0      	; 0x3a4 <write_lcd_data+0x4e>
     3a4:	0f 90       	pop	r0
     3a6:	0f 90       	pop	r0
     3a8:	cf 91       	pop	r28
     3aa:	df 91       	pop	r29
     3ac:	1f 91       	pop	r17
     3ae:	08 95       	ret

000003b0 <lcd_clear_screen>:
     3b0:	8b e1       	ldi	r24, 0x1B	; 27
     3b2:	0e 94 45 01 	call	0x28a	; 0x28a <lcd_write_data>
     3b6:	83 e4       	ldi	r24, 0x43	; 67
     3b8:	0e 94 45 01 	call	0x28a	; 0x28a <lcd_write_data>
	#else
		//round up by default
		__ticks_dc = (uint32_t)(ceil(fabs(__tmp)));
	#endif

	__builtin_avr_delay_cycles(__ticks_dc);
     3bc:	86 e6       	ldi	r24, 0x66	; 102
     3be:	96 ee       	ldi	r25, 0xE6	; 230
     3c0:	a0 e0       	ldi	r26, 0x00	; 0
     3c2:	81 50       	subi	r24, 0x01	; 1
     3c4:	90 40       	sbci	r25, 0x00	; 0
     3c6:	a0 40       	sbci	r26, 0x00	; 0
     3c8:	e1 f7       	brne	.-8      	; 0x3c2 <lcd_clear_screen+0x12>
     3ca:	08 95       	ret

000003cc <display_char>:
     3cc:	ef 92       	push	r14
     3ce:	ff 92       	push	r15
     3d0:	0f 93       	push	r16
     3d2:	1f 93       	push	r17
     3d4:	18 2f       	mov	r17, r24
     3d6:	f6 2e       	mov	r15, r22
     3d8:	e4 2e       	mov	r14, r20
     3da:	84 2f       	mov	r24, r20
     3dc:	64 e6       	ldi	r22, 0x64	; 100
     3de:	0e 94 c0 46 	call	0x8d80	; 0x8d80 <__udivmodqi4>
     3e2:	08 2f       	mov	r16, r24
     3e4:	28 2f       	mov	r18, r24
     3e6:	30 e0       	ldi	r19, 0x00	; 0
     3e8:	20 5d       	subi	r18, 0xD0	; 208
     3ea:	3f 4f       	sbci	r19, 0xFF	; 255
     3ec:	44 27       	eor	r20, r20
     3ee:	37 fd       	sbrc	r19, 7
     3f0:	40 95       	com	r20
     3f2:	54 2f       	mov	r21, r20
     3f4:	81 2f       	mov	r24, r17
     3f6:	6f 2d       	mov	r22, r15
     3f8:	0e 94 ab 01 	call	0x356	; 0x356 <write_lcd_data>
     3fc:	8c e9       	ldi	r24, 0x9C	; 156
     3fe:	08 9f       	mul	r16, r24
     400:	00 2d       	mov	r16, r0
     402:	11 24       	eor	r1, r1
     404:	0e 0d       	add	r16, r14
     406:	80 2f       	mov	r24, r16
     408:	6a e0       	ldi	r22, 0x0A	; 10
     40a:	0e 94 c0 46 	call	0x8d80	; 0x8d80 <__udivmodqi4>
     40e:	e8 2e       	mov	r14, r24
     410:	6f 2d       	mov	r22, r15
     412:	6f 5f       	subi	r22, 0xFF	; 255
     414:	28 2f       	mov	r18, r24
     416:	30 e0       	ldi	r19, 0x00	; 0
     418:	20 5d       	subi	r18, 0xD0	; 208
     41a:	3f 4f       	sbci	r19, 0xFF	; 255
     41c:	44 27       	eor	r20, r20
     41e:	37 fd       	sbrc	r19, 7
     420:	40 95       	com	r20
     422:	54 2f       	mov	r21, r20
     424:	81 2f       	mov	r24, r17
     426:	0e 94 ab 01 	call	0x356	; 0x356 <write_lcd_data>
     42a:	6f 2d       	mov	r22, r15
     42c:	6e 5f       	subi	r22, 0xFE	; 254
     42e:	26 ef       	ldi	r18, 0xF6	; 246
     430:	e2 9e       	mul	r14, r18
     432:	20 2d       	mov	r18, r0
     434:	11 24       	eor	r1, r1
     436:	20 0f       	add	r18, r16
     438:	30 e0       	ldi	r19, 0x00	; 0
     43a:	20 5d       	subi	r18, 0xD0	; 208
     43c:	3f 4f       	sbci	r19, 0xFF	; 255
     43e:	44 27       	eor	r20, r20
     440:	37 fd       	sbrc	r19, 7
     442:	40 95       	com	r20
     444:	54 2f       	mov	r21, r20
     446:	81 2f       	mov	r24, r17
     448:	0e 94 ab 01 	call	0x356	; 0x356 <write_lcd_data>
     44c:	1f 91       	pop	r17
     44e:	0f 91       	pop	r16
     450:	ff 90       	pop	r15
     452:	ef 90       	pop	r14
     454:	08 95       	ret

00000456 <main>:

int gate[4],goal;


int main(void)
{
     456:	2f 92       	push	r2
     458:	3f 92       	push	r3
     45a:	4f 92       	push	r4
     45c:	5f 92       	push	r5
     45e:	6f 92       	push	r6
     460:	7f 92       	push	r7
     462:	8f 92       	push	r8
     464:	9f 92       	push	r9
     466:	af 92       	push	r10
     468:	bf 92       	push	r11
     46a:	cf 92       	push	r12
     46c:	df 92       	push	r13
     46e:	ef 92       	push	r14
     470:	ff 92       	push	r15
     472:	0f 93       	push	r16
     474:	1f 93       	push	r17
     476:	cf 93       	push	r28
     478:	df 93       	push	r29

    Interface_init();
     47a:	0e 94 e7 00 	call	0x1ce	; 0x1ce <Interface_init>

	write_gyro(0x1E, 1); // 지자기 OFF
     47e:	8e e1       	ldi	r24, 0x1E	; 30
     480:	61 e0       	ldi	r22, 0x01	; 1
     482:	0e 94 b1 00 	call	0x162	; 0x162 <write_gyro>
	write_gyro(0x1E, 5); // 자이로 500dps	
     486:	8e e1       	ldi	r24, 0x1E	; 30
     488:	65 e0       	ldi	r22, 0x05	; 5
     48a:	0e 94 b1 00 	call	0x162	; 0x162 <write_gyro>
	write_gyro(0x1E, 20); // 능동적 진동성분제거 OFF
     48e:	8e e1       	ldi	r24, 0x1E	; 30
     490:	64 e1       	ldi	r22, 0x14	; 20
     492:	0e 94 b1 00 	call	0x162	; 0x162 <write_gyro>

	write_gyro(0x1E, 16); // 자이로 보정
     496:	8e e1       	ldi	r24, 0x1E	; 30
     498:	60 e1       	ldi	r22, 0x10	; 16
     49a:	0e 94 b1 00 	call	0x162	; 0x162 <write_gyro>

	Camera_init();
     49e:	0e 94 0c 3f 	call	0x7e18	; 0x7e18 <Camera_init>
	Setting(11);
     4a2:	8b e0       	ldi	r24, 0x0B	; 11
     4a4:	0e 94 44 3f 	call	0x7e88	; 0x7e88 <Setting>
	TM(50);
     4a8:	82 e3       	ldi	r24, 0x32	; 50
     4aa:	0e 94 e8 1d 	call	0x3bd0	; 0x3bd0 <TM>
	V3
     4ae:	80 e0       	ldi	r24, 0x00	; 0
     4b0:	63 e1       	ldi	r22, 0x13	; 19
     4b2:	0e 94 26 3f 	call	0x7e4c	; 0x7e4c <Cmd>
     4b6:	88 23       	and	r24, r24
     4b8:	d1 f3       	breq	.-12     	; 0x4ae <main+0x58>
     4ba:	2f ef       	ldi	r18, 0xFF	; 255
     4bc:	3f e7       	ldi	r19, 0x7F	; 127
     4be:	46 e1       	ldi	r20, 0x16	; 22
     4c0:	21 50       	subi	r18, 0x01	; 1
     4c2:	30 40       	sbci	r19, 0x00	; 0
     4c4:	40 40       	sbci	r20, 0x00	; 0
     4c6:	e1 f7       	brne	.-8      	; 0x4c0 <main+0x6a>
     4c8:	00 c0       	rjmp	.+0      	; 0x4ca <main+0x74>
     4ca:	00 00       	nop

	_delay_ms(500);

	set
     4cc:	80 e0       	ldi	r24, 0x00	; 0
     4ce:	90 e0       	ldi	r25, 0x00	; 0
     4d0:	dc 01       	movw	r26, r24
     4d2:	80 93 76 02 	sts	0x0276, r24
     4d6:	90 93 77 02 	sts	0x0277, r25
     4da:	a0 93 78 02 	sts	0x0278, r26
     4de:	b0 93 79 02 	sts	0x0279, r27
     4e2:	20 91 76 02 	lds	r18, 0x0276
     4e6:	30 91 77 02 	lds	r19, 0x0277
     4ea:	40 91 78 02 	lds	r20, 0x0278
     4ee:	50 91 79 02 	lds	r21, 0x0279
     4f2:	20 93 72 02 	sts	0x0272, r18
     4f6:	30 93 73 02 	sts	0x0273, r19
     4fa:	40 93 74 02 	sts	0x0274, r20
     4fe:	50 93 75 02 	sts	0x0275, r21
     502:	20 91 72 02 	lds	r18, 0x0272
     506:	30 91 73 02 	lds	r19, 0x0273
     50a:	40 91 74 02 	lds	r20, 0x0274
     50e:	50 91 75 02 	lds	r21, 0x0275
     512:	20 93 6e 02 	sts	0x026E, r18
     516:	30 93 6f 02 	sts	0x026F, r19
     51a:	40 93 70 02 	sts	0x0270, r20
     51e:	50 93 71 02 	sts	0x0271, r21
     522:	80 93 82 02 	sts	0x0282, r24
     526:	90 93 83 02 	sts	0x0283, r25
     52a:	a0 93 84 02 	sts	0x0284, r26
     52e:	b0 93 85 02 	sts	0x0285, r27
     532:	80 91 82 02 	lds	r24, 0x0282
     536:	90 91 83 02 	lds	r25, 0x0283
     53a:	a0 91 84 02 	lds	r26, 0x0284
     53e:	b0 91 85 02 	lds	r27, 0x0285
     542:	80 93 7e 02 	sts	0x027E, r24
     546:	90 93 7f 02 	sts	0x027F, r25
     54a:	a0 93 80 02 	sts	0x0280, r26
     54e:	b0 93 81 02 	sts	0x0281, r27

	LED_ON(3);
     552:	c3 9a       	sbi	0x18, 3	; 24
     554:	4f ef       	ldi	r20, 0xFF	; 255
     556:	5f e7       	ldi	r21, 0x7F	; 127
     558:	64 e0       	ldi	r22, 0x04	; 4
     55a:	41 50       	subi	r20, 0x01	; 1
     55c:	50 40       	sbci	r21, 0x00	; 0
     55e:	60 40       	sbci	r22, 0x00	; 0
     560:	e1 f7       	brne	.-8      	; 0x55a <main+0x104>
     562:	00 c0       	rjmp	.+0      	; 0x564 <main+0x10e>
     564:	00 00       	nop
	_delay_ms(100);
	LED_OFF(3);
     566:	c3 98       	cbi	0x18, 3	; 24


///OUT GET
if(gate[1]){
	case -3:
	ar ab645(30);
     568:	0f 2e       	mov	r0, r31
     56a:	f0 e0       	ldi	r31, 0x00	; 0
     56c:	6f 2e       	mov	r6, r31
     56e:	f0 e0       	ldi	r31, 0x00	; 0
     570:	7f 2e       	mov	r7, r31
     572:	f0 e0       	ldi	r31, 0x00	; 0
     574:	8f 2e       	mov	r8, r31
     576:	f0 e0       	ldi	r31, 0x00	; 0
     578:	9f 2e       	mov	r9, r31
     57a:	f0 2d       	mov	r31, r0
     57c:	ba e5       	ldi	r27, 0x5A	; 90
     57e:	4b 2e       	mov	r4, r27
     580:	51 2c       	mov	r5, r1
     582:	a1 e2       	ldi	r26, 0x21	; 33
     584:	2a 2e       	mov	r2, r26
     586:	a3 e0       	ldi	r26, 0x03	; 3
     588:	3a 2e       	mov	r3, r26
	_delay_ms(100);
	LED_OFF(3);

	while(1)
	{		
	    if(SW1)
     58a:	b4 99       	sbic	0x16, 4	; 22
     58c:	14 c0       	rjmp	.+40     	; 0x5b6 <main+0x160>
		{
			key--;
     58e:	80 91 06 02 	lds	r24, 0x0206
     592:	90 91 07 02 	lds	r25, 0x0207
     596:	01 97       	sbiw	r24, 0x01	; 1
     598:	90 93 07 02 	sts	0x0207, r25
     59c:	80 93 06 02 	sts	0x0206, r24
			LED_ON(3);
     5a0:	c3 9a       	sbi	0x18, 3	; 24
     5a2:	6f ef       	ldi	r22, 0xFF	; 255
     5a4:	7f e7       	ldi	r23, 0x7F	; 127
     5a6:	84 e0       	ldi	r24, 0x04	; 4
     5a8:	61 50       	subi	r22, 0x01	; 1
     5aa:	70 40       	sbci	r23, 0x00	; 0
     5ac:	80 40       	sbci	r24, 0x00	; 0
     5ae:	e1 f7       	brne	.-8      	; 0x5a8 <main+0x152>
     5b0:	00 c0       	rjmp	.+0      	; 0x5b2 <main+0x15c>
     5b2:	00 00       	nop
			_delay_ms(100);
			LED_OFF(3);
     5b4:	c3 98       	cbi	0x18, 3	; 24

		}
	    if(SW3)
     5b6:	b6 99       	sbic	0x16, 6	; 22
     5b8:	14 c0       	rjmp	.+40     	; 0x5e2 <main+0x18c>
		{
			key++;
     5ba:	80 91 06 02 	lds	r24, 0x0206
     5be:	90 91 07 02 	lds	r25, 0x0207
     5c2:	01 96       	adiw	r24, 0x01	; 1
     5c4:	90 93 07 02 	sts	0x0207, r25
     5c8:	80 93 06 02 	sts	0x0206, r24
			LED_ON(3);
     5cc:	c3 9a       	sbi	0x18, 3	; 24
     5ce:	8f ef       	ldi	r24, 0xFF	; 255
     5d0:	9f e7       	ldi	r25, 0x7F	; 127
     5d2:	a4 e0       	ldi	r26, 0x04	; 4
     5d4:	81 50       	subi	r24, 0x01	; 1
     5d6:	90 40       	sbci	r25, 0x00	; 0
     5d8:	a0 40       	sbci	r26, 0x00	; 0
     5da:	e1 f7       	brne	.-8      	; 0x5d4 <main+0x17e>
     5dc:	00 c0       	rjmp	.+0      	; 0x5de <main+0x188>
     5de:	00 00       	nop
			_delay_ms(100);
			LED_OFF(3);
     5e0:	c3 98       	cbi	0x18, 3	; 24

		}
		
		
	    if(SW2)
     5e2:	b5 9b       	sbis	0x16, 5	; 22
     5e4:	02 c0       	rjmp	.+4      	; 0x5ea <main+0x194>
     5e6:	0c 94 4d 10 	jmp	0x209a	; 0x209a <__stack+0xf9b>
		{
			lcd_clear_screen();
     5ea:	0e 94 d8 01 	call	0x3b0	; 0x3b0 <lcd_clear_screen>
			LED_ON(3);
     5ee:	c3 9a       	sbi	0x18, 3	; 24
     5f0:	2f ef       	ldi	r18, 0xFF	; 255
     5f2:	3f e7       	ldi	r19, 0x7F	; 127
     5f4:	44 e0       	ldi	r20, 0x04	; 4
     5f6:	21 50       	subi	r18, 0x01	; 1
     5f8:	30 40       	sbci	r19, 0x00	; 0
     5fa:	40 40       	sbci	r20, 0x00	; 0
     5fc:	e1 f7       	brne	.-8      	; 0x5f6 <main+0x1a0>
     5fe:	00 c0       	rjmp	.+0      	; 0x600 <main+0x1aa>
     600:	00 00       	nop
			_delay_ms(100);
			LED_OFF(3);
     602:	c3 98       	cbi	0x18, 3	; 24

			switch(key)
     604:	80 91 06 02 	lds	r24, 0x0206
     608:	90 91 07 02 	lds	r25, 0x0207
     60c:	3f ef       	ldi	r19, 0xFF	; 255
     60e:	8d 3f       	cpi	r24, 0xFD	; 253
     610:	93 07       	cpc	r25, r19
     612:	11 f4       	brne	.+4      	; 0x618 <main+0x1c2>
     614:	0c 94 c3 0d 	jmp	0x1b86	; 0x1b86 <__stack+0xa87>
     618:	4f ef       	ldi	r20, 0xFF	; 255
     61a:	8e 3f       	cpi	r24, 0xFE	; 254
     61c:	94 07       	cpc	r25, r20
     61e:	9c f4       	brge	.+38     	; 0x646 <main+0x1f0>
     620:	5f ef       	ldi	r21, 0xFF	; 255
     622:	8b 3f       	cpi	r24, 0xFB	; 251
     624:	95 07       	cpc	r25, r21
     626:	09 f4       	brne	.+2      	; 0x62a <main+0x1d4>
     628:	dd c6       	rjmp	.+3514   	; 0x13e4 <__stack+0x2e5>
     62a:	6f ef       	ldi	r22, 0xFF	; 255
     62c:	8c 3f       	cpi	r24, 0xFC	; 252
     62e:	96 07       	cpc	r25, r22
     630:	14 f0       	brlt	.+4      	; 0x636 <main+0x1e0>
     632:	0c 94 77 0c 	jmp	0x18ee	; 0x18ee <__stack+0x7ef>
     636:	7f ef       	ldi	r23, 0xFF	; 255
     638:	8a 3f       	cpi	r24, 0xFA	; 250
     63a:	97 07       	cpc	r25, r23
     63c:	11 f0       	breq	.+4      	; 0x642 <main+0x1ec>
     63e:	0c 94 4d 10 	jmp	0x209a	; 0x209a <__stack+0xf9b>
     642:	0c 94 a9 0e 	jmp	0x1d52	; 0x1d52 <__stack+0xc53>
     646:	af ef       	ldi	r26, 0xFF	; 255
     648:	8f 3f       	cpi	r24, 0xFF	; 255
     64a:	9a 07       	cpc	r25, r26
     64c:	09 f4       	brne	.+2      	; 0x650 <main+0x1fa>
     64e:	ea c3       	rjmp	.+2004   	; 0xe24 <main+0x9ce>
     650:	bf ef       	ldi	r27, 0xFF	; 255
     652:	8f 3f       	cpi	r24, 0xFF	; 255
     654:	9b 07       	cpc	r25, r27
     656:	0c f4       	brge	.+2      	; 0x65a <main+0x204>
     658:	63 c5       	rjmp	.+2758   	; 0x1120 <__stack+0x21>
     65a:	83 30       	cpi	r24, 0x03	; 3
     65c:	91 05       	cpc	r25, r1
     65e:	14 f0       	brlt	.+4      	; 0x664 <main+0x20e>
     660:	0c 94 4d 10 	jmp	0x209a	; 0x209a <__stack+0xf9b>

case 0:
case 1:
case 2 : 

ar ab345(30);
     664:	60 92 3c 02 	sts	0x023C, r6
     668:	70 92 3d 02 	sts	0x023D, r7
     66c:	80 92 3e 02 	sts	0x023E, r8
     670:	90 92 3f 02 	sts	0x023F, r9
     674:	60 92 22 02 	sts	0x0222, r6
     678:	70 92 23 02 	sts	0x0223, r7
     67c:	80 92 24 02 	sts	0x0224, r8
     680:	90 92 25 02 	sts	0x0225, r9
     684:	50 92 5f 02 	sts	0x025F, r5
     688:	40 92 5e 02 	sts	0x025E, r4
     68c:	83 e0       	ldi	r24, 0x03	; 3
     68e:	90 e0       	ldi	r25, 0x00	; 0
     690:	6a e7       	ldi	r22, 0x7A	; 122
     692:	70 e0       	ldi	r23, 0x00	; 0
     694:	44 e0       	ldi	r20, 0x04	; 4
     696:	50 e0       	ldi	r21, 0x00	; 0
     698:	24 ec       	ldi	r18, 0xC4	; 196
     69a:	30 e0       	ldi	r19, 0x00	; 0
     69c:	05 e0       	ldi	r16, 0x05	; 5
     69e:	10 e0       	ldi	r17, 0x00	; 0
     6a0:	fa ea       	ldi	r31, 0xAA	; 170
     6a2:	ef 2e       	mov	r14, r31
     6a4:	f1 2c       	mov	r15, r1
     6a6:	ee e1       	ldi	r30, 0x1E	; 30
     6a8:	ce 2e       	mov	r12, r30
     6aa:	d1 2c       	mov	r13, r1
     6ac:	be e1       	ldi	r27, 0x1E	; 30
     6ae:	ab 2e       	mov	r10, r27
     6b0:	b1 2c       	mov	r11, r1
     6b2:	0e 94 42 38 	call	0x7084	; 0x7084 <AB>
     6b6:	10 92 5f 02 	sts	0x025F, r1
     6ba:	10 92 5e 02 	sts	0x025E, r1

CPsd(12,1,5,3,11,0,40,50);
     6be:	8c e0       	ldi	r24, 0x0C	; 12
     6c0:	90 e0       	ldi	r25, 0x00	; 0
     6c2:	61 e0       	ldi	r22, 0x01	; 1
     6c4:	70 e0       	ldi	r23, 0x00	; 0
     6c6:	45 e0       	ldi	r20, 0x05	; 5
     6c8:	50 e0       	ldi	r21, 0x00	; 0
     6ca:	23 e0       	ldi	r18, 0x03	; 3
     6cc:	30 e0       	ldi	r19, 0x00	; 0
     6ce:	0b e0       	ldi	r16, 0x0B	; 11
     6d0:	10 e0       	ldi	r17, 0x00	; 0
     6d2:	ee 24       	eor	r14, r14
     6d4:	ff 24       	eor	r15, r15
     6d6:	a8 e2       	ldi	r26, 0x28	; 40
     6d8:	ca 2e       	mov	r12, r26
     6da:	d1 2c       	mov	r13, r1
     6dc:	f2 e3       	ldi	r31, 0x32	; 50
     6de:	af 2e       	mov	r10, r31
     6e0:	b1 2c       	mov	r11, r1
     6e2:	0e 94 45 29 	call	0x528a	; 0x528a <CPsd>
CPsd(10,1,5,5,11,0,40,0);
     6e6:	8a e0       	ldi	r24, 0x0A	; 10
     6e8:	90 e0       	ldi	r25, 0x00	; 0
     6ea:	61 e0       	ldi	r22, 0x01	; 1
     6ec:	70 e0       	ldi	r23, 0x00	; 0
     6ee:	45 e0       	ldi	r20, 0x05	; 5
     6f0:	50 e0       	ldi	r21, 0x00	; 0
     6f2:	25 e0       	ldi	r18, 0x05	; 5
     6f4:	30 e0       	ldi	r19, 0x00	; 0
     6f6:	aa 24       	eor	r10, r10
     6f8:	bb 24       	eor	r11, r11
     6fa:	0e 94 45 29 	call	0x528a	; 0x528a <CPsd>
Drift(1,35,-90,30,0);
     6fe:	81 e0       	ldi	r24, 0x01	; 1
     700:	90 e0       	ldi	r25, 0x00	; 0
     702:	63 e2       	ldi	r22, 0x23	; 35
     704:	70 e0       	ldi	r23, 0x00	; 0
     706:	46 ea       	ldi	r20, 0xA6	; 166
     708:	5f ef       	ldi	r21, 0xFF	; 255
     70a:	2e e1       	ldi	r18, 0x1E	; 30
     70c:	30 e0       	ldi	r19, 0x00	; 0
     70e:	00 e0       	ldi	r16, 0x00	; 0
     710:	10 e0       	ldi	r17, 0x00	; 0
     712:	0e 94 7b 2c 	call	0x58f6	; 0x58f6 <Drift>


goal = T(101,3);
     716:	85 e6       	ldi	r24, 0x65	; 101
     718:	90 e0       	ldi	r25, 0x00	; 0
     71a:	63 e0       	ldi	r22, 0x03	; 3
     71c:	70 e0       	ldi	r23, 0x00	; 0
     71e:	0e 94 fa 1d 	call	0x3bf4	; 0x3bf4 <T>
     722:	90 93 6d 02 	sts	0x026D, r25
     726:	80 93 6c 02 	sts	0x026C, r24
CPsd(12,1,5,3,11,0,40,50);
     72a:	8c e0       	ldi	r24, 0x0C	; 12
     72c:	90 e0       	ldi	r25, 0x00	; 0
     72e:	61 e0       	ldi	r22, 0x01	; 1
     730:	70 e0       	ldi	r23, 0x00	; 0
     732:	45 e0       	ldi	r20, 0x05	; 5
     734:	50 e0       	ldi	r21, 0x00	; 0
     736:	23 e0       	ldi	r18, 0x03	; 3
     738:	30 e0       	ldi	r19, 0x00	; 0
     73a:	0b e0       	ldi	r16, 0x0B	; 11
     73c:	10 e0       	ldi	r17, 0x00	; 0
     73e:	e2 e3       	ldi	r30, 0x32	; 50
     740:	ae 2e       	mov	r10, r30
     742:	b1 2c       	mov	r11, r1
     744:	0e 94 45 29 	call	0x528a	; 0x528a <CPsd>
CPsd(10,1,20,5,11,0,40,-50);
     748:	8a e0       	ldi	r24, 0x0A	; 10
     74a:	90 e0       	ldi	r25, 0x00	; 0
     74c:	61 e0       	ldi	r22, 0x01	; 1
     74e:	70 e0       	ldi	r23, 0x00	; 0
     750:	44 e1       	ldi	r20, 0x14	; 20
     752:	50 e0       	ldi	r21, 0x00	; 0
     754:	25 e0       	ldi	r18, 0x05	; 5
     756:	30 e0       	ldi	r19, 0x00	; 0
     758:	be ec       	ldi	r27, 0xCE	; 206
     75a:	ab 2e       	mov	r10, r27
     75c:	bf ef       	ldi	r27, 0xFF	; 255
     75e:	bb 2e       	mov	r11, r27
     760:	0e 94 45 29 	call	0x528a	; 0x528a <CPsd>

Axis(0,-15,0,30,40);
     764:	80 e0       	ldi	r24, 0x00	; 0
     766:	90 e0       	ldi	r25, 0x00	; 0
     768:	61 ef       	ldi	r22, 0xF1	; 241
     76a:	7f ef       	ldi	r23, 0xFF	; 255
     76c:	40 e0       	ldi	r20, 0x00	; 0
     76e:	50 e0       	ldi	r21, 0x00	; 0
     770:	2e e1       	ldi	r18, 0x1E	; 30
     772:	30 e0       	ldi	r19, 0x00	; 0
     774:	08 e2       	ldi	r16, 0x28	; 40
     776:	10 e0       	ldi	r17, 0x00	; 0
     778:	0e 94 01 23 	call	0x4602	; 0x4602 <Axis>
ab45(30);
     77c:	50 92 5f 02 	sts	0x025F, r5
     780:	40 92 5e 02 	sts	0x025E, r4
     784:	80 e0       	ldi	r24, 0x00	; 0
     786:	90 e0       	ldi	r25, 0x00	; 0
     788:	60 e0       	ldi	r22, 0x00	; 0
     78a:	70 e0       	ldi	r23, 0x00	; 0
     78c:	44 e0       	ldi	r20, 0x04	; 4
     78e:	50 e0       	ldi	r21, 0x00	; 0
     790:	24 ec       	ldi	r18, 0xC4	; 196
     792:	30 e0       	ldi	r19, 0x00	; 0
     794:	05 e0       	ldi	r16, 0x05	; 5
     796:	10 e0       	ldi	r17, 0x00	; 0
     798:	aa ea       	ldi	r26, 0xAA	; 170
     79a:	ea 2e       	mov	r14, r26
     79c:	f1 2c       	mov	r15, r1
     79e:	fe e1       	ldi	r31, 0x1E	; 30
     7a0:	cf 2e       	mov	r12, r31
     7a2:	d1 2c       	mov	r13, r1
     7a4:	ee e1       	ldi	r30, 0x1E	; 30
     7a6:	ae 2e       	mov	r10, r30
     7a8:	b1 2c       	mov	r11, r1
     7aa:	0e 94 42 38 	call	0x7084	; 0x7084 <AB>

ar ab345(30);
     7ae:	60 92 3c 02 	sts	0x023C, r6
     7b2:	70 92 3d 02 	sts	0x023D, r7
     7b6:	80 92 3e 02 	sts	0x023E, r8
     7ba:	90 92 3f 02 	sts	0x023F, r9
     7be:	60 92 22 02 	sts	0x0222, r6
     7c2:	70 92 23 02 	sts	0x0223, r7
     7c6:	80 92 24 02 	sts	0x0224, r8
     7ca:	90 92 25 02 	sts	0x0225, r9
     7ce:	50 92 5f 02 	sts	0x025F, r5
     7d2:	40 92 5e 02 	sts	0x025E, r4
     7d6:	83 e0       	ldi	r24, 0x03	; 3
     7d8:	90 e0       	ldi	r25, 0x00	; 0
     7da:	6a e7       	ldi	r22, 0x7A	; 122
     7dc:	70 e0       	ldi	r23, 0x00	; 0
     7de:	44 e0       	ldi	r20, 0x04	; 4
     7e0:	50 e0       	ldi	r21, 0x00	; 0
     7e2:	24 ec       	ldi	r18, 0xC4	; 196
     7e4:	30 e0       	ldi	r19, 0x00	; 0
     7e6:	0e 94 42 38 	call	0x7084	; 0x7084 <AB>
     7ea:	10 92 5f 02 	sts	0x025F, r1
     7ee:	10 92 5e 02 	sts	0x025E, r1
Axis(0,-2,0,10,120);
     7f2:	80 e0       	ldi	r24, 0x00	; 0
     7f4:	90 e0       	ldi	r25, 0x00	; 0
     7f6:	6e ef       	ldi	r22, 0xFE	; 254
     7f8:	7f ef       	ldi	r23, 0xFF	; 255
     7fa:	40 e0       	ldi	r20, 0x00	; 0
     7fc:	50 e0       	ldi	r21, 0x00	; 0
     7fe:	2a e0       	ldi	r18, 0x0A	; 10
     800:	30 e0       	ldi	r19, 0x00	; 0
     802:	08 e7       	ldi	r16, 0x78	; 120
     804:	10 e0       	ldi	r17, 0x00	; 0
     806:	0e 94 01 23 	call	0x4602	; 0x4602 <Axis>


Drift(25,0,70,30,40);	wa =-20;
     80a:	89 e1       	ldi	r24, 0x19	; 25
     80c:	90 e0       	ldi	r25, 0x00	; 0
     80e:	60 e0       	ldi	r22, 0x00	; 0
     810:	70 e0       	ldi	r23, 0x00	; 0
     812:	46 e4       	ldi	r20, 0x46	; 70
     814:	50 e0       	ldi	r21, 0x00	; 0
     816:	2e e1       	ldi	r18, 0x1E	; 30
     818:	30 e0       	ldi	r19, 0x00	; 0
     81a:	08 e2       	ldi	r16, 0x28	; 40
     81c:	10 e0       	ldi	r17, 0x00	; 0
     81e:	0e 94 7b 2c 	call	0x58f6	; 0x58f6 <Drift>
     822:	cc ee       	ldi	r28, 0xEC	; 236
     824:	df ef       	ldi	r29, 0xFF	; 255
     826:	d0 93 5f 02 	sts	0x025F, r29
     82a:	c0 93 5e 02 	sts	0x025E, r28
Ot(-23,90,90,25,0);
     82e:	89 ee       	ldi	r24, 0xE9	; 233
     830:	9f ef       	ldi	r25, 0xFF	; 255
     832:	6a e5       	ldi	r22, 0x5A	; 90
     834:	70 e0       	ldi	r23, 0x00	; 0
     836:	4a e5       	ldi	r20, 0x5A	; 90
     838:	50 e0       	ldi	r21, 0x00	; 0
     83a:	29 e1       	ldi	r18, 0x19	; 25
     83c:	30 e0       	ldi	r19, 0x00	; 0
     83e:	00 e0       	ldi	r16, 0x00	; 0
     840:	10 e0       	ldi	r17, 0x00	; 0
     842:	0e 94 fb 2f 	call	0x5ff6	; 0x5ff6 <Ot>


CPsd(12,6,-5,3,13,0,40,0);
     846:	8c e0       	ldi	r24, 0x0C	; 12
     848:	90 e0       	ldi	r25, 0x00	; 0
     84a:	66 e0       	ldi	r22, 0x06	; 6
     84c:	70 e0       	ldi	r23, 0x00	; 0
     84e:	4b ef       	ldi	r20, 0xFB	; 251
     850:	5f ef       	ldi	r21, 0xFF	; 255
     852:	23 e0       	ldi	r18, 0x03	; 3
     854:	30 e0       	ldi	r19, 0x00	; 0
     856:	0d e0       	ldi	r16, 0x0D	; 13
     858:	10 e0       	ldi	r17, 0x00	; 0
     85a:	ee 24       	eor	r14, r14
     85c:	ff 24       	eor	r15, r15
     85e:	b8 e2       	ldi	r27, 0x28	; 40
     860:	cb 2e       	mov	r12, r27
     862:	d1 2c       	mov	r13, r1
     864:	aa 24       	eor	r10, r10
     866:	bb 24       	eor	r11, r11
     868:	0e 94 45 29 	call	0x528a	; 0x528a <CPsd>
sbar_2 = 0;
     86c:	10 92 63 02 	sts	0x0263, r1
     870:	10 92 62 02 	sts	0x0262, r1
CPsd(10,6,-5,5,13,0,40,0);
     874:	8a e0       	ldi	r24, 0x0A	; 10
     876:	90 e0       	ldi	r25, 0x00	; 0
     878:	66 e0       	ldi	r22, 0x06	; 6
     87a:	70 e0       	ldi	r23, 0x00	; 0
     87c:	4b ef       	ldi	r20, 0xFB	; 251
     87e:	5f ef       	ldi	r21, 0xFF	; 255
     880:	25 e0       	ldi	r18, 0x05	; 5
     882:	30 e0       	ldi	r19, 0x00	; 0
     884:	0e 94 45 29 	call	0x528a	; 0x528a <CPsd>
CPsd(6,6,-1000,3,13,22,40,0);
     888:	86 e0       	ldi	r24, 0x06	; 6
     88a:	90 e0       	ldi	r25, 0x00	; 0
     88c:	66 e0       	ldi	r22, 0x06	; 6
     88e:	70 e0       	ldi	r23, 0x00	; 0
     890:	48 e1       	ldi	r20, 0x18	; 24
     892:	5c ef       	ldi	r21, 0xFC	; 252
     894:	23 e0       	ldi	r18, 0x03	; 3
     896:	30 e0       	ldi	r19, 0x00	; 0
     898:	a6 e1       	ldi	r26, 0x16	; 22
     89a:	ea 2e       	mov	r14, r26
     89c:	f1 2c       	mov	r15, r1
     89e:	0e 94 45 29 	call	0x528a	; 0x528a <CPsd>

gate[1] = sbar_2;
     8a2:	80 91 62 02 	lds	r24, 0x0262
     8a6:	90 91 63 02 	lds	r25, 0x0263
     8aa:	90 93 67 02 	sts	0x0267, r25
     8ae:	80 93 66 02 	sts	0x0266, r24
if(key == 2) gate[1] = 1;
     8b2:	80 91 06 02 	lds	r24, 0x0206
     8b6:	90 91 07 02 	lds	r25, 0x0207
     8ba:	82 30       	cpi	r24, 0x02	; 2
     8bc:	91 05       	cpc	r25, r1
     8be:	31 f4       	brne	.+12     	; 0x8cc <main+0x476>
     8c0:	e1 e0       	ldi	r30, 0x01	; 1
     8c2:	f0 e0       	ldi	r31, 0x00	; 0
     8c4:	f0 93 67 02 	sts	0x0267, r31
     8c8:	e0 93 66 02 	sts	0x0266, r30

Ad(0,-15,40,40,-50,60);	wa = 20;
     8cc:	80 e0       	ldi	r24, 0x00	; 0
     8ce:	90 e0       	ldi	r25, 0x00	; 0
     8d0:	61 ef       	ldi	r22, 0xF1	; 241
     8d2:	7f ef       	ldi	r23, 0xFF	; 255
     8d4:	48 e2       	ldi	r20, 0x28	; 40
     8d6:	50 e0       	ldi	r21, 0x00	; 0
     8d8:	28 e2       	ldi	r18, 0x28	; 40
     8da:	30 e0       	ldi	r19, 0x00	; 0
     8dc:	0e ec       	ldi	r16, 0xCE	; 206
     8de:	1f ef       	ldi	r17, 0xFF	; 255
     8e0:	fc e3       	ldi	r31, 0x3C	; 60
     8e2:	ef 2e       	mov	r14, r31
     8e4:	f1 2c       	mov	r15, r1
     8e6:	0e 94 37 33 	call	0x666e	; 0x666e <Ad>
     8ea:	84 e1       	ldi	r24, 0x14	; 20
     8ec:	90 e0       	ldi	r25, 0x00	; 0
     8ee:	90 93 5f 02 	sts	0x025F, r25
     8f2:	80 93 5e 02 	sts	0x025E, r24

Drift(-5,25,70,25,35);	cw
     8f6:	8b ef       	ldi	r24, 0xFB	; 251
     8f8:	9f ef       	ldi	r25, 0xFF	; 255
     8fa:	69 e1       	ldi	r22, 0x19	; 25
     8fc:	70 e0       	ldi	r23, 0x00	; 0
     8fe:	46 e4       	ldi	r20, 0x46	; 70
     900:	50 e0       	ldi	r21, 0x00	; 0
     902:	29 e1       	ldi	r18, 0x19	; 25
     904:	30 e0       	ldi	r19, 0x00	; 0
     906:	03 e2       	ldi	r16, 0x23	; 35
     908:	10 e0       	ldi	r17, 0x00	; 0
     90a:	0e 94 7b 2c 	call	0x58f6	; 0x58f6 <Drift>
     90e:	10 92 5f 02 	sts	0x025F, r1
     912:	10 92 5e 02 	sts	0x025E, r1


set
     916:	60 92 76 02 	sts	0x0276, r6
     91a:	70 92 77 02 	sts	0x0277, r7
     91e:	80 92 78 02 	sts	0x0278, r8
     922:	90 92 79 02 	sts	0x0279, r9
     926:	80 91 76 02 	lds	r24, 0x0276
     92a:	90 91 77 02 	lds	r25, 0x0277
     92e:	a0 91 78 02 	lds	r26, 0x0278
     932:	b0 91 79 02 	lds	r27, 0x0279
     936:	80 93 72 02 	sts	0x0272, r24
     93a:	90 93 73 02 	sts	0x0273, r25
     93e:	a0 93 74 02 	sts	0x0274, r26
     942:	b0 93 75 02 	sts	0x0275, r27
     946:	80 91 72 02 	lds	r24, 0x0272
     94a:	90 91 73 02 	lds	r25, 0x0273
     94e:	a0 91 74 02 	lds	r26, 0x0274
     952:	b0 91 75 02 	lds	r27, 0x0275
     956:	80 93 6e 02 	sts	0x026E, r24
     95a:	90 93 6f 02 	sts	0x026F, r25
     95e:	a0 93 70 02 	sts	0x0270, r26
     962:	b0 93 71 02 	sts	0x0271, r27
     966:	60 92 82 02 	sts	0x0282, r6
     96a:	70 92 83 02 	sts	0x0283, r7
     96e:	80 92 84 02 	sts	0x0284, r8
     972:	90 92 85 02 	sts	0x0285, r9
     976:	80 91 82 02 	lds	r24, 0x0282
     97a:	90 91 83 02 	lds	r25, 0x0283
     97e:	a0 91 84 02 	lds	r26, 0x0284
     982:	b0 91 85 02 	lds	r27, 0x0285
     986:	80 93 7e 02 	sts	0x027E, r24
     98a:	90 93 7f 02 	sts	0x027F, r25
     98e:	a0 93 80 02 	sts	0x0280, r26
     992:	b0 93 81 02 	sts	0x0281, r27

CPsd(12,8,3,3,15,0,40,50);
     996:	8c e0       	ldi	r24, 0x0C	; 12
     998:	90 e0       	ldi	r25, 0x00	; 0
     99a:	68 e0       	ldi	r22, 0x08	; 8
     99c:	70 e0       	ldi	r23, 0x00	; 0
     99e:	43 e0       	ldi	r20, 0x03	; 3
     9a0:	50 e0       	ldi	r21, 0x00	; 0
     9a2:	23 e0       	ldi	r18, 0x03	; 3
     9a4:	30 e0       	ldi	r19, 0x00	; 0
     9a6:	0f e0       	ldi	r16, 0x0F	; 15
     9a8:	10 e0       	ldi	r17, 0x00	; 0
     9aa:	ee 24       	eor	r14, r14
     9ac:	ff 24       	eor	r15, r15
     9ae:	e8 e2       	ldi	r30, 0x28	; 40
     9b0:	ce 2e       	mov	r12, r30
     9b2:	d1 2c       	mov	r13, r1
     9b4:	b2 e3       	ldi	r27, 0x32	; 50
     9b6:	ab 2e       	mov	r10, r27
     9b8:	b1 2c       	mov	r11, r1
     9ba:	0e 94 45 29 	call	0x528a	; 0x528a <CPsd>
CPsd(10,8,5,5,15,0,40,0);
     9be:	8a e0       	ldi	r24, 0x0A	; 10
     9c0:	90 e0       	ldi	r25, 0x00	; 0
     9c2:	68 e0       	ldi	r22, 0x08	; 8
     9c4:	70 e0       	ldi	r23, 0x00	; 0
     9c6:	45 e0       	ldi	r20, 0x05	; 5
     9c8:	50 e0       	ldi	r21, 0x00	; 0
     9ca:	25 e0       	ldi	r18, 0x05	; 5
     9cc:	30 e0       	ldi	r19, 0x00	; 0
     9ce:	aa 24       	eor	r10, r10
     9d0:	bb 24       	eor	r11, r11
     9d2:	0e 94 45 29 	call	0x528a	; 0x528a <CPsd>
CPsd(8,8,1000,5,15,25,40,0);
     9d6:	88 e0       	ldi	r24, 0x08	; 8
     9d8:	90 e0       	ldi	r25, 0x00	; 0
     9da:	68 e0       	ldi	r22, 0x08	; 8
     9dc:	70 e0       	ldi	r23, 0x00	; 0
     9de:	48 ee       	ldi	r20, 0xE8	; 232
     9e0:	53 e0       	ldi	r21, 0x03	; 3
     9e2:	25 e0       	ldi	r18, 0x05	; 5
     9e4:	30 e0       	ldi	r19, 0x00	; 0
     9e6:	a9 e1       	ldi	r26, 0x19	; 25
     9e8:	ea 2e       	mov	r14, r26
     9ea:	f1 2c       	mov	r15, r1
     9ec:	0e 94 45 29 	call	0x528a	; 0x528a <CPsd>


gate[0] = pos[1] > 45;
     9f0:	60 91 72 02 	lds	r22, 0x0272
     9f4:	70 91 73 02 	lds	r23, 0x0273
     9f8:	80 91 74 02 	lds	r24, 0x0274
     9fc:	90 91 75 02 	lds	r25, 0x0275
     a00:	c1 e0       	ldi	r28, 0x01	; 1
     a02:	d0 e0       	ldi	r29, 0x00	; 0
     a04:	20 e0       	ldi	r18, 0x00	; 0
     a06:	30 e0       	ldi	r19, 0x00	; 0
     a08:	44 e3       	ldi	r20, 0x34	; 52
     a0a:	52 e4       	ldi	r21, 0x42	; 66
     a0c:	0e 94 93 42 	call	0x8526	; 0x8526 <__gesf2>
     a10:	18 16       	cp	r1, r24
     a12:	14 f0       	brlt	.+4      	; 0xa18 <main+0x5c2>
     a14:	c0 e0       	ldi	r28, 0x00	; 0
     a16:	d0 e0       	ldi	r29, 0x00	; 0
     a18:	d0 93 65 02 	sts	0x0265, r29
     a1c:	c0 93 64 02 	sts	0x0264, r28

Drift(0,22,-40,30,0);	wa = -40;
     a20:	80 e0       	ldi	r24, 0x00	; 0
     a22:	90 e0       	ldi	r25, 0x00	; 0
     a24:	66 e1       	ldi	r22, 0x16	; 22
     a26:	70 e0       	ldi	r23, 0x00	; 0
     a28:	48 ed       	ldi	r20, 0xD8	; 216
     a2a:	5f ef       	ldi	r21, 0xFF	; 255
     a2c:	2e e1       	ldi	r18, 0x1E	; 30
     a2e:	30 e0       	ldi	r19, 0x00	; 0
     a30:	00 e0       	ldi	r16, 0x00	; 0
     a32:	10 e0       	ldi	r17, 0x00	; 0
     a34:	0e 94 7b 2c 	call	0x58f6	; 0x58f6 <Drift>
     a38:	88 ed       	ldi	r24, 0xD8	; 216
     a3a:	9f ef       	ldi	r25, 0xFF	; 255
     a3c:	90 93 5f 02 	sts	0x025F, r25
     a40:	80 93 5e 02 	sts	0x025E, r24
Ot(20,-90,-50,30,0);	cw
     a44:	84 e1       	ldi	r24, 0x14	; 20
     a46:	90 e0       	ldi	r25, 0x00	; 0
     a48:	66 ea       	ldi	r22, 0xA6	; 166
     a4a:	7f ef       	ldi	r23, 0xFF	; 255
     a4c:	4e ec       	ldi	r20, 0xCE	; 206
     a4e:	5f ef       	ldi	r21, 0xFF	; 255
     a50:	2e e1       	ldi	r18, 0x1E	; 30
     a52:	30 e0       	ldi	r19, 0x00	; 0
     a54:	0e 94 fb 2f 	call	0x5ff6	; 0x5ff6 <Ot>
     a58:	10 92 5f 02 	sts	0x025F, r1
     a5c:	10 92 5e 02 	sts	0x025E, r1
Drift(1,28,-90,30,-40);
     a60:	81 e0       	ldi	r24, 0x01	; 1
     a62:	90 e0       	ldi	r25, 0x00	; 0
     a64:	6c e1       	ldi	r22, 0x1C	; 28
     a66:	70 e0       	ldi	r23, 0x00	; 0
     a68:	46 ea       	ldi	r20, 0xA6	; 166
     a6a:	5f ef       	ldi	r21, 0xFF	; 255
     a6c:	2e e1       	ldi	r18, 0x1E	; 30
     a6e:	30 e0       	ldi	r19, 0x00	; 0
     a70:	08 ed       	ldi	r16, 0xD8	; 216
     a72:	1f ef       	ldi	r17, 0xFF	; 255
     a74:	0e 94 7b 2c 	call	0x58f6	; 0x58f6 <Drift>


if(gate[0]){
     a78:	80 91 64 02 	lds	r24, 0x0264
     a7c:	90 91 65 02 	lds	r25, 0x0265
     a80:	00 97       	sbiw	r24, 0x00	; 0
     a82:	a1 f1       	breq	.+104    	; 0xaec <main+0x696>
	cm = 30;
     a84:	8e e1       	ldi	r24, 0x1E	; 30
     a86:	90 e0       	ldi	r25, 0x00	; 0
     a88:	90 93 0b 02 	sts	0x020B, r25
     a8c:	80 93 0a 02 	sts	0x020A, r24
	ar ab345(30);
     a90:	60 92 3c 02 	sts	0x023C, r6
     a94:	70 92 3d 02 	sts	0x023D, r7
     a98:	80 92 3e 02 	sts	0x023E, r8
     a9c:	90 92 3f 02 	sts	0x023F, r9
     aa0:	60 92 22 02 	sts	0x0222, r6
     aa4:	70 92 23 02 	sts	0x0223, r7
     aa8:	80 92 24 02 	sts	0x0224, r8
     aac:	90 92 25 02 	sts	0x0225, r9
     ab0:	50 92 5f 02 	sts	0x025F, r5
     ab4:	40 92 5e 02 	sts	0x025E, r4
     ab8:	83 e0       	ldi	r24, 0x03	; 3
     aba:	90 e0       	ldi	r25, 0x00	; 0
     abc:	6a e7       	ldi	r22, 0x7A	; 122
     abe:	70 e0       	ldi	r23, 0x00	; 0
     ac0:	44 e0       	ldi	r20, 0x04	; 4
     ac2:	50 e0       	ldi	r21, 0x00	; 0
     ac4:	24 ec       	ldi	r18, 0xC4	; 196
     ac6:	30 e0       	ldi	r19, 0x00	; 0
     ac8:	05 e0       	ldi	r16, 0x05	; 5
     aca:	10 e0       	ldi	r17, 0x00	; 0
     acc:	fa ea       	ldi	r31, 0xAA	; 170
     ace:	ef 2e       	mov	r14, r31
     ad0:	f1 2c       	mov	r15, r1
     ad2:	ee e1       	ldi	r30, 0x1E	; 30
     ad4:	ce 2e       	mov	r12, r30
     ad6:	d1 2c       	mov	r13, r1
     ad8:	be e1       	ldi	r27, 0x1E	; 30
     ada:	ab 2e       	mov	r10, r27
     adc:	b1 2c       	mov	r11, r1
     ade:	0e 94 42 38 	call	0x7084	; 0x7084 <AB>
     ae2:	10 92 5f 02 	sts	0x025F, r1
     ae6:	10 92 5e 02 	sts	0x025E, r1
     aea:	29 c0       	rjmp	.+82     	; 0xb3e <main+0x6e8>
}

else{
	ar ab13(30);
     aec:	60 92 3c 02 	sts	0x023C, r6
     af0:	70 92 3d 02 	sts	0x023D, r7
     af4:	80 92 3e 02 	sts	0x023E, r8
     af8:	90 92 3f 02 	sts	0x023F, r9
     afc:	60 92 22 02 	sts	0x0222, r6
     b00:	70 92 23 02 	sts	0x0223, r7
     b04:	80 92 24 02 	sts	0x0224, r8
     b08:	90 92 25 02 	sts	0x0225, r9
     b0c:	80 e0       	ldi	r24, 0x00	; 0
     b0e:	90 e0       	ldi	r25, 0x00	; 0
     b10:	60 e0       	ldi	r22, 0x00	; 0
     b12:	70 e0       	ldi	r23, 0x00	; 0
     b14:	41 e0       	ldi	r20, 0x01	; 1
     b16:	50 e0       	ldi	r21, 0x00	; 0
     b18:	25 ea       	ldi	r18, 0xA5	; 165
     b1a:	30 e0       	ldi	r19, 0x00	; 0
     b1c:	03 e0       	ldi	r16, 0x03	; 3
     b1e:	10 e0       	ldi	r17, 0x00	; 0
     b20:	ad e9       	ldi	r26, 0x9D	; 157
     b22:	ea 2e       	mov	r14, r26
     b24:	f1 2c       	mov	r15, r1
     b26:	fe e1       	ldi	r31, 0x1E	; 30
     b28:	cf 2e       	mov	r12, r31
     b2a:	d1 2c       	mov	r13, r1
     b2c:	ee e1       	ldi	r30, 0x1E	; 30
     b2e:	ae 2e       	mov	r10, r30
     b30:	b1 2c       	mov	r11, r1
     b32:	0e 94 42 38 	call	0x7084	; 0x7084 <AB>
	cm = 0;
     b36:	10 92 0b 02 	sts	0x020B, r1
     b3a:	10 92 0a 02 	sts	0x020A, r1
}


if(goal == T(101,3)) {
     b3e:	c0 91 6c 02 	lds	r28, 0x026C
     b42:	d0 91 6d 02 	lds	r29, 0x026D
     b46:	85 e6       	ldi	r24, 0x65	; 101
     b48:	90 e0       	ldi	r25, 0x00	; 0
     b4a:	63 e0       	ldi	r22, 0x03	; 3
     b4c:	70 e0       	ldi	r23, 0x00	; 0
     b4e:	0e 94 fa 1d 	call	0x3bf4	; 0x3bf4 <T>
     b52:	c8 17       	cp	r28, r24
     b54:	d9 07       	cpc	r29, r25
     b56:	09 f0       	breq	.+2      	; 0xb5a <main+0x704>
     b58:	7e c0       	rjmp	.+252    	; 0xc56 <main+0x800>
	set
     b5a:	60 92 76 02 	sts	0x0276, r6
     b5e:	70 92 77 02 	sts	0x0277, r7
     b62:	80 92 78 02 	sts	0x0278, r8
     b66:	90 92 79 02 	sts	0x0279, r9
     b6a:	80 91 76 02 	lds	r24, 0x0276
     b6e:	90 91 77 02 	lds	r25, 0x0277
     b72:	a0 91 78 02 	lds	r26, 0x0278
     b76:	b0 91 79 02 	lds	r27, 0x0279
     b7a:	80 93 72 02 	sts	0x0272, r24
     b7e:	90 93 73 02 	sts	0x0273, r25
     b82:	a0 93 74 02 	sts	0x0274, r26
     b86:	b0 93 75 02 	sts	0x0275, r27
     b8a:	80 91 72 02 	lds	r24, 0x0272
     b8e:	90 91 73 02 	lds	r25, 0x0273
     b92:	a0 91 74 02 	lds	r26, 0x0274
     b96:	b0 91 75 02 	lds	r27, 0x0275
     b9a:	80 93 6e 02 	sts	0x026E, r24
     b9e:	90 93 6f 02 	sts	0x026F, r25
     ba2:	a0 93 70 02 	sts	0x0270, r26
     ba6:	b0 93 71 02 	sts	0x0271, r27
     baa:	60 92 82 02 	sts	0x0282, r6
     bae:	70 92 83 02 	sts	0x0283, r7
     bb2:	80 92 84 02 	sts	0x0284, r8
     bb6:	90 92 85 02 	sts	0x0285, r9
     bba:	80 91 82 02 	lds	r24, 0x0282
     bbe:	90 91 83 02 	lds	r25, 0x0283
     bc2:	a0 91 84 02 	lds	r26, 0x0284
     bc6:	b0 91 85 02 	lds	r27, 0x0285
     bca:	80 93 7e 02 	sts	0x027E, r24
     bce:	90 93 7f 02 	sts	0x027F, r25
     bd2:	a0 93 80 02 	sts	0x0280, r26
     bd6:	b0 93 81 02 	sts	0x0281, r27
	CPsd(12,1,3,3,11,0,40,50);
     bda:	8c e0       	ldi	r24, 0x0C	; 12
     bdc:	90 e0       	ldi	r25, 0x00	; 0
     bde:	61 e0       	ldi	r22, 0x01	; 1
     be0:	70 e0       	ldi	r23, 0x00	; 0
     be2:	43 e0       	ldi	r20, 0x03	; 3
     be4:	50 e0       	ldi	r21, 0x00	; 0
     be6:	23 e0       	ldi	r18, 0x03	; 3
     be8:	30 e0       	ldi	r19, 0x00	; 0
     bea:	0b e0       	ldi	r16, 0x0B	; 11
     bec:	10 e0       	ldi	r17, 0x00	; 0
     bee:	ee 24       	eor	r14, r14
     bf0:	ff 24       	eor	r15, r15
     bf2:	b8 e2       	ldi	r27, 0x28	; 40
     bf4:	cb 2e       	mov	r12, r27
     bf6:	d1 2c       	mov	r13, r1
     bf8:	a2 e3       	ldi	r26, 0x32	; 50
     bfa:	aa 2e       	mov	r10, r26
     bfc:	b1 2c       	mov	r11, r1
     bfe:	0e 94 45 29 	call	0x528a	; 0x528a <CPsd>
	CPsd(10,1,5+ cm,5,11,0,40,-50);
     c02:	40 91 0a 02 	lds	r20, 0x020A
     c06:	50 91 0b 02 	lds	r21, 0x020B
     c0a:	4b 5f       	subi	r20, 0xFB	; 251
     c0c:	5f 4f       	sbci	r21, 0xFF	; 255
     c0e:	8a e0       	ldi	r24, 0x0A	; 10
     c10:	90 e0       	ldi	r25, 0x00	; 0
     c12:	61 e0       	ldi	r22, 0x01	; 1
     c14:	70 e0       	ldi	r23, 0x00	; 0
     c16:	25 e0       	ldi	r18, 0x05	; 5
     c18:	30 e0       	ldi	r19, 0x00	; 0
     c1a:	fe ec       	ldi	r31, 0xCE	; 206
     c1c:	af 2e       	mov	r10, r31
     c1e:	ff ef       	ldi	r31, 0xFF	; 255
     c20:	bf 2e       	mov	r11, r31
     c22:	0e 94 45 29 	call	0x528a	; 0x528a <CPsd>

	Axis(0,-pos[1],0,30,140);
     c26:	60 91 72 02 	lds	r22, 0x0272
     c2a:	70 91 73 02 	lds	r23, 0x0273
     c2e:	80 91 74 02 	lds	r24, 0x0274
     c32:	90 91 75 02 	lds	r25, 0x0275
     c36:	90 58       	subi	r25, 0x80	; 128
     c38:	0e 94 37 41 	call	0x826e	; 0x826e <__fixsfsi>
     c3c:	9b 01       	movw	r18, r22
     c3e:	ac 01       	movw	r20, r24
     c40:	80 e0       	ldi	r24, 0x00	; 0
     c42:	90 e0       	ldi	r25, 0x00	; 0
     c44:	b9 01       	movw	r22, r18
     c46:	40 e0       	ldi	r20, 0x00	; 0
     c48:	50 e0       	ldi	r21, 0x00	; 0
     c4a:	2e e1       	ldi	r18, 0x1E	; 30
     c4c:	30 e0       	ldi	r19, 0x00	; 0
     c4e:	0c e8       	ldi	r16, 0x8C	; 140
     c50:	10 e0       	ldi	r17, 0x00	; 0
     c52:	0e 94 01 23 	call	0x4602	; 0x4602 <Axis>


}

if(gate[0]){
     c56:	80 91 64 02 	lds	r24, 0x0264
     c5a:	90 91 65 02 	lds	r25, 0x0265
     c5e:	00 97       	sbiw	r24, 0x00	; 0
     c60:	d1 f1       	breq	.+116    	; 0xcd6 <main+0x880>
	ar ab345(30);
     c62:	60 92 3c 02 	sts	0x023C, r6
     c66:	70 92 3d 02 	sts	0x023D, r7
     c6a:	80 92 3e 02 	sts	0x023E, r8
     c6e:	90 92 3f 02 	sts	0x023F, r9
     c72:	60 92 22 02 	sts	0x0222, r6
     c76:	70 92 23 02 	sts	0x0223, r7
     c7a:	80 92 24 02 	sts	0x0224, r8
     c7e:	90 92 25 02 	sts	0x0225, r9
     c82:	50 92 5f 02 	sts	0x025F, r5
     c86:	40 92 5e 02 	sts	0x025E, r4
     c8a:	83 e0       	ldi	r24, 0x03	; 3
     c8c:	90 e0       	ldi	r25, 0x00	; 0
     c8e:	6a e7       	ldi	r22, 0x7A	; 122
     c90:	70 e0       	ldi	r23, 0x00	; 0
     c92:	44 e0       	ldi	r20, 0x04	; 4
     c94:	50 e0       	ldi	r21, 0x00	; 0
     c96:	24 ec       	ldi	r18, 0xC4	; 196
     c98:	30 e0       	ldi	r19, 0x00	; 0
     c9a:	05 e0       	ldi	r16, 0x05	; 5
     c9c:	10 e0       	ldi	r17, 0x00	; 0
     c9e:	ea ea       	ldi	r30, 0xAA	; 170
     ca0:	ee 2e       	mov	r14, r30
     ca2:	f1 2c       	mov	r15, r1
     ca4:	be e1       	ldi	r27, 0x1E	; 30
     ca6:	cb 2e       	mov	r12, r27
     ca8:	d1 2c       	mov	r13, r1
     caa:	ae e1       	ldi	r26, 0x1E	; 30
     cac:	aa 2e       	mov	r10, r26
     cae:	b1 2c       	mov	r11, r1
     cb0:	0e 94 42 38 	call	0x7084	; 0x7084 <AB>
     cb4:	10 92 5f 02 	sts	0x025F, r1
     cb8:	10 92 5e 02 	sts	0x025E, r1
	Axis(0,-1,0,10,120);
     cbc:	80 e0       	ldi	r24, 0x00	; 0
     cbe:	90 e0       	ldi	r25, 0x00	; 0
     cc0:	6f ef       	ldi	r22, 0xFF	; 255
     cc2:	7f ef       	ldi	r23, 0xFF	; 255
     cc4:	40 e0       	ldi	r20, 0x00	; 0
     cc6:	50 e0       	ldi	r21, 0x00	; 0
     cc8:	2a e0       	ldi	r18, 0x0A	; 10
     cca:	30 e0       	ldi	r19, 0x00	; 0
     ccc:	08 e7       	ldi	r16, 0x78	; 120
     cce:	10 e0       	ldi	r17, 0x00	; 0
     cd0:	0e 94 01 23 	call	0x4602	; 0x4602 <Axis>
     cd4:	25 c0       	rjmp	.+74     	; 0xd20 <main+0x8ca>
}

else{
	ar ab13(30);
     cd6:	60 92 3c 02 	sts	0x023C, r6
     cda:	70 92 3d 02 	sts	0x023D, r7
     cde:	80 92 3e 02 	sts	0x023E, r8
     ce2:	90 92 3f 02 	sts	0x023F, r9
     ce6:	60 92 22 02 	sts	0x0222, r6
     cea:	70 92 23 02 	sts	0x0223, r7
     cee:	80 92 24 02 	sts	0x0224, r8
     cf2:	90 92 25 02 	sts	0x0225, r9
     cf6:	80 e0       	ldi	r24, 0x00	; 0
     cf8:	90 e0       	ldi	r25, 0x00	; 0
     cfa:	60 e0       	ldi	r22, 0x00	; 0
     cfc:	70 e0       	ldi	r23, 0x00	; 0
     cfe:	41 e0       	ldi	r20, 0x01	; 1
     d00:	50 e0       	ldi	r21, 0x00	; 0
     d02:	25 ea       	ldi	r18, 0xA5	; 165
     d04:	30 e0       	ldi	r19, 0x00	; 0
     d06:	03 e0       	ldi	r16, 0x03	; 3
     d08:	10 e0       	ldi	r17, 0x00	; 0
     d0a:	fd e9       	ldi	r31, 0x9D	; 157
     d0c:	ef 2e       	mov	r14, r31
     d0e:	f1 2c       	mov	r15, r1
     d10:	ee e1       	ldi	r30, 0x1E	; 30
     d12:	ce 2e       	mov	r12, r30
     d14:	d1 2c       	mov	r13, r1
     d16:	be e1       	ldi	r27, 0x1E	; 30
     d18:	ab 2e       	mov	r10, r27
     d1a:	b1 2c       	mov	r11, r1
     d1c:	0e 94 42 38 	call	0x7084	; 0x7084 <AB>
}
if(gate[1] == 0){
     d20:	80 91 66 02 	lds	r24, 0x0266
     d24:	90 91 67 02 	lds	r25, 0x0267
     d28:	00 97       	sbiw	r24, 0x00	; 0
     d2a:	09 f0       	breq	.+2      	; 0xd2e <main+0x8d8>
     d2c:	68 c1       	rjmp	.+720    	; 0xffe <main+0xba8>
	Drift(26 - gate[0],0,70,30,40);	
     d2e:	20 91 64 02 	lds	r18, 0x0264
     d32:	30 91 65 02 	lds	r19, 0x0265
     d36:	8a e1       	ldi	r24, 0x1A	; 26
     d38:	90 e0       	ldi	r25, 0x00	; 0
     d3a:	82 1b       	sub	r24, r18
     d3c:	93 0b       	sbc	r25, r19
     d3e:	60 e0       	ldi	r22, 0x00	; 0
     d40:	70 e0       	ldi	r23, 0x00	; 0
     d42:	46 e4       	ldi	r20, 0x46	; 70
     d44:	50 e0       	ldi	r21, 0x00	; 0
     d46:	2e e1       	ldi	r18, 0x1E	; 30
     d48:	30 e0       	ldi	r19, 0x00	; 0
     d4a:	08 e2       	ldi	r16, 0x28	; 40
     d4c:	10 e0       	ldi	r17, 0x00	; 0
     d4e:	0e 94 7b 2c 	call	0x58f6	; 0x58f6 <Drift>
	Ot(-23,90,90,30,0);	wa = -20;
     d52:	89 ee       	ldi	r24, 0xE9	; 233
     d54:	9f ef       	ldi	r25, 0xFF	; 255
     d56:	6a e5       	ldi	r22, 0x5A	; 90
     d58:	70 e0       	ldi	r23, 0x00	; 0
     d5a:	4a e5       	ldi	r20, 0x5A	; 90
     d5c:	50 e0       	ldi	r21, 0x00	; 0
     d5e:	2e e1       	ldi	r18, 0x1E	; 30
     d60:	30 e0       	ldi	r19, 0x00	; 0
     d62:	00 e0       	ldi	r16, 0x00	; 0
     d64:	10 e0       	ldi	r17, 0x00	; 0
     d66:	0e 94 fb 2f 	call	0x5ff6	; 0x5ff6 <Ot>
     d6a:	2c ee       	ldi	r18, 0xEC	; 236
     d6c:	3f ef       	ldi	r19, 0xFF	; 255
     d6e:	30 93 5f 02 	sts	0x025F, r19
     d72:	20 93 5e 02 	sts	0x025E, r18

	CPsd(12,6,-3,3,12,0,40,0);
     d76:	8c e0       	ldi	r24, 0x0C	; 12
     d78:	90 e0       	ldi	r25, 0x00	; 0
     d7a:	66 e0       	ldi	r22, 0x06	; 6
     d7c:	70 e0       	ldi	r23, 0x00	; 0
     d7e:	4d ef       	ldi	r20, 0xFD	; 253
     d80:	5f ef       	ldi	r21, 0xFF	; 255
     d82:	23 e0       	ldi	r18, 0x03	; 3
     d84:	30 e0       	ldi	r19, 0x00	; 0
     d86:	0c e0       	ldi	r16, 0x0C	; 12
     d88:	10 e0       	ldi	r17, 0x00	; 0
     d8a:	ee 24       	eor	r14, r14
     d8c:	ff 24       	eor	r15, r15
     d8e:	a8 e2       	ldi	r26, 0x28	; 40
     d90:	ca 2e       	mov	r12, r26
     d92:	d1 2c       	mov	r13, r1
     d94:	aa 24       	eor	r10, r10
     d96:	bb 24       	eor	r11, r11
     d98:	0e 94 45 29 	call	0x528a	; 0x528a <CPsd>
	CPsd(10,6,-3,5,12,0,40,0);
     d9c:	8a e0       	ldi	r24, 0x0A	; 10
     d9e:	90 e0       	ldi	r25, 0x00	; 0
     da0:	66 e0       	ldi	r22, 0x06	; 6
     da2:	70 e0       	ldi	r23, 0x00	; 0
     da4:	4d ef       	ldi	r20, 0xFD	; 253
     da6:	5f ef       	ldi	r21, 0xFF	; 255
     da8:	25 e0       	ldi	r18, 0x05	; 5
     daa:	30 e0       	ldi	r19, 0x00	; 0
     dac:	0e 94 45 29 	call	0x528a	; 0x528a <CPsd>
	CPsd(6,6,-1000,3,12,20,40,0);
     db0:	86 e0       	ldi	r24, 0x06	; 6
     db2:	90 e0       	ldi	r25, 0x00	; 0
     db4:	66 e0       	ldi	r22, 0x06	; 6
     db6:	70 e0       	ldi	r23, 0x00	; 0
     db8:	48 e1       	ldi	r20, 0x18	; 24
     dba:	5c ef       	ldi	r21, 0xFC	; 252
     dbc:	23 e0       	ldi	r18, 0x03	; 3
     dbe:	30 e0       	ldi	r19, 0x00	; 0
     dc0:	f4 e1       	ldi	r31, 0x14	; 20
     dc2:	ef 2e       	mov	r14, r31
     dc4:	f1 2c       	mov	r15, r1
     dc6:	0e 94 45 29 	call	0x528a	; 0x528a <CPsd>

	Avoid(5,11,15,20,-1000,40,0);
     dca:	85 e0       	ldi	r24, 0x05	; 5
     dcc:	90 e0       	ldi	r25, 0x00	; 0
     dce:	6b e0       	ldi	r22, 0x0B	; 11
     dd0:	70 e0       	ldi	r23, 0x00	; 0
     dd2:	4f e0       	ldi	r20, 0x0F	; 15
     dd4:	50 e0       	ldi	r21, 0x00	; 0
     dd6:	24 e1       	ldi	r18, 0x14	; 20
     dd8:	30 e0       	ldi	r19, 0x00	; 0
     dda:	08 e1       	ldi	r16, 0x18	; 24
     ddc:	1c ef       	ldi	r17, 0xFC	; 252
     dde:	e8 e2       	ldi	r30, 0x28	; 40
     de0:	ee 2e       	mov	r14, r30
     de2:	f1 2c       	mov	r15, r1
     de4:	cc 24       	eor	r12, r12
     de6:	dd 24       	eor	r13, r13
     de8:	0e 94 24 36 	call	0x6c48	; 0x6c48 <Avoid>
	Ot(-12,-90,-10,30,0);	wa = -30;
     dec:	84 ef       	ldi	r24, 0xF4	; 244
     dee:	9f ef       	ldi	r25, 0xFF	; 255
     df0:	66 ea       	ldi	r22, 0xA6	; 166
     df2:	7f ef       	ldi	r23, 0xFF	; 255
     df4:	46 ef       	ldi	r20, 0xF6	; 246
     df6:	5f ef       	ldi	r21, 0xFF	; 255
     df8:	2e e1       	ldi	r18, 0x1E	; 30
     dfa:	30 e0       	ldi	r19, 0x00	; 0
     dfc:	00 e0       	ldi	r16, 0x00	; 0
     dfe:	10 e0       	ldi	r17, 0x00	; 0
     e00:	0e 94 fb 2f 	call	0x5ff6	; 0x5ff6 <Ot>
     e04:	82 ee       	ldi	r24, 0xE2	; 226
     e06:	9f ef       	ldi	r25, 0xFF	; 255
     e08:	90 93 5f 02 	sts	0x025F, r25
     e0c:	80 93 5e 02 	sts	0x025E, r24
	Drift(-13,0,-40,30,0);	wa=  20;
     e10:	83 ef       	ldi	r24, 0xF3	; 243
     e12:	9f ef       	ldi	r25, 0xFF	; 255
     e14:	60 e0       	ldi	r22, 0x00	; 0
     e16:	70 e0       	ldi	r23, 0x00	; 0
     e18:	48 ed       	ldi	r20, 0xD8	; 216
     e1a:	5f ef       	ldi	r21, 0xFF	; 255
     e1c:	2e e1       	ldi	r18, 0x1E	; 30
     e1e:	30 e0       	ldi	r19, 0x00	; 0
     e20:	0e 94 7b 2c 	call	0x58f6	; 0x58f6 <Drift>
case -1:
	wa = 20;
     e24:	84 e1       	ldi	r24, 0x14	; 20
     e26:	90 e0       	ldi	r25, 0x00	; 0
     e28:	90 93 5f 02 	sts	0x025F, r25
     e2c:	80 93 5e 02 	sts	0x025E, r24
	CPsd(12,3,-5,3,18,0,40,50 * (key == -1));
     e30:	80 91 06 02 	lds	r24, 0x0206
     e34:	90 91 07 02 	lds	r25, 0x0207
     e38:	3f ef       	ldi	r19, 0xFF	; 255
     e3a:	8f 3f       	cpi	r24, 0xFF	; 255
     e3c:	93 07       	cpc	r25, r19
     e3e:	19 f4       	brne	.+6      	; 0xe46 <main+0x9f0>
     e40:	e2 e3       	ldi	r30, 0x32	; 50
     e42:	f0 e0       	ldi	r31, 0x00	; 0
     e44:	02 c0       	rjmp	.+4      	; 0xe4a <main+0x9f4>
     e46:	e0 e0       	ldi	r30, 0x00	; 0
     e48:	f0 e0       	ldi	r31, 0x00	; 0
     e4a:	8c e0       	ldi	r24, 0x0C	; 12
     e4c:	90 e0       	ldi	r25, 0x00	; 0
     e4e:	63 e0       	ldi	r22, 0x03	; 3
     e50:	70 e0       	ldi	r23, 0x00	; 0
     e52:	4b ef       	ldi	r20, 0xFB	; 251
     e54:	5f ef       	ldi	r21, 0xFF	; 255
     e56:	23 e0       	ldi	r18, 0x03	; 3
     e58:	30 e0       	ldi	r19, 0x00	; 0
     e5a:	02 e1       	ldi	r16, 0x12	; 18
     e5c:	10 e0       	ldi	r17, 0x00	; 0
     e5e:	ee 24       	eor	r14, r14
     e60:	ff 24       	eor	r15, r15
     e62:	b8 e2       	ldi	r27, 0x28	; 40
     e64:	cb 2e       	mov	r12, r27
     e66:	d1 2c       	mov	r13, r1
     e68:	5f 01       	movw	r10, r30
     e6a:	0e 94 45 29 	call	0x528a	; 0x528a <CPsd>
	CPsd(10,3,-5,5,18,0,40,0);
     e6e:	8a e0       	ldi	r24, 0x0A	; 10
     e70:	90 e0       	ldi	r25, 0x00	; 0
     e72:	63 e0       	ldi	r22, 0x03	; 3
     e74:	70 e0       	ldi	r23, 0x00	; 0
     e76:	4b ef       	ldi	r20, 0xFB	; 251
     e78:	5f ef       	ldi	r21, 0xFF	; 255
     e7a:	25 e0       	ldi	r18, 0x05	; 5
     e7c:	30 e0       	ldi	r19, 0x00	; 0
     e7e:	aa 24       	eor	r10, r10
     e80:	bb 24       	eor	r11, r11
     e82:	0e 94 45 29 	call	0x528a	; 0x528a <CPsd>
	CPsd(-4,3,-1000,5,18,20,40,0);
     e86:	8c ef       	ldi	r24, 0xFC	; 252
     e88:	9f ef       	ldi	r25, 0xFF	; 255
     e8a:	63 e0       	ldi	r22, 0x03	; 3
     e8c:	70 e0       	ldi	r23, 0x00	; 0
     e8e:	48 e1       	ldi	r20, 0x18	; 24
     e90:	5c ef       	ldi	r21, 0xFC	; 252
     e92:	25 e0       	ldi	r18, 0x05	; 5
     e94:	30 e0       	ldi	r19, 0x00	; 0
     e96:	a4 e1       	ldi	r26, 0x14	; 20
     e98:	ea 2e       	mov	r14, r26
     e9a:	f1 2c       	mov	r15, r1
     e9c:	0e 94 45 29 	call	0x528a	; 0x528a <CPsd>
	Ot(-14,90,0,30,0);	
     ea0:	82 ef       	ldi	r24, 0xF2	; 242
     ea2:	9f ef       	ldi	r25, 0xFF	; 255
     ea4:	6a e5       	ldi	r22, 0x5A	; 90
     ea6:	70 e0       	ldi	r23, 0x00	; 0
     ea8:	40 e0       	ldi	r20, 0x00	; 0
     eaa:	50 e0       	ldi	r21, 0x00	; 0
     eac:	2e e1       	ldi	r18, 0x1E	; 30
     eae:	30 e0       	ldi	r19, 0x00	; 0
     eb0:	00 e0       	ldi	r16, 0x00	; 0
     eb2:	10 e0       	ldi	r17, 0x00	; 0
     eb4:	0e 94 fb 2f 	call	0x5ff6	; 0x5ff6 <Ot>
	Drift(15,-2,50,30,0);	wa =-20;
     eb8:	8f e0       	ldi	r24, 0x0F	; 15
     eba:	90 e0       	ldi	r25, 0x00	; 0
     ebc:	6e ef       	ldi	r22, 0xFE	; 254
     ebe:	7f ef       	ldi	r23, 0xFF	; 255
     ec0:	42 e3       	ldi	r20, 0x32	; 50
     ec2:	50 e0       	ldi	r21, 0x00	; 0
     ec4:	2e e1       	ldi	r18, 0x1E	; 30
     ec6:	30 e0       	ldi	r19, 0x00	; 0
     ec8:	0e 94 7b 2c 	call	0x58f6	; 0x58f6 <Drift>
     ecc:	4c ee       	ldi	r20, 0xEC	; 236
     ece:	5f ef       	ldi	r21, 0xFF	; 255
     ed0:	50 93 5f 02 	sts	0x025F, r21
     ed4:	40 93 5e 02 	sts	0x025E, r20



	wa = -20;
	CPsd(12,6,-5,3,14,0,40,0);
     ed8:	8c e0       	ldi	r24, 0x0C	; 12
     eda:	90 e0       	ldi	r25, 0x00	; 0
     edc:	66 e0       	ldi	r22, 0x06	; 6
     ede:	70 e0       	ldi	r23, 0x00	; 0
     ee0:	4b ef       	ldi	r20, 0xFB	; 251
     ee2:	5f ef       	ldi	r21, 0xFF	; 255
     ee4:	23 e0       	ldi	r18, 0x03	; 3
     ee6:	30 e0       	ldi	r19, 0x00	; 0
     ee8:	0e e0       	ldi	r16, 0x0E	; 14
     eea:	10 e0       	ldi	r17, 0x00	; 0
     eec:	ee 24       	eor	r14, r14
     eee:	ff 24       	eor	r15, r15
     ef0:	0e 94 45 29 	call	0x528a	; 0x528a <CPsd>
	CPsd(10,6,-5,5,14,0,40,0);
     ef4:	8a e0       	ldi	r24, 0x0A	; 10
     ef6:	90 e0       	ldi	r25, 0x00	; 0
     ef8:	66 e0       	ldi	r22, 0x06	; 6
     efa:	70 e0       	ldi	r23, 0x00	; 0
     efc:	4b ef       	ldi	r20, 0xFB	; 251
     efe:	5f ef       	ldi	r21, 0xFF	; 255
     f00:	25 e0       	ldi	r18, 0x05	; 5
     f02:	30 e0       	ldi	r19, 0x00	; 0
     f04:	0e 94 45 29 	call	0x528a	; 0x528a <CPsd>
	CPsd(-5,6,-1000,5,14,20,40,0);
     f08:	8b ef       	ldi	r24, 0xFB	; 251
     f0a:	9f ef       	ldi	r25, 0xFF	; 255
     f0c:	66 e0       	ldi	r22, 0x06	; 6
     f0e:	70 e0       	ldi	r23, 0x00	; 0
     f10:	48 e1       	ldi	r20, 0x18	; 24
     f12:	5c ef       	ldi	r21, 0xFC	; 252
     f14:	25 e0       	ldi	r18, 0x05	; 5
     f16:	30 e0       	ldi	r19, 0x00	; 0
     f18:	f4 e1       	ldi	r31, 0x14	; 20
     f1a:	ef 2e       	mov	r14, r31
     f1c:	f1 2c       	mov	r15, r1
     f1e:	0e 94 45 29 	call	0x528a	; 0x528a <CPsd>
	Ot(-12,-90,30,30,0);		wa = -80;
     f22:	84 ef       	ldi	r24, 0xF4	; 244
     f24:	9f ef       	ldi	r25, 0xFF	; 255
     f26:	66 ea       	ldi	r22, 0xA6	; 166
     f28:	7f ef       	ldi	r23, 0xFF	; 255
     f2a:	4e e1       	ldi	r20, 0x1E	; 30
     f2c:	50 e0       	ldi	r21, 0x00	; 0
     f2e:	2e e1       	ldi	r18, 0x1E	; 30
     f30:	30 e0       	ldi	r19, 0x00	; 0
     f32:	00 e0       	ldi	r16, 0x00	; 0
     f34:	10 e0       	ldi	r17, 0x00	; 0
     f36:	0e 94 fb 2f 	call	0x5ff6	; 0x5ff6 <Ot>
     f3a:	60 eb       	ldi	r22, 0xB0	; 176
     f3c:	7f ef       	ldi	r23, 0xFF	; 255
     f3e:	70 93 5f 02 	sts	0x025F, r23
     f42:	60 93 5e 02 	sts	0x025E, r22

	CPsd(12,3,3,3,14,0,40,0);
     f46:	8c e0       	ldi	r24, 0x0C	; 12
     f48:	90 e0       	ldi	r25, 0x00	; 0
     f4a:	63 e0       	ldi	r22, 0x03	; 3
     f4c:	70 e0       	ldi	r23, 0x00	; 0
     f4e:	43 e0       	ldi	r20, 0x03	; 3
     f50:	50 e0       	ldi	r21, 0x00	; 0
     f52:	23 e0       	ldi	r18, 0x03	; 3
     f54:	30 e0       	ldi	r19, 0x00	; 0
     f56:	0e e0       	ldi	r16, 0x0E	; 14
     f58:	10 e0       	ldi	r17, 0x00	; 0
     f5a:	ee 24       	eor	r14, r14
     f5c:	ff 24       	eor	r15, r15
     f5e:	0e 94 45 29 	call	0x528a	; 0x528a <CPsd>
	CPsd(10,3,5,5,14,0,40,0);
     f62:	8a e0       	ldi	r24, 0x0A	; 10
     f64:	90 e0       	ldi	r25, 0x00	; 0
     f66:	63 e0       	ldi	r22, 0x03	; 3
     f68:	70 e0       	ldi	r23, 0x00	; 0
     f6a:	45 e0       	ldi	r20, 0x05	; 5
     f6c:	50 e0       	ldi	r21, 0x00	; 0
     f6e:	25 e0       	ldi	r18, 0x05	; 5
     f70:	30 e0       	ldi	r19, 0x00	; 0
     f72:	0e 94 45 29 	call	0x528a	; 0x528a <CPsd>
	CPsd(-2,3,1000,5,14,20,40,0);
     f76:	8e ef       	ldi	r24, 0xFE	; 254
     f78:	9f ef       	ldi	r25, 0xFF	; 255
     f7a:	63 e0       	ldi	r22, 0x03	; 3
     f7c:	70 e0       	ldi	r23, 0x00	; 0
     f7e:	48 ee       	ldi	r20, 0xE8	; 232
     f80:	53 e0       	ldi	r21, 0x03	; 3
     f82:	25 e0       	ldi	r18, 0x05	; 5
     f84:	30 e0       	ldi	r19, 0x00	; 0
     f86:	e4 e1       	ldi	r30, 0x14	; 20
     f88:	ee 2e       	mov	r14, r30
     f8a:	f1 2c       	mov	r15, r1
     f8c:	0e 94 45 29 	call	0x528a	; 0x528a <CPsd>

	Ot(12,-90,10,30,0);	wa=  20;
     f90:	8c e0       	ldi	r24, 0x0C	; 12
     f92:	90 e0       	ldi	r25, 0x00	; 0
     f94:	66 ea       	ldi	r22, 0xA6	; 166
     f96:	7f ef       	ldi	r23, 0xFF	; 255
     f98:	4a e0       	ldi	r20, 0x0A	; 10
     f9a:	50 e0       	ldi	r21, 0x00	; 0
     f9c:	2e e1       	ldi	r18, 0x1E	; 30
     f9e:	30 e0       	ldi	r19, 0x00	; 0
     fa0:	00 e0       	ldi	r16, 0x00	; 0
     fa2:	10 e0       	ldi	r17, 0x00	; 0
     fa4:	0e 94 fb 2f 	call	0x5ff6	; 0x5ff6 <Ot>
     fa8:	84 e1       	ldi	r24, 0x14	; 20
     faa:	90 e0       	ldi	r25, 0x00	; 0
     fac:	90 93 5f 02 	sts	0x025F, r25
     fb0:	80 93 5e 02 	sts	0x025E, r24
	Ot(18,90,70,25,0);	cw
     fb4:	82 e1       	ldi	r24, 0x12	; 18
     fb6:	90 e0       	ldi	r25, 0x00	; 0
     fb8:	6a e5       	ldi	r22, 0x5A	; 90
     fba:	70 e0       	ldi	r23, 0x00	; 0
     fbc:	46 e4       	ldi	r20, 0x46	; 70
     fbe:	50 e0       	ldi	r21, 0x00	; 0
     fc0:	29 e1       	ldi	r18, 0x19	; 25
     fc2:	30 e0       	ldi	r19, 0x00	; 0
     fc4:	0e 94 fb 2f 	call	0x5ff6	; 0x5ff6 <Ot>
     fc8:	10 92 5f 02 	sts	0x025F, r1
     fcc:	10 92 5e 02 	sts	0x025E, r1
	Ot(5,-90,0,30,0);
     fd0:	85 e0       	ldi	r24, 0x05	; 5
     fd2:	90 e0       	ldi	r25, 0x00	; 0
     fd4:	66 ea       	ldi	r22, 0xA6	; 166
     fd6:	7f ef       	ldi	r23, 0xFF	; 255
     fd8:	40 e0       	ldi	r20, 0x00	; 0
     fda:	50 e0       	ldi	r21, 0x00	; 0
     fdc:	2e e1       	ldi	r18, 0x1E	; 30
     fde:	30 e0       	ldi	r19, 0x00	; 0
     fe0:	0e 94 fb 2f 	call	0x5ff6	; 0x5ff6 <Ot>
	Axis(26,0,0,30,-40);	ar ab645(30);
     fe4:	8a e1       	ldi	r24, 0x1A	; 26
     fe6:	90 e0       	ldi	r25, 0x00	; 0
     fe8:	60 e0       	ldi	r22, 0x00	; 0
     fea:	70 e0       	ldi	r23, 0x00	; 0
     fec:	40 e0       	ldi	r20, 0x00	; 0
     fee:	50 e0       	ldi	r21, 0x00	; 0
     ff0:	2e e1       	ldi	r18, 0x1E	; 30
     ff2:	30 e0       	ldi	r19, 0x00	; 0
     ff4:	08 ed       	ldi	r16, 0xD8	; 216
     ff6:	1f ef       	ldi	r17, 0xFF	; 255
     ff8:	0e 94 01 23 	call	0x4602	; 0x4602 <Axis>
     ffc:	ca c1       	rjmp	.+916    	; 0x1392 <__stack+0x293>
}

else{
	if(gate[0]){
     ffe:	80 91 64 02 	lds	r24, 0x0264
    1002:	90 91 65 02 	lds	r25, 0x0265
    1006:	00 97       	sbiw	r24, 0x00	; 0
    1008:	09 f4       	brne	.+2      	; 0x100c <main+0xbb6>
    100a:	58 c0       	rjmp	.+176    	; 0x10bc <main+0xc66>
		Drift(25,0,70,30,40);wa = -20;
    100c:	89 e1       	ldi	r24, 0x19	; 25
    100e:	90 e0       	ldi	r25, 0x00	; 0
    1010:	60 e0       	ldi	r22, 0x00	; 0
    1012:	70 e0       	ldi	r23, 0x00	; 0
    1014:	46 e4       	ldi	r20, 0x46	; 70
    1016:	50 e0       	ldi	r21, 0x00	; 0
    1018:	2e e1       	ldi	r18, 0x1E	; 30
    101a:	30 e0       	ldi	r19, 0x00	; 0
    101c:	08 e2       	ldi	r16, 0x28	; 40
    101e:	10 e0       	ldi	r17, 0x00	; 0
    1020:	0e 94 7b 2c 	call	0x58f6	; 0x58f6 <Drift>
    1024:	8c ee       	ldi	r24, 0xEC	; 236
    1026:	9f ef       	ldi	r25, 0xFF	; 255
    1028:	90 93 5f 02 	sts	0x025F, r25
    102c:	80 93 5e 02 	sts	0x025E, r24
		Ot(-23,90,90,30,0);	
    1030:	89 ee       	ldi	r24, 0xE9	; 233
    1032:	9f ef       	ldi	r25, 0xFF	; 255
    1034:	6a e5       	ldi	r22, 0x5A	; 90
    1036:	70 e0       	ldi	r23, 0x00	; 0
    1038:	4a e5       	ldi	r20, 0x5A	; 90
    103a:	50 e0       	ldi	r21, 0x00	; 0
    103c:	2e e1       	ldi	r18, 0x1E	; 30
    103e:	30 e0       	ldi	r19, 0x00	; 0
    1040:	00 e0       	ldi	r16, 0x00	; 0
    1042:	10 e0       	ldi	r17, 0x00	; 0
    1044:	0e 94 fb 2f 	call	0x5ff6	; 0x5ff6 <Ot>

		CPsd(12,6,-5,3,11,0,40,0);
    1048:	8c e0       	ldi	r24, 0x0C	; 12
    104a:	90 e0       	ldi	r25, 0x00	; 0
    104c:	66 e0       	ldi	r22, 0x06	; 6
    104e:	70 e0       	ldi	r23, 0x00	; 0
    1050:	4b ef       	ldi	r20, 0xFB	; 251
    1052:	5f ef       	ldi	r21, 0xFF	; 255
    1054:	23 e0       	ldi	r18, 0x03	; 3
    1056:	30 e0       	ldi	r19, 0x00	; 0
    1058:	0b e0       	ldi	r16, 0x0B	; 11
    105a:	10 e0       	ldi	r17, 0x00	; 0
    105c:	ee 24       	eor	r14, r14
    105e:	ff 24       	eor	r15, r15
    1060:	b8 e2       	ldi	r27, 0x28	; 40
    1062:	cb 2e       	mov	r12, r27
    1064:	d1 2c       	mov	r13, r1
    1066:	aa 24       	eor	r10, r10
    1068:	bb 24       	eor	r11, r11
    106a:	0e 94 45 29 	call	0x528a	; 0x528a <CPsd>
		CPsd(10,6,-8,5,11,0,40,0);	
    106e:	8a e0       	ldi	r24, 0x0A	; 10
    1070:	90 e0       	ldi	r25, 0x00	; 0
    1072:	66 e0       	ldi	r22, 0x06	; 6
    1074:	70 e0       	ldi	r23, 0x00	; 0
    1076:	48 ef       	ldi	r20, 0xF8	; 248
    1078:	5f ef       	ldi	r21, 0xFF	; 255
    107a:	25 e0       	ldi	r18, 0x05	; 5
    107c:	30 e0       	ldi	r19, 0x00	; 0
    107e:	0e 94 45 29 	call	0x528a	; 0x528a <CPsd>
		Ot(-20,-90,-40,30,0);	wa =30;
    1082:	8c ee       	ldi	r24, 0xEC	; 236
    1084:	9f ef       	ldi	r25, 0xFF	; 255
    1086:	66 ea       	ldi	r22, 0xA6	; 166
    1088:	7f ef       	ldi	r23, 0xFF	; 255
    108a:	48 ed       	ldi	r20, 0xD8	; 216
    108c:	5f ef       	ldi	r21, 0xFF	; 255
    108e:	2e e1       	ldi	r18, 0x1E	; 30
    1090:	30 e0       	ldi	r19, 0x00	; 0
    1092:	00 e0       	ldi	r16, 0x00	; 0
    1094:	10 e0       	ldi	r17, 0x00	; 0
    1096:	0e 94 fb 2f 	call	0x5ff6	; 0x5ff6 <Ot>
    109a:	8e e1       	ldi	r24, 0x1E	; 30
    109c:	90 e0       	ldi	r25, 0x00	; 0
    109e:	90 93 5f 02 	sts	0x025F, r25
    10a2:	80 93 5e 02 	sts	0x025E, r24
		Drift(0,-5,-10,30,0);	wa = 20;
    10a6:	80 e0       	ldi	r24, 0x00	; 0
    10a8:	90 e0       	ldi	r25, 0x00	; 0
    10aa:	6b ef       	ldi	r22, 0xFB	; 251
    10ac:	7f ef       	ldi	r23, 0xFF	; 255
    10ae:	46 ef       	ldi	r20, 0xF6	; 246
    10b0:	5f ef       	ldi	r21, 0xFF	; 255
    10b2:	2e e1       	ldi	r18, 0x1E	; 30
    10b4:	30 e0       	ldi	r19, 0x00	; 0
    10b6:	0e 94 7b 2c 	call	0x58f6	; 0x58f6 <Drift>
    10ba:	32 c0       	rjmp	.+100    	; 0x1120 <__stack+0x21>
	}
	else{
		Drift(40,0,90,30,40);	
    10bc:	88 e2       	ldi	r24, 0x28	; 40
    10be:	90 e0       	ldi	r25, 0x00	; 0
    10c0:	60 e0       	ldi	r22, 0x00	; 0
    10c2:	70 e0       	ldi	r23, 0x00	; 0
    10c4:	4a e5       	ldi	r20, 0x5A	; 90
    10c6:	50 e0       	ldi	r21, 0x00	; 0
    10c8:	2e e1       	ldi	r18, 0x1E	; 30
    10ca:	30 e0       	ldi	r19, 0x00	; 0
    10cc:	08 e2       	ldi	r16, 0x28	; 40
    10ce:	10 e0       	ldi	r17, 0x00	; 0
    10d0:	0e 94 7b 2c 	call	0x58f6	; 0x58f6 <Drift>
		Ot(-10,90,10,35,0);	wa= 100;
    10d4:	86 ef       	ldi	r24, 0xF6	; 246
    10d6:	9f ef       	ldi	r25, 0xFF	; 255
    10d8:	6a e5       	ldi	r22, 0x5A	; 90
    10da:	70 e0       	ldi	r23, 0x00	; 0
    10dc:	4a e0       	ldi	r20, 0x0A	; 10
    10de:	50 e0       	ldi	r21, 0x00	; 0
    10e0:	23 e2       	ldi	r18, 0x23	; 35
    10e2:	30 e0       	ldi	r19, 0x00	; 0
    10e4:	00 e0       	ldi	r16, 0x00	; 0
    10e6:	10 e0       	ldi	r17, 0x00	; 0
    10e8:	0e 94 fb 2f 	call	0x5ff6	; 0x5ff6 <Ot>
    10ec:	84 e6       	ldi	r24, 0x64	; 100
    10ee:	90 e0       	ldi	r25, 0x00	; 0
    10f0:	90 93 5f 02 	sts	0x025F, r25
    10f4:	80 93 5e 02 	sts	0x025E, r24
		Axis(0,2,0,40,0);
    10f8:	80 e0       	ldi	r24, 0x00	; 0
    10fa:	90 e0       	ldi	r25, 0x00	; 0
    10fc:	62 e0       	ldi	r22, 0x02	; 2
    10fe:	70 e0       	ldi	r23, 0x00	; 0
    1100:	40 e0       	ldi	r20, 0x00	; 0
    1102:	50 e0       	ldi	r21, 0x00	; 0
    1104:	28 e2       	ldi	r18, 0x28	; 40
    1106:	30 e0       	ldi	r19, 0x00	; 0
    1108:	0e 94 01 23 	call	0x4602	; 0x4602 <Axis>
		Ot(10,-90,10,35,0);	wa= 20;
    110c:	8a e0       	ldi	r24, 0x0A	; 10
    110e:	90 e0       	ldi	r25, 0x00	; 0
    1110:	66 ea       	ldi	r22, 0xA6	; 166
    1112:	7f ef       	ldi	r23, 0xFF	; 255
    1114:	4a e0       	ldi	r20, 0x0A	; 10
    1116:	50 e0       	ldi	r21, 0x00	; 0
    1118:	23 e2       	ldi	r18, 0x23	; 35
    111a:	30 e0       	ldi	r19, 0x00	; 0
    111c:	0e 94 fb 2f 	call	0x5ff6	; 0x5ff6 <Ot>
	}

	case -2: 
	wa = 20;
    1120:	84 e1       	ldi	r24, 0x14	; 20
    1122:	90 e0       	ldi	r25, 0x00	; 0
    1124:	90 93 5f 02 	sts	0x025F, r25
    1128:	80 93 5e 02 	sts	0x025E, r24
	CPsd(12,5,-5,3,14,0,40,50 * (key == -2));
    112c:	80 91 06 02 	lds	r24, 0x0206
    1130:	90 91 07 02 	lds	r25, 0x0207
    1134:	af ef       	ldi	r26, 0xFF	; 255
    1136:	8e 3f       	cpi	r24, 0xFE	; 254
    1138:	9a 07       	cpc	r25, r26
    113a:	19 f4       	brne	.+6      	; 0x1142 <__stack+0x43>
    113c:	e2 e3       	ldi	r30, 0x32	; 50
    113e:	f0 e0       	ldi	r31, 0x00	; 0
    1140:	02 c0       	rjmp	.+4      	; 0x1146 <__stack+0x47>
    1142:	e0 e0       	ldi	r30, 0x00	; 0
    1144:	f0 e0       	ldi	r31, 0x00	; 0
    1146:	8c e0       	ldi	r24, 0x0C	; 12
    1148:	90 e0       	ldi	r25, 0x00	; 0
    114a:	65 e0       	ldi	r22, 0x05	; 5
    114c:	70 e0       	ldi	r23, 0x00	; 0
    114e:	4b ef       	ldi	r20, 0xFB	; 251
    1150:	5f ef       	ldi	r21, 0xFF	; 255
    1152:	23 e0       	ldi	r18, 0x03	; 3
    1154:	30 e0       	ldi	r19, 0x00	; 0
    1156:	0e e0       	ldi	r16, 0x0E	; 14
    1158:	10 e0       	ldi	r17, 0x00	; 0
    115a:	ee 24       	eor	r14, r14
    115c:	ff 24       	eor	r15, r15
    115e:	a8 e2       	ldi	r26, 0x28	; 40
    1160:	ca 2e       	mov	r12, r26
    1162:	d1 2c       	mov	r13, r1
    1164:	5f 01       	movw	r10, r30
    1166:	0e 94 45 29 	call	0x528a	; 0x528a <CPsd>
	CPsd(10,5,-5,5,14,0,40,0);
    116a:	8a e0       	ldi	r24, 0x0A	; 10
    116c:	90 e0       	ldi	r25, 0x00	; 0
    116e:	65 e0       	ldi	r22, 0x05	; 5
    1170:	70 e0       	ldi	r23, 0x00	; 0
    1172:	4b ef       	ldi	r20, 0xFB	; 251
    1174:	5f ef       	ldi	r21, 0xFF	; 255
    1176:	25 e0       	ldi	r18, 0x05	; 5
    1178:	30 e0       	ldi	r19, 0x00	; 0
    117a:	aa 24       	eor	r10, r10
    117c:	bb 24       	eor	r11, r11
    117e:	0e 94 45 29 	call	0x528a	; 0x528a <CPsd>
	CPsd(-4,5,-1000,5,14,20,40,0);
    1182:	8c ef       	ldi	r24, 0xFC	; 252
    1184:	9f ef       	ldi	r25, 0xFF	; 255
    1186:	65 e0       	ldi	r22, 0x05	; 5
    1188:	70 e0       	ldi	r23, 0x00	; 0
    118a:	48 e1       	ldi	r20, 0x18	; 24
    118c:	5c ef       	ldi	r21, 0xFC	; 252
    118e:	25 e0       	ldi	r18, 0x05	; 5
    1190:	30 e0       	ldi	r19, 0x00	; 0
    1192:	e4 e1       	ldi	r30, 0x14	; 20
    1194:	ee 2e       	mov	r14, r30
    1196:	f1 2c       	mov	r15, r1
    1198:	0e 94 45 29 	call	0x528a	; 0x528a <CPsd>
	Ot(-14,-90,-40,30,0);	wa=  -20;
    119c:	82 ef       	ldi	r24, 0xF2	; 242
    119e:	9f ef       	ldi	r25, 0xFF	; 255
    11a0:	66 ea       	ldi	r22, 0xA6	; 166
    11a2:	7f ef       	ldi	r23, 0xFF	; 255
    11a4:	48 ed       	ldi	r20, 0xD8	; 216
    11a6:	5f ef       	ldi	r21, 0xFF	; 255
    11a8:	2e e1       	ldi	r18, 0x1E	; 30
    11aa:	30 e0       	ldi	r19, 0x00	; 0
    11ac:	00 e0       	ldi	r16, 0x00	; 0
    11ae:	10 e0       	ldi	r17, 0x00	; 0
    11b0:	0e 94 fb 2f 	call	0x5ff6	; 0x5ff6 <Ot>
    11b4:	cc ee       	ldi	r28, 0xEC	; 236
    11b6:	df ef       	ldi	r29, 0xFF	; 255
    11b8:	d0 93 5f 02 	sts	0x025F, r29
    11bc:	c0 93 5e 02 	sts	0x025E, r28

	Drift(-15,-3,-50,30,0);	wa =20;
    11c0:	81 ef       	ldi	r24, 0xF1	; 241
    11c2:	9f ef       	ldi	r25, 0xFF	; 255
    11c4:	6d ef       	ldi	r22, 0xFD	; 253
    11c6:	7f ef       	ldi	r23, 0xFF	; 255
    11c8:	4e ec       	ldi	r20, 0xCE	; 206
    11ca:	5f ef       	ldi	r21, 0xFF	; 255
    11cc:	2e e1       	ldi	r18, 0x1E	; 30
    11ce:	30 e0       	ldi	r19, 0x00	; 0
    11d0:	0e 94 7b 2c 	call	0x58f6	; 0x58f6 <Drift>
    11d4:	84 e1       	ldi	r24, 0x14	; 20
    11d6:	90 e0       	ldi	r25, 0x00	; 0
    11d8:	90 93 5f 02 	sts	0x025F, r25
    11dc:	80 93 5e 02 	sts	0x025E, r24

	CPsd(12,3,-5,3,18,0,40,0);
    11e0:	8c e0       	ldi	r24, 0x0C	; 12
    11e2:	90 e0       	ldi	r25, 0x00	; 0
    11e4:	63 e0       	ldi	r22, 0x03	; 3
    11e6:	70 e0       	ldi	r23, 0x00	; 0
    11e8:	4b ef       	ldi	r20, 0xFB	; 251
    11ea:	5f ef       	ldi	r21, 0xFF	; 255
    11ec:	23 e0       	ldi	r18, 0x03	; 3
    11ee:	30 e0       	ldi	r19, 0x00	; 0
    11f0:	02 e1       	ldi	r16, 0x12	; 18
    11f2:	10 e0       	ldi	r17, 0x00	; 0
    11f4:	ee 24       	eor	r14, r14
    11f6:	ff 24       	eor	r15, r15
    11f8:	0e 94 45 29 	call	0x528a	; 0x528a <CPsd>
	CPsd(10,3,-5,5,18,0,40,0);
    11fc:	8a e0       	ldi	r24, 0x0A	; 10
    11fe:	90 e0       	ldi	r25, 0x00	; 0
    1200:	63 e0       	ldi	r22, 0x03	; 3
    1202:	70 e0       	ldi	r23, 0x00	; 0
    1204:	4b ef       	ldi	r20, 0xFB	; 251
    1206:	5f ef       	ldi	r21, 0xFF	; 255
    1208:	25 e0       	ldi	r18, 0x05	; 5
    120a:	30 e0       	ldi	r19, 0x00	; 0
    120c:	0e 94 45 29 	call	0x528a	; 0x528a <CPsd>
	CPsd(-4,3,-1000,5,18,20,40,0);
    1210:	8c ef       	ldi	r24, 0xFC	; 252
    1212:	9f ef       	ldi	r25, 0xFF	; 255
    1214:	63 e0       	ldi	r22, 0x03	; 3
    1216:	70 e0       	ldi	r23, 0x00	; 0
    1218:	48 e1       	ldi	r20, 0x18	; 24
    121a:	5c ef       	ldi	r21, 0xFC	; 252
    121c:	25 e0       	ldi	r18, 0x05	; 5
    121e:	30 e0       	ldi	r19, 0x00	; 0
    1220:	b4 e1       	ldi	r27, 0x14	; 20
    1222:	eb 2e       	mov	r14, r27
    1224:	f1 2c       	mov	r15, r1
    1226:	0e 94 45 29 	call	0x528a	; 0x528a <CPsd>

	
	Ot(-12,90,-30,30,0);	wa= 80;
    122a:	84 ef       	ldi	r24, 0xF4	; 244
    122c:	9f ef       	ldi	r25, 0xFF	; 255
    122e:	6a e5       	ldi	r22, 0x5A	; 90
    1230:	70 e0       	ldi	r23, 0x00	; 0
    1232:	42 ee       	ldi	r20, 0xE2	; 226
    1234:	5f ef       	ldi	r21, 0xFF	; 255
    1236:	2e e1       	ldi	r18, 0x1E	; 30
    1238:	30 e0       	ldi	r19, 0x00	; 0
    123a:	00 e0       	ldi	r16, 0x00	; 0
    123c:	10 e0       	ldi	r17, 0x00	; 0
    123e:	0e 94 fb 2f 	call	0x5ff6	; 0x5ff6 <Ot>
    1242:	e0 e5       	ldi	r30, 0x50	; 80
    1244:	f0 e0       	ldi	r31, 0x00	; 0
    1246:	f0 93 5f 02 	sts	0x025F, r31
    124a:	e0 93 5e 02 	sts	0x025E, r30

	CPsd(12,6,5,3,18,0,40,0);
    124e:	8c e0       	ldi	r24, 0x0C	; 12
    1250:	90 e0       	ldi	r25, 0x00	; 0
    1252:	66 e0       	ldi	r22, 0x06	; 6
    1254:	70 e0       	ldi	r23, 0x00	; 0
    1256:	45 e0       	ldi	r20, 0x05	; 5
    1258:	50 e0       	ldi	r21, 0x00	; 0
    125a:	23 e0       	ldi	r18, 0x03	; 3
    125c:	30 e0       	ldi	r19, 0x00	; 0
    125e:	02 e1       	ldi	r16, 0x12	; 18
    1260:	10 e0       	ldi	r17, 0x00	; 0
    1262:	ee 24       	eor	r14, r14
    1264:	ff 24       	eor	r15, r15
    1266:	0e 94 45 29 	call	0x528a	; 0x528a <CPsd>
	CPsd(10,6,5,5,18,0,40,0);
    126a:	8a e0       	ldi	r24, 0x0A	; 10
    126c:	90 e0       	ldi	r25, 0x00	; 0
    126e:	66 e0       	ldi	r22, 0x06	; 6
    1270:	70 e0       	ldi	r23, 0x00	; 0
    1272:	45 e0       	ldi	r20, 0x05	; 5
    1274:	50 e0       	ldi	r21, 0x00	; 0
    1276:	25 e0       	ldi	r18, 0x05	; 5
    1278:	30 e0       	ldi	r19, 0x00	; 0
    127a:	0e 94 45 29 	call	0x528a	; 0x528a <CPsd>
	CPsd(-7,6,1000,5,18,20,40,0);
    127e:	89 ef       	ldi	r24, 0xF9	; 249
    1280:	9f ef       	ldi	r25, 0xFF	; 255
    1282:	66 e0       	ldi	r22, 0x06	; 6
    1284:	70 e0       	ldi	r23, 0x00	; 0
    1286:	48 ee       	ldi	r20, 0xE8	; 232
    1288:	53 e0       	ldi	r21, 0x03	; 3
    128a:	25 e0       	ldi	r18, 0x05	; 5
    128c:	30 e0       	ldi	r19, 0x00	; 0
    128e:	a4 e1       	ldi	r26, 0x14	; 20
    1290:	ea 2e       	mov	r14, r26
    1292:	f1 2c       	mov	r15, r1
    1294:	0e 94 45 29 	call	0x528a	; 0x528a <CPsd>

	Ot(14,90,0,30,0);	wa = -10;
    1298:	8e e0       	ldi	r24, 0x0E	; 14
    129a:	90 e0       	ldi	r25, 0x00	; 0
    129c:	6a e5       	ldi	r22, 0x5A	; 90
    129e:	70 e0       	ldi	r23, 0x00	; 0
    12a0:	40 e0       	ldi	r20, 0x00	; 0
    12a2:	50 e0       	ldi	r21, 0x00	; 0
    12a4:	2e e1       	ldi	r18, 0x1E	; 30
    12a6:	30 e0       	ldi	r19, 0x00	; 0
    12a8:	00 e0       	ldi	r16, 0x00	; 0
    12aa:	10 e0       	ldi	r17, 0x00	; 0
    12ac:	0e 94 fb 2f 	call	0x5ff6	; 0x5ff6 <Ot>
    12b0:	86 ef       	ldi	r24, 0xF6	; 246
    12b2:	9f ef       	ldi	r25, 0xFF	; 255
    12b4:	90 93 5f 02 	sts	0x025F, r25
    12b8:	80 93 5e 02 	sts	0x025E, r24
	Axis(0,6,0,40,0);
    12bc:	80 e0       	ldi	r24, 0x00	; 0
    12be:	90 e0       	ldi	r25, 0x00	; 0
    12c0:	66 e0       	ldi	r22, 0x06	; 6
    12c2:	70 e0       	ldi	r23, 0x00	; 0
    12c4:	40 e0       	ldi	r20, 0x00	; 0
    12c6:	50 e0       	ldi	r21, 0x00	; 0
    12c8:	28 e2       	ldi	r18, 0x28	; 40
    12ca:	30 e0       	ldi	r19, 0x00	; 0
    12cc:	0e 94 01 23 	call	0x4602	; 0x4602 <Axis>
	Ot(10,-90,0,30,0);	wa=  80;
    12d0:	8a e0       	ldi	r24, 0x0A	; 10
    12d2:	90 e0       	ldi	r25, 0x00	; 0
    12d4:	66 ea       	ldi	r22, 0xA6	; 166
    12d6:	7f ef       	ldi	r23, 0xFF	; 255
    12d8:	40 e0       	ldi	r20, 0x00	; 0
    12da:	50 e0       	ldi	r21, 0x00	; 0
    12dc:	2e e1       	ldi	r18, 0x1E	; 30
    12de:	30 e0       	ldi	r19, 0x00	; 0
    12e0:	0e 94 fb 2f 	call	0x5ff6	; 0x5ff6 <Ot>
    12e4:	20 e5       	ldi	r18, 0x50	; 80
    12e6:	30 e0       	ldi	r19, 0x00	; 0
    12e8:	30 93 5f 02 	sts	0x025F, r19
    12ec:	20 93 5e 02 	sts	0x025E, r18
	Ot(5,90,10,30,0);	cw
    12f0:	85 e0       	ldi	r24, 0x05	; 5
    12f2:	90 e0       	ldi	r25, 0x00	; 0
    12f4:	6a e5       	ldi	r22, 0x5A	; 90
    12f6:	70 e0       	ldi	r23, 0x00	; 0
    12f8:	4a e0       	ldi	r20, 0x0A	; 10
    12fa:	50 e0       	ldi	r21, 0x00	; 0
    12fc:	2e e1       	ldi	r18, 0x1E	; 30
    12fe:	30 e0       	ldi	r19, 0x00	; 0
    1300:	0e 94 fb 2f 	call	0x5ff6	; 0x5ff6 <Ot>
    1304:	10 92 5f 02 	sts	0x025F, r1
    1308:	10 92 5e 02 	sts	0x025E, r1

	CPsd(12,1,5,3,12,0,40,0);
    130c:	8c e0       	ldi	r24, 0x0C	; 12
    130e:	90 e0       	ldi	r25, 0x00	; 0
    1310:	61 e0       	ldi	r22, 0x01	; 1
    1312:	70 e0       	ldi	r23, 0x00	; 0
    1314:	45 e0       	ldi	r20, 0x05	; 5
    1316:	50 e0       	ldi	r21, 0x00	; 0
    1318:	23 e0       	ldi	r18, 0x03	; 3
    131a:	30 e0       	ldi	r19, 0x00	; 0
    131c:	0c e0       	ldi	r16, 0x0C	; 12
    131e:	10 e0       	ldi	r17, 0x00	; 0
    1320:	ee 24       	eor	r14, r14
    1322:	ff 24       	eor	r15, r15
    1324:	0e 94 45 29 	call	0x528a	; 0x528a <CPsd>
	CPsd(10,1,5,5,12,0,40,0);
    1328:	8a e0       	ldi	r24, 0x0A	; 10
    132a:	90 e0       	ldi	r25, 0x00	; 0
    132c:	61 e0       	ldi	r22, 0x01	; 1
    132e:	70 e0       	ldi	r23, 0x00	; 0
    1330:	45 e0       	ldi	r20, 0x05	; 5
    1332:	50 e0       	ldi	r21, 0x00	; 0
    1334:	25 e0       	ldi	r18, 0x05	; 5
    1336:	30 e0       	ldi	r19, 0x00	; 0
    1338:	0e 94 45 29 	call	0x528a	; 0x528a <CPsd>
	CPsd(1,1,1000,3,12,25,40,0);
    133c:	81 e0       	ldi	r24, 0x01	; 1
    133e:	90 e0       	ldi	r25, 0x00	; 0
    1340:	61 e0       	ldi	r22, 0x01	; 1
    1342:	70 e0       	ldi	r23, 0x00	; 0
    1344:	48 ee       	ldi	r20, 0xE8	; 232
    1346:	53 e0       	ldi	r21, 0x03	; 3
    1348:	23 e0       	ldi	r18, 0x03	; 3
    134a:	30 e0       	ldi	r19, 0x00	; 0
    134c:	f9 e1       	ldi	r31, 0x19	; 25
    134e:	ef 2e       	mov	r14, r31
    1350:	f1 2c       	mov	r15, r1
    1352:	0e 94 45 29 	call	0x528a	; 0x528a <CPsd>

	Drift(2,25,-70,30,0);	wa = -70;
    1356:	82 e0       	ldi	r24, 0x02	; 2
    1358:	90 e0       	ldi	r25, 0x00	; 0
    135a:	69 e1       	ldi	r22, 0x19	; 25
    135c:	70 e0       	ldi	r23, 0x00	; 0
    135e:	4a eb       	ldi	r20, 0xBA	; 186
    1360:	5f ef       	ldi	r21, 0xFF	; 255
    1362:	2e e1       	ldi	r18, 0x1E	; 30
    1364:	30 e0       	ldi	r19, 0x00	; 0
    1366:	00 e0       	ldi	r16, 0x00	; 0
    1368:	10 e0       	ldi	r17, 0x00	; 0
    136a:	0e 94 7b 2c 	call	0x58f6	; 0x58f6 <Drift>
    136e:	4a eb       	ldi	r20, 0xBA	; 186
    1370:	5f ef       	ldi	r21, 0xFF	; 255
    1372:	50 93 5f 02 	sts	0x025F, r21
    1376:	40 93 5e 02 	sts	0x025E, r20
	Ot(15,90,-20,30,-40);	cw
    137a:	8f e0       	ldi	r24, 0x0F	; 15
    137c:	90 e0       	ldi	r25, 0x00	; 0
    137e:	6a e5       	ldi	r22, 0x5A	; 90
    1380:	70 e0       	ldi	r23, 0x00	; 0
    1382:	4c ee       	ldi	r20, 0xEC	; 236
    1384:	5f ef       	ldi	r21, 0xFF	; 255
    1386:	2e e1       	ldi	r18, 0x1E	; 30
    1388:	30 e0       	ldi	r19, 0x00	; 0
    138a:	08 ed       	ldi	r16, 0xD8	; 216
    138c:	1f ef       	ldi	r17, 0xFF	; 255
    138e:	0e 94 fb 2f 	call	0x5ff6	; 0x5ff6 <Ot>

	ar ab645(30);
    1392:	60 92 3c 02 	sts	0x023C, r6
    1396:	70 92 3d 02 	sts	0x023D, r7
    139a:	80 92 3e 02 	sts	0x023E, r8
    139e:	90 92 3f 02 	sts	0x023F, r9
    13a2:	60 92 22 02 	sts	0x0222, r6
    13a6:	70 92 23 02 	sts	0x0223, r7
    13aa:	80 92 24 02 	sts	0x0224, r8
    13ae:	90 92 25 02 	sts	0x0225, r9
    13b2:	50 92 5f 02 	sts	0x025F, r5
    13b6:	40 92 5e 02 	sts	0x025E, r4
    13ba:	86 e0       	ldi	r24, 0x06	; 6
    13bc:	90 e0       	ldi	r25, 0x00	; 0
    13be:	66 e9       	ldi	r22, 0x96	; 150
    13c0:	70 e0       	ldi	r23, 0x00	; 0
    13c2:	44 e0       	ldi	r20, 0x04	; 4
    13c4:	50 e0       	ldi	r21, 0x00	; 0
    13c6:	24 ec       	ldi	r18, 0xC4	; 196
    13c8:	30 e0       	ldi	r19, 0x00	; 0
    13ca:	05 e0       	ldi	r16, 0x05	; 5
    13cc:	10 e0       	ldi	r17, 0x00	; 0
    13ce:	ea ea       	ldi	r30, 0xAA	; 170
    13d0:	ee 2e       	mov	r14, r30
    13d2:	f1 2c       	mov	r15, r1
    13d4:	be e1       	ldi	r27, 0x1E	; 30
    13d6:	cb 2e       	mov	r12, r27
    13d8:	d1 2c       	mov	r13, r1
    13da:	ae e1       	ldi	r26, 0x1E	; 30
    13dc:	aa 2e       	mov	r10, r26
    13de:	b1 2c       	mov	r11, r1
    13e0:	0e 94 42 38 	call	0x7084	; 0x7084 <AB>
//////////////////////========================= P RV


case -5:

ar ab645(30);
    13e4:	60 92 3c 02 	sts	0x023C, r6
    13e8:	70 92 3d 02 	sts	0x023D, r7
    13ec:	80 92 3e 02 	sts	0x023E, r8
    13f0:	90 92 3f 02 	sts	0x023F, r9
    13f4:	60 92 22 02 	sts	0x0222, r6
    13f8:	70 92 23 02 	sts	0x0223, r7
    13fc:	80 92 24 02 	sts	0x0224, r8
    1400:	90 92 25 02 	sts	0x0225, r9
    1404:	50 92 5f 02 	sts	0x025F, r5
    1408:	40 92 5e 02 	sts	0x025E, r4
    140c:	86 e0       	ldi	r24, 0x06	; 6
    140e:	90 e0       	ldi	r25, 0x00	; 0
    1410:	66 e9       	ldi	r22, 0x96	; 150
    1412:	70 e0       	ldi	r23, 0x00	; 0
    1414:	44 e0       	ldi	r20, 0x04	; 4
    1416:	50 e0       	ldi	r21, 0x00	; 0
    1418:	24 ec       	ldi	r18, 0xC4	; 196
    141a:	30 e0       	ldi	r19, 0x00	; 0
    141c:	05 e0       	ldi	r16, 0x05	; 5
    141e:	10 e0       	ldi	r17, 0x00	; 0
    1420:	fa ea       	ldi	r31, 0xAA	; 170
    1422:	ef 2e       	mov	r14, r31
    1424:	f1 2c       	mov	r15, r1
    1426:	ee e1       	ldi	r30, 0x1E	; 30
    1428:	ce 2e       	mov	r12, r30
    142a:	d1 2c       	mov	r13, r1
    142c:	be e1       	ldi	r27, 0x1E	; 30
    142e:	ab 2e       	mov	r10, r27
    1430:	b1 2c       	mov	r11, r1
    1432:	0e 94 42 38 	call	0x7084	; 0x7084 <AB>
    1436:	10 92 5f 02 	sts	0x025F, r1
    143a:	10 92 5e 02 	sts	0x025E, r1
bar_2 = 0;
    143e:	10 92 61 02 	sts	0x0261, r1
    1442:	10 92 60 02 	sts	0x0260, r1
Drift(0,20,-20,30,40);	wa= -20;
    1446:	80 e0       	ldi	r24, 0x00	; 0
    1448:	90 e0       	ldi	r25, 0x00	; 0
    144a:	64 e1       	ldi	r22, 0x14	; 20
    144c:	70 e0       	ldi	r23, 0x00	; 0
    144e:	4c ee       	ldi	r20, 0xEC	; 236
    1450:	5f ef       	ldi	r21, 0xFF	; 255
    1452:	2e e1       	ldi	r18, 0x1E	; 30
    1454:	30 e0       	ldi	r19, 0x00	; 0
    1456:	08 e2       	ldi	r16, 0x28	; 40
    1458:	10 e0       	ldi	r17, 0x00	; 0
    145a:	0e 94 7b 2c 	call	0x58f6	; 0x58f6 <Drift>
    145e:	6c ee       	ldi	r22, 0xEC	; 236
    1460:	7f ef       	ldi	r23, 0xFF	; 255
    1462:	70 93 5f 02 	sts	0x025F, r23
    1466:	60 93 5e 02 	sts	0x025E, r22

gate[2] = bar_2;
    146a:	80 91 60 02 	lds	r24, 0x0260
    146e:	90 91 61 02 	lds	r25, 0x0261
    1472:	90 93 69 02 	sts	0x0269, r25
    1476:	80 93 68 02 	sts	0x0268, r24

if(key == -5) gate[2] = 1;
    147a:	80 91 06 02 	lds	r24, 0x0206
    147e:	90 91 07 02 	lds	r25, 0x0207
    1482:	7f ef       	ldi	r23, 0xFF	; 255
    1484:	8b 3f       	cpi	r24, 0xFB	; 251
    1486:	97 07       	cpc	r25, r23
    1488:	31 f4       	brne	.+12     	; 0x1496 <__stack+0x397>
    148a:	81 e0       	ldi	r24, 0x01	; 1
    148c:	90 e0       	ldi	r25, 0x00	; 0
    148e:	90 93 69 02 	sts	0x0269, r25
    1492:	80 93 68 02 	sts	0x0268, r24


if(gate[2]){
    1496:	80 91 68 02 	lds	r24, 0x0268
    149a:	90 91 69 02 	lds	r25, 0x0269
    149e:	00 97       	sbiw	r24, 0x00	; 0
    14a0:	09 f4       	brne	.+2      	; 0x14a4 <__stack+0x3a5>
    14a2:	25 c2       	rjmp	.+1098   	; 0x18ee <__stack+0x7ef>
	Drift(5,20,-50,30,0);	wa = -70;
    14a4:	85 e0       	ldi	r24, 0x05	; 5
    14a6:	90 e0       	ldi	r25, 0x00	; 0
    14a8:	64 e1       	ldi	r22, 0x14	; 20
    14aa:	70 e0       	ldi	r23, 0x00	; 0
    14ac:	4e ec       	ldi	r20, 0xCE	; 206
    14ae:	5f ef       	ldi	r21, 0xFF	; 255
    14b0:	2e e1       	ldi	r18, 0x1E	; 30
    14b2:	30 e0       	ldi	r19, 0x00	; 0
    14b4:	00 e0       	ldi	r16, 0x00	; 0
    14b6:	10 e0       	ldi	r17, 0x00	; 0
    14b8:	0e 94 7b 2c 	call	0x58f6	; 0x58f6 <Drift>
    14bc:	aa eb       	ldi	r26, 0xBA	; 186
    14be:	bf ef       	ldi	r27, 0xFF	; 255
    14c0:	b0 93 5f 02 	sts	0x025F, r27
    14c4:	a0 93 5e 02 	sts	0x025E, r26
	Ot(10,-90,-20,30,-40 * (key == -4));	cw
    14c8:	80 91 06 02 	lds	r24, 0x0206
    14cc:	90 91 07 02 	lds	r25, 0x0207
    14d0:	bf ef       	ldi	r27, 0xFF	; 255
    14d2:	8c 3f       	cpi	r24, 0xFC	; 252
    14d4:	9b 07       	cpc	r25, r27
    14d6:	19 f4       	brne	.+6      	; 0x14de <__stack+0x3df>
    14d8:	08 ed       	ldi	r16, 0xD8	; 216
    14da:	1f ef       	ldi	r17, 0xFF	; 255
    14dc:	02 c0       	rjmp	.+4      	; 0x14e2 <__stack+0x3e3>
    14de:	00 e0       	ldi	r16, 0x00	; 0
    14e0:	10 e0       	ldi	r17, 0x00	; 0
    14e2:	8a e0       	ldi	r24, 0x0A	; 10
    14e4:	90 e0       	ldi	r25, 0x00	; 0
    14e6:	66 ea       	ldi	r22, 0xA6	; 166
    14e8:	7f ef       	ldi	r23, 0xFF	; 255
    14ea:	4c ee       	ldi	r20, 0xEC	; 236
    14ec:	5f ef       	ldi	r21, 0xFF	; 255
    14ee:	2e e1       	ldi	r18, 0x1E	; 30
    14f0:	30 e0       	ldi	r19, 0x00	; 0
    14f2:	0e 94 fb 2f 	call	0x5ff6	; 0x5ff6 <Ot>
    14f6:	10 92 5f 02 	sts	0x025F, r1
    14fa:	10 92 5e 02 	sts	0x025E, r1
	//wait
	CPsd(12,8,5,3,18,0,40,50 * (key == -4));
    14fe:	80 91 06 02 	lds	r24, 0x0206
    1502:	90 91 07 02 	lds	r25, 0x0207
    1506:	ef ef       	ldi	r30, 0xFF	; 255
    1508:	8c 3f       	cpi	r24, 0xFC	; 252
    150a:	9e 07       	cpc	r25, r30
    150c:	19 f4       	brne	.+6      	; 0x1514 <__stack+0x415>
    150e:	e2 e3       	ldi	r30, 0x32	; 50
    1510:	f0 e0       	ldi	r31, 0x00	; 0
    1512:	02 c0       	rjmp	.+4      	; 0x1518 <__stack+0x419>
    1514:	e0 e0       	ldi	r30, 0x00	; 0
    1516:	f0 e0       	ldi	r31, 0x00	; 0
    1518:	8c e0       	ldi	r24, 0x0C	; 12
    151a:	90 e0       	ldi	r25, 0x00	; 0
    151c:	68 e0       	ldi	r22, 0x08	; 8
    151e:	70 e0       	ldi	r23, 0x00	; 0
    1520:	45 e0       	ldi	r20, 0x05	; 5
    1522:	50 e0       	ldi	r21, 0x00	; 0
    1524:	23 e0       	ldi	r18, 0x03	; 3
    1526:	30 e0       	ldi	r19, 0x00	; 0
    1528:	02 e1       	ldi	r16, 0x12	; 18
    152a:	10 e0       	ldi	r17, 0x00	; 0
    152c:	ee 24       	eor	r14, r14
    152e:	ff 24       	eor	r15, r15
    1530:	a8 e2       	ldi	r26, 0x28	; 40
    1532:	ca 2e       	mov	r12, r26
    1534:	d1 2c       	mov	r13, r1
    1536:	5f 01       	movw	r10, r30
    1538:	0e 94 45 29 	call	0x528a	; 0x528a <CPsd>
	CPsd(10,8,5,5,18,0,40,0);
    153c:	8a e0       	ldi	r24, 0x0A	; 10
    153e:	90 e0       	ldi	r25, 0x00	; 0
    1540:	68 e0       	ldi	r22, 0x08	; 8
    1542:	70 e0       	ldi	r23, 0x00	; 0
    1544:	45 e0       	ldi	r20, 0x05	; 5
    1546:	50 e0       	ldi	r21, 0x00	; 0
    1548:	25 e0       	ldi	r18, 0x05	; 5
    154a:	30 e0       	ldi	r19, 0x00	; 0
    154c:	aa 24       	eor	r10, r10
    154e:	bb 24       	eor	r11, r11
    1550:	0e 94 45 29 	call	0x528a	; 0x528a <CPsd>
	CPsd(8,8,100,3,18,25,40,0);
    1554:	88 e0       	ldi	r24, 0x08	; 8
    1556:	90 e0       	ldi	r25, 0x00	; 0
    1558:	68 e0       	ldi	r22, 0x08	; 8
    155a:	70 e0       	ldi	r23, 0x00	; 0
    155c:	44 e6       	ldi	r20, 0x64	; 100
    155e:	50 e0       	ldi	r21, 0x00	; 0
    1560:	23 e0       	ldi	r18, 0x03	; 3
    1562:	30 e0       	ldi	r19, 0x00	; 0
    1564:	b9 e1       	ldi	r27, 0x19	; 25
    1566:	eb 2e       	mov	r14, r27
    1568:	f1 2c       	mov	r15, r1
    156a:	0e 94 45 29 	call	0x528a	; 0x528a <CPsd>

	gate[3] = g_psd[2] > 30;
    156e:	20 91 2e 02 	lds	r18, 0x022E
    1572:	81 e0       	ldi	r24, 0x01	; 1
    1574:	90 e0       	ldi	r25, 0x00	; 0
    1576:	2f 31       	cpi	r18, 0x1F	; 31
    1578:	10 f4       	brcc	.+4      	; 0x157e <__stack+0x47f>
    157a:	80 e0       	ldi	r24, 0x00	; 0
    157c:	90 e0       	ldi	r25, 0x00	; 0
    157e:	90 93 6b 02 	sts	0x026B, r25
    1582:	80 93 6a 02 	sts	0x026A, r24

	Drift(1,41,-90,30,0);
    1586:	81 e0       	ldi	r24, 0x01	; 1
    1588:	90 e0       	ldi	r25, 0x00	; 0
    158a:	69 e2       	ldi	r22, 0x29	; 41
    158c:	70 e0       	ldi	r23, 0x00	; 0
    158e:	46 ea       	ldi	r20, 0xA6	; 166
    1590:	5f ef       	ldi	r21, 0xFF	; 255
    1592:	2e e1       	ldi	r18, 0x1E	; 30
    1594:	30 e0       	ldi	r19, 0x00	; 0
    1596:	00 e0       	ldi	r16, 0x00	; 0
    1598:	10 e0       	ldi	r17, 0x00	; 0
    159a:	0e 94 7b 2c 	call	0x58f6	; 0x58f6 <Drift>

	CPsd(12,1,5,3,11,0,40,50);
    159e:	8c e0       	ldi	r24, 0x0C	; 12
    15a0:	90 e0       	ldi	r25, 0x00	; 0
    15a2:	61 e0       	ldi	r22, 0x01	; 1
    15a4:	70 e0       	ldi	r23, 0x00	; 0
    15a6:	45 e0       	ldi	r20, 0x05	; 5
    15a8:	50 e0       	ldi	r21, 0x00	; 0
    15aa:	23 e0       	ldi	r18, 0x03	; 3
    15ac:	30 e0       	ldi	r19, 0x00	; 0
    15ae:	0b e0       	ldi	r16, 0x0B	; 11
    15b0:	10 e0       	ldi	r17, 0x00	; 0
    15b2:	ee 24       	eor	r14, r14
    15b4:	ff 24       	eor	r15, r15
    15b6:	a8 e2       	ldi	r26, 0x28	; 40
    15b8:	ca 2e       	mov	r12, r26
    15ba:	d1 2c       	mov	r13, r1
    15bc:	f2 e3       	ldi	r31, 0x32	; 50
    15be:	af 2e       	mov	r10, r31
    15c0:	b1 2c       	mov	r11, r1
    15c2:	0e 94 45 29 	call	0x528a	; 0x528a <CPsd>
	CPsd(10,1,10,5,11,0,40,0);
    15c6:	8a e0       	ldi	r24, 0x0A	; 10
    15c8:	90 e0       	ldi	r25, 0x00	; 0
    15ca:	61 e0       	ldi	r22, 0x01	; 1
    15cc:	70 e0       	ldi	r23, 0x00	; 0
    15ce:	4a e0       	ldi	r20, 0x0A	; 10
    15d0:	50 e0       	ldi	r21, 0x00	; 0
    15d2:	25 e0       	ldi	r18, 0x05	; 5
    15d4:	30 e0       	ldi	r19, 0x00	; 0
    15d6:	aa 24       	eor	r10, r10
    15d8:	bb 24       	eor	r11, r11
    15da:	0e 94 45 29 	call	0x528a	; 0x528a <CPsd>
	Drift(0,33,-90,30,0);	cw
    15de:	80 e0       	ldi	r24, 0x00	; 0
    15e0:	90 e0       	ldi	r25, 0x00	; 0
    15e2:	61 e2       	ldi	r22, 0x21	; 33
    15e4:	70 e0       	ldi	r23, 0x00	; 0
    15e6:	46 ea       	ldi	r20, 0xA6	; 166
    15e8:	5f ef       	ldi	r21, 0xFF	; 255
    15ea:	2e e1       	ldi	r18, 0x1E	; 30
    15ec:	30 e0       	ldi	r19, 0x00	; 0
    15ee:	00 e0       	ldi	r16, 0x00	; 0
    15f0:	10 e0       	ldi	r17, 0x00	; 0
    15f2:	0e 94 7b 2c 	call	0x58f6	; 0x58f6 <Drift>
    15f6:	10 92 5f 02 	sts	0x025F, r1
    15fa:	10 92 5e 02 	sts	0x025E, r1
	if(T(101,3) == goal)	cm = 15;	
    15fe:	85 e6       	ldi	r24, 0x65	; 101
    1600:	90 e0       	ldi	r25, 0x00	; 0
    1602:	63 e0       	ldi	r22, 0x03	; 3
    1604:	70 e0       	ldi	r23, 0x00	; 0
    1606:	0e 94 fa 1d 	call	0x3bf4	; 0x3bf4 <T>
    160a:	20 91 6c 02 	lds	r18, 0x026C
    160e:	30 91 6d 02 	lds	r19, 0x026D
    1612:	82 17       	cp	r24, r18
    1614:	93 07       	cpc	r25, r19
    1616:	39 f4       	brne	.+14     	; 0x1626 <__stack+0x527>
    1618:	8f e0       	ldi	r24, 0x0F	; 15
    161a:	90 e0       	ldi	r25, 0x00	; 0
    161c:	90 93 0b 02 	sts	0x020B, r25
    1620:	80 93 0a 02 	sts	0x020A, r24
    1624:	04 c0       	rjmp	.+8      	; 0x162e <__stack+0x52f>
	else cm = 0;
    1626:	10 92 0b 02 	sts	0x020B, r1
    162a:	10 92 0a 02 	sts	0x020A, r1

	set
    162e:	60 92 76 02 	sts	0x0276, r6
    1632:	70 92 77 02 	sts	0x0277, r7
    1636:	80 92 78 02 	sts	0x0278, r8
    163a:	90 92 79 02 	sts	0x0279, r9
    163e:	80 91 76 02 	lds	r24, 0x0276
    1642:	90 91 77 02 	lds	r25, 0x0277
    1646:	a0 91 78 02 	lds	r26, 0x0278
    164a:	b0 91 79 02 	lds	r27, 0x0279
    164e:	80 93 72 02 	sts	0x0272, r24
    1652:	90 93 73 02 	sts	0x0273, r25
    1656:	a0 93 74 02 	sts	0x0274, r26
    165a:	b0 93 75 02 	sts	0x0275, r27
    165e:	80 91 72 02 	lds	r24, 0x0272
    1662:	90 91 73 02 	lds	r25, 0x0273
    1666:	a0 91 74 02 	lds	r26, 0x0274
    166a:	b0 91 75 02 	lds	r27, 0x0275
    166e:	80 93 6e 02 	sts	0x026E, r24
    1672:	90 93 6f 02 	sts	0x026F, r25
    1676:	a0 93 70 02 	sts	0x0270, r26
    167a:	b0 93 71 02 	sts	0x0271, r27
    167e:	60 92 82 02 	sts	0x0282, r6
    1682:	70 92 83 02 	sts	0x0283, r7
    1686:	80 92 84 02 	sts	0x0284, r8
    168a:	90 92 85 02 	sts	0x0285, r9
    168e:	80 91 82 02 	lds	r24, 0x0282
    1692:	90 91 83 02 	lds	r25, 0x0283
    1696:	a0 91 84 02 	lds	r26, 0x0284
    169a:	b0 91 85 02 	lds	r27, 0x0285
    169e:	80 93 7e 02 	sts	0x027E, r24
    16a2:	90 93 7f 02 	sts	0x027F, r25
    16a6:	a0 93 80 02 	sts	0x0280, r26
    16aa:	b0 93 81 02 	sts	0x0281, r27
	CPsd(12,1,5,3,11,0,40,50);
    16ae:	8c e0       	ldi	r24, 0x0C	; 12
    16b0:	90 e0       	ldi	r25, 0x00	; 0
    16b2:	61 e0       	ldi	r22, 0x01	; 1
    16b4:	70 e0       	ldi	r23, 0x00	; 0
    16b6:	45 e0       	ldi	r20, 0x05	; 5
    16b8:	50 e0       	ldi	r21, 0x00	; 0
    16ba:	23 e0       	ldi	r18, 0x03	; 3
    16bc:	30 e0       	ldi	r19, 0x00	; 0
    16be:	0b e0       	ldi	r16, 0x0B	; 11
    16c0:	10 e0       	ldi	r17, 0x00	; 0
    16c2:	ee 24       	eor	r14, r14
    16c4:	ff 24       	eor	r15, r15
    16c6:	e8 e2       	ldi	r30, 0x28	; 40
    16c8:	ce 2e       	mov	r12, r30
    16ca:	d1 2c       	mov	r13, r1
    16cc:	b2 e3       	ldi	r27, 0x32	; 50
    16ce:	ab 2e       	mov	r10, r27
    16d0:	b1 2c       	mov	r11, r1
    16d2:	0e 94 45 29 	call	0x528a	; 0x528a <CPsd>
	CPsd(10,1,5 + cm,5,11,0,40,-50);
    16d6:	40 91 0a 02 	lds	r20, 0x020A
    16da:	50 91 0b 02 	lds	r21, 0x020B
    16de:	4b 5f       	subi	r20, 0xFB	; 251
    16e0:	5f 4f       	sbci	r21, 0xFF	; 255
    16e2:	8a e0       	ldi	r24, 0x0A	; 10
    16e4:	90 e0       	ldi	r25, 0x00	; 0
    16e6:	61 e0       	ldi	r22, 0x01	; 1
    16e8:	70 e0       	ldi	r23, 0x00	; 0
    16ea:	25 e0       	ldi	r18, 0x05	; 5
    16ec:	30 e0       	ldi	r19, 0x00	; 0
    16ee:	ae ec       	ldi	r26, 0xCE	; 206
    16f0:	aa 2e       	mov	r10, r26
    16f2:	af ef       	ldi	r26, 0xFF	; 255
    16f4:	ba 2e       	mov	r11, r26
    16f6:	0e 94 45 29 	call	0x528a	; 0x528a <CPsd>

	Axis(0,-pos[1] + 5,0,30,40);
    16fa:	20 91 72 02 	lds	r18, 0x0272
    16fe:	30 91 73 02 	lds	r19, 0x0273
    1702:	40 91 74 02 	lds	r20, 0x0274
    1706:	50 91 75 02 	lds	r21, 0x0275
    170a:	60 e0       	ldi	r22, 0x00	; 0
    170c:	70 e0       	ldi	r23, 0x00	; 0
    170e:	80 ea       	ldi	r24, 0xA0	; 160
    1710:	90 e4       	ldi	r25, 0x40	; 64
    1712:	0e 94 50 40 	call	0x80a0	; 0x80a0 <__subsf3>
    1716:	0e 94 37 41 	call	0x826e	; 0x826e <__fixsfsi>
    171a:	9b 01       	movw	r18, r22
    171c:	ac 01       	movw	r20, r24
    171e:	80 e0       	ldi	r24, 0x00	; 0
    1720:	90 e0       	ldi	r25, 0x00	; 0
    1722:	b9 01       	movw	r22, r18
    1724:	40 e0       	ldi	r20, 0x00	; 0
    1726:	50 e0       	ldi	r21, 0x00	; 0
    1728:	2e e1       	ldi	r18, 0x1E	; 30
    172a:	30 e0       	ldi	r19, 0x00	; 0
    172c:	08 e2       	ldi	r16, 0x28	; 40
    172e:	10 e0       	ldi	r17, 0x00	; 0
    1730:	0e 94 01 23 	call	0x4602	; 0x4602 <Axis>
	ab45(30);
    1734:	50 92 5f 02 	sts	0x025F, r5
    1738:	40 92 5e 02 	sts	0x025E, r4
    173c:	80 e0       	ldi	r24, 0x00	; 0
    173e:	90 e0       	ldi	r25, 0x00	; 0
    1740:	60 e0       	ldi	r22, 0x00	; 0
    1742:	70 e0       	ldi	r23, 0x00	; 0
    1744:	44 e0       	ldi	r20, 0x04	; 4
    1746:	50 e0       	ldi	r21, 0x00	; 0
    1748:	24 ec       	ldi	r18, 0xC4	; 196
    174a:	30 e0       	ldi	r19, 0x00	; 0
    174c:	05 e0       	ldi	r16, 0x05	; 5
    174e:	10 e0       	ldi	r17, 0x00	; 0
    1750:	fa ea       	ldi	r31, 0xAA	; 170
    1752:	ef 2e       	mov	r14, r31
    1754:	f1 2c       	mov	r15, r1
    1756:	ee e1       	ldi	r30, 0x1E	; 30
    1758:	ce 2e       	mov	r12, r30
    175a:	d1 2c       	mov	r13, r1
    175c:	be e1       	ldi	r27, 0x1E	; 30
    175e:	ab 2e       	mov	r10, r27
    1760:	b1 2c       	mov	r11, r1
    1762:	0e 94 42 38 	call	0x7084	; 0x7084 <AB>

	ar ab345(30);
    1766:	60 92 3c 02 	sts	0x023C, r6
    176a:	70 92 3d 02 	sts	0x023D, r7
    176e:	80 92 3e 02 	sts	0x023E, r8
    1772:	90 92 3f 02 	sts	0x023F, r9
    1776:	60 92 22 02 	sts	0x0222, r6
    177a:	70 92 23 02 	sts	0x0223, r7
    177e:	80 92 24 02 	sts	0x0224, r8
    1782:	90 92 25 02 	sts	0x0225, r9
    1786:	50 92 5f 02 	sts	0x025F, r5
    178a:	40 92 5e 02 	sts	0x025E, r4
    178e:	83 e0       	ldi	r24, 0x03	; 3
    1790:	90 e0       	ldi	r25, 0x00	; 0
    1792:	6a e7       	ldi	r22, 0x7A	; 122
    1794:	70 e0       	ldi	r23, 0x00	; 0
    1796:	44 e0       	ldi	r20, 0x04	; 4
    1798:	50 e0       	ldi	r21, 0x00	; 0
    179a:	24 ec       	ldi	r18, 0xC4	; 196
    179c:	30 e0       	ldi	r19, 0x00	; 0
    179e:	0e 94 42 38 	call	0x7084	; 0x7084 <AB>
    17a2:	10 92 5f 02 	sts	0x025F, r1
    17a6:	10 92 5e 02 	sts	0x025E, r1


	Axis(0,-2,0,10,120);
    17aa:	80 e0       	ldi	r24, 0x00	; 0
    17ac:	90 e0       	ldi	r25, 0x00	; 0
    17ae:	6e ef       	ldi	r22, 0xFE	; 254
    17b0:	7f ef       	ldi	r23, 0xFF	; 255
    17b2:	40 e0       	ldi	r20, 0x00	; 0
    17b4:	50 e0       	ldi	r21, 0x00	; 0
    17b6:	2a e0       	ldi	r18, 0x0A	; 10
    17b8:	30 e0       	ldi	r19, 0x00	; 0
    17ba:	08 e7       	ldi	r16, 0x78	; 120
    17bc:	10 e0       	ldi	r17, 0x00	; 0
    17be:	0e 94 01 23 	call	0x4602	; 0x4602 <Axis>

	
	if(gate[3] == 0){
    17c2:	80 91 6a 02 	lds	r24, 0x026A
    17c6:	90 91 6b 02 	lds	r25, 0x026B
    17ca:	00 97       	sbiw	r24, 0x00	; 0
    17cc:	09 f0       	breq	.+2      	; 0x17d0 <__stack+0x6d1>
    17ce:	8f c0       	rjmp	.+286    	; 0x18ee <__stack+0x7ef>
		
		Drift(25,0,70,30,40);	wa= -20;
    17d0:	89 e1       	ldi	r24, 0x19	; 25
    17d2:	90 e0       	ldi	r25, 0x00	; 0
    17d4:	60 e0       	ldi	r22, 0x00	; 0
    17d6:	70 e0       	ldi	r23, 0x00	; 0
    17d8:	46 e4       	ldi	r20, 0x46	; 70
    17da:	50 e0       	ldi	r21, 0x00	; 0
    17dc:	2e e1       	ldi	r18, 0x1E	; 30
    17de:	30 e0       	ldi	r19, 0x00	; 0
    17e0:	08 e2       	ldi	r16, 0x28	; 40
    17e2:	10 e0       	ldi	r17, 0x00	; 0
    17e4:	0e 94 7b 2c 	call	0x58f6	; 0x58f6 <Drift>
    17e8:	2c ee       	ldi	r18, 0xEC	; 236
    17ea:	3f ef       	ldi	r19, 0xFF	; 255
    17ec:	30 93 5f 02 	sts	0x025F, r19
    17f0:	20 93 5e 02 	sts	0x025E, r18
		Ot(-26,90,90,25,0);		
    17f4:	86 ee       	ldi	r24, 0xE6	; 230
    17f6:	9f ef       	ldi	r25, 0xFF	; 255
    17f8:	6a e5       	ldi	r22, 0x5A	; 90
    17fa:	70 e0       	ldi	r23, 0x00	; 0
    17fc:	4a e5       	ldi	r20, 0x5A	; 90
    17fe:	50 e0       	ldi	r21, 0x00	; 0
    1800:	29 e1       	ldi	r18, 0x19	; 25
    1802:	30 e0       	ldi	r19, 0x00	; 0
    1804:	00 e0       	ldi	r16, 0x00	; 0
    1806:	10 e0       	ldi	r17, 0x00	; 0
    1808:	0e 94 fb 2f 	call	0x5ff6	; 0x5ff6 <Ot>

		CPsd(12,4,-3,3,18,0,40,10);
    180c:	8c e0       	ldi	r24, 0x0C	; 12
    180e:	90 e0       	ldi	r25, 0x00	; 0
    1810:	64 e0       	ldi	r22, 0x04	; 4
    1812:	70 e0       	ldi	r23, 0x00	; 0
    1814:	4d ef       	ldi	r20, 0xFD	; 253
    1816:	5f ef       	ldi	r21, 0xFF	; 255
    1818:	23 e0       	ldi	r18, 0x03	; 3
    181a:	30 e0       	ldi	r19, 0x00	; 0
    181c:	02 e1       	ldi	r16, 0x12	; 18
    181e:	10 e0       	ldi	r17, 0x00	; 0
    1820:	ee 24       	eor	r14, r14
    1822:	ff 24       	eor	r15, r15
    1824:	a8 e2       	ldi	r26, 0x28	; 40
    1826:	ca 2e       	mov	r12, r26
    1828:	d1 2c       	mov	r13, r1
    182a:	fa e0       	ldi	r31, 0x0A	; 10
    182c:	af 2e       	mov	r10, r31
    182e:	b1 2c       	mov	r11, r1
    1830:	0e 94 45 29 	call	0x528a	; 0x528a <CPsd>
		CPsd(10,4,-3,5,18,0,40,0);
    1834:	8a e0       	ldi	r24, 0x0A	; 10
    1836:	90 e0       	ldi	r25, 0x00	; 0
    1838:	64 e0       	ldi	r22, 0x04	; 4
    183a:	70 e0       	ldi	r23, 0x00	; 0
    183c:	4d ef       	ldi	r20, 0xFD	; 253
    183e:	5f ef       	ldi	r21, 0xFF	; 255
    1840:	25 e0       	ldi	r18, 0x05	; 5
    1842:	30 e0       	ldi	r19, 0x00	; 0
    1844:	aa 24       	eor	r10, r10
    1846:	bb 24       	eor	r11, r11
    1848:	0e 94 45 29 	call	0x528a	; 0x528a <CPsd>
		CPsd(4,4,-1000,3,18,25,40,0);
    184c:	84 e0       	ldi	r24, 0x04	; 4
    184e:	90 e0       	ldi	r25, 0x00	; 0
    1850:	64 e0       	ldi	r22, 0x04	; 4
    1852:	70 e0       	ldi	r23, 0x00	; 0
    1854:	48 e1       	ldi	r20, 0x18	; 24
    1856:	5c ef       	ldi	r21, 0xFC	; 252
    1858:	23 e0       	ldi	r18, 0x03	; 3
    185a:	30 e0       	ldi	r19, 0x00	; 0
    185c:	e9 e1       	ldi	r30, 0x19	; 25
    185e:	ee 2e       	mov	r14, r30
    1860:	f1 2c       	mov	r15, r1
    1862:	0e 94 45 29 	call	0x528a	; 0x528a <CPsd>
		
		Axis(0,-23,0,30,-5);
    1866:	80 e0       	ldi	r24, 0x00	; 0
    1868:	90 e0       	ldi	r25, 0x00	; 0
    186a:	69 ee       	ldi	r22, 0xE9	; 233
    186c:	7f ef       	ldi	r23, 0xFF	; 255
    186e:	40 e0       	ldi	r20, 0x00	; 0
    1870:	50 e0       	ldi	r21, 0x00	; 0
    1872:	2e e1       	ldi	r18, 0x1E	; 30
    1874:	30 e0       	ldi	r19, 0x00	; 0
    1876:	0b ef       	ldi	r16, 0xFB	; 251
    1878:	1f ef       	ldi	r17, 0xFF	; 255
    187a:	0e 94 01 23 	call	0x4602	; 0x4602 <Axis>
		Ot(-20,-90,-50,25,0);	wa = 20;
    187e:	8c ee       	ldi	r24, 0xEC	; 236
    1880:	9f ef       	ldi	r25, 0xFF	; 255
    1882:	66 ea       	ldi	r22, 0xA6	; 166
    1884:	7f ef       	ldi	r23, 0xFF	; 255
    1886:	4e ec       	ldi	r20, 0xCE	; 206
    1888:	5f ef       	ldi	r21, 0xFF	; 255
    188a:	29 e1       	ldi	r18, 0x19	; 25
    188c:	30 e0       	ldi	r19, 0x00	; 0
    188e:	00 e0       	ldi	r16, 0x00	; 0
    1890:	10 e0       	ldi	r17, 0x00	; 0
    1892:	0e 94 fb 2f 	call	0x5ff6	; 0x5ff6 <Ot>
    1896:	84 e1       	ldi	r24, 0x14	; 20
    1898:	90 e0       	ldi	r25, 0x00	; 0
    189a:	90 93 5f 02 	sts	0x025F, r25
    189e:	80 93 5e 02 	sts	0x025E, r24
		Axis(0,-20,0,30,0);
    18a2:	80 e0       	ldi	r24, 0x00	; 0
    18a4:	90 e0       	ldi	r25, 0x00	; 0
    18a6:	6c ee       	ldi	r22, 0xEC	; 236
    18a8:	7f ef       	ldi	r23, 0xFF	; 255
    18aa:	40 e0       	ldi	r20, 0x00	; 0
    18ac:	50 e0       	ldi	r21, 0x00	; 0
    18ae:	2e e1       	ldi	r18, 0x1E	; 30
    18b0:	30 e0       	ldi	r19, 0x00	; 0
    18b2:	0e 94 01 23 	call	0x4602	; 0x4602 <Axis>
		Ot(-12,90,0,30,0);
    18b6:	84 ef       	ldi	r24, 0xF4	; 244
    18b8:	9f ef       	ldi	r25, 0xFF	; 255
    18ba:	6a e5       	ldi	r22, 0x5A	; 90
    18bc:	70 e0       	ldi	r23, 0x00	; 0
    18be:	40 e0       	ldi	r20, 0x00	; 0
    18c0:	50 e0       	ldi	r21, 0x00	; 0
    18c2:	2e e1       	ldi	r18, 0x1E	; 30
    18c4:	30 e0       	ldi	r19, 0x00	; 0
    18c6:	0e 94 fb 2f 	call	0x5ff6	; 0x5ff6 <Ot>
		Od2(5,0,70,30,-40,60,130);	cw
    18ca:	85 e0       	ldi	r24, 0x05	; 5
    18cc:	90 e0       	ldi	r25, 0x00	; 0
    18ce:	60 e0       	ldi	r22, 0x00	; 0
    18d0:	70 e0       	ldi	r23, 0x00	; 0
    18d2:	46 e4       	ldi	r20, 0x46	; 70
    18d4:	50 e0       	ldi	r21, 0x00	; 0
    18d6:	2e e1       	ldi	r18, 0x1E	; 30
    18d8:	30 e0       	ldi	r19, 0x00	; 0
    18da:	08 ed       	ldi	r16, 0xD8	; 216
    18dc:	1f ef       	ldi	r17, 0xFF	; 255
    18de:	bc e3       	ldi	r27, 0x3C	; 60
    18e0:	eb 2e       	mov	r14, r27
    18e2:	f1 2c       	mov	r15, r1
    18e4:	a2 e8       	ldi	r26, 0x82	; 130
    18e6:	ca 2e       	mov	r12, r26
    18e8:	d1 2c       	mov	r13, r1
    18ea:	0e 94 17 2e 	call	0x5c2e	; 0x5c2e <Od2>


case -4:
///Rverse

ar	ab645(30);
    18ee:	60 92 3c 02 	sts	0x023C, r6
    18f2:	70 92 3d 02 	sts	0x023D, r7
    18f6:	80 92 3e 02 	sts	0x023E, r8
    18fa:	90 92 3f 02 	sts	0x023F, r9
    18fe:	60 92 22 02 	sts	0x0222, r6
    1902:	70 92 23 02 	sts	0x0223, r7
    1906:	80 92 24 02 	sts	0x0224, r8
    190a:	90 92 25 02 	sts	0x0225, r9
    190e:	50 92 5f 02 	sts	0x025F, r5
    1912:	40 92 5e 02 	sts	0x025E, r4
    1916:	86 e0       	ldi	r24, 0x06	; 6
    1918:	90 e0       	ldi	r25, 0x00	; 0
    191a:	66 e9       	ldi	r22, 0x96	; 150
    191c:	70 e0       	ldi	r23, 0x00	; 0
    191e:	44 e0       	ldi	r20, 0x04	; 4
    1920:	50 e0       	ldi	r21, 0x00	; 0
    1922:	24 ec       	ldi	r18, 0xC4	; 196
    1924:	30 e0       	ldi	r19, 0x00	; 0
    1926:	05 e0       	ldi	r16, 0x05	; 5
    1928:	10 e0       	ldi	r17, 0x00	; 0
    192a:	fa ea       	ldi	r31, 0xAA	; 170
    192c:	ef 2e       	mov	r14, r31
    192e:	f1 2c       	mov	r15, r1
    1930:	ee e1       	ldi	r30, 0x1E	; 30
    1932:	ce 2e       	mov	r12, r30
    1934:	d1 2c       	mov	r13, r1
    1936:	be e1       	ldi	r27, 0x1E	; 30
    1938:	ab 2e       	mov	r10, r27
    193a:	b1 2c       	mov	r11, r1
    193c:	0e 94 42 38 	call	0x7084	; 0x7084 <AB>
    1940:	10 92 5f 02 	sts	0x025F, r1
    1944:	10 92 5e 02 	sts	0x025E, r1

Drift(-10,0,10,30,40);	wa = -80;
    1948:	86 ef       	ldi	r24, 0xF6	; 246
    194a:	9f ef       	ldi	r25, 0xFF	; 255
    194c:	60 e0       	ldi	r22, 0x00	; 0
    194e:	70 e0       	ldi	r23, 0x00	; 0
    1950:	4a e0       	ldi	r20, 0x0A	; 10
    1952:	50 e0       	ldi	r21, 0x00	; 0
    1954:	2e e1       	ldi	r18, 0x1E	; 30
    1956:	30 e0       	ldi	r19, 0x00	; 0
    1958:	08 e2       	ldi	r16, 0x28	; 40
    195a:	10 e0       	ldi	r17, 0x00	; 0
    195c:	0e 94 7b 2c 	call	0x58f6	; 0x58f6 <Drift>
    1960:	40 eb       	ldi	r20, 0xB0	; 176
    1962:	5f ef       	ldi	r21, 0xFF	; 255
    1964:	50 93 5f 02 	sts	0x025F, r21
    1968:	40 93 5e 02 	sts	0x025E, r20

CPsd(12,3,5,3,14,0,40,0);
    196c:	8c e0       	ldi	r24, 0x0C	; 12
    196e:	90 e0       	ldi	r25, 0x00	; 0
    1970:	63 e0       	ldi	r22, 0x03	; 3
    1972:	70 e0       	ldi	r23, 0x00	; 0
    1974:	45 e0       	ldi	r20, 0x05	; 5
    1976:	50 e0       	ldi	r21, 0x00	; 0
    1978:	23 e0       	ldi	r18, 0x03	; 3
    197a:	30 e0       	ldi	r19, 0x00	; 0
    197c:	0e e0       	ldi	r16, 0x0E	; 14
    197e:	10 e0       	ldi	r17, 0x00	; 0
    1980:	ee 24       	eor	r14, r14
    1982:	ff 24       	eor	r15, r15
    1984:	a8 e2       	ldi	r26, 0x28	; 40
    1986:	ca 2e       	mov	r12, r26
    1988:	d1 2c       	mov	r13, r1
    198a:	aa 24       	eor	r10, r10
    198c:	bb 24       	eor	r11, r11
    198e:	0e 94 45 29 	call	0x528a	; 0x528a <CPsd>
CPsd(10,3,5,5,14,0,40,0);
    1992:	8a e0       	ldi	r24, 0x0A	; 10
    1994:	90 e0       	ldi	r25, 0x00	; 0
    1996:	63 e0       	ldi	r22, 0x03	; 3
    1998:	70 e0       	ldi	r23, 0x00	; 0
    199a:	45 e0       	ldi	r20, 0x05	; 5
    199c:	50 e0       	ldi	r21, 0x00	; 0
    199e:	25 e0       	ldi	r18, 0x05	; 5
    19a0:	30 e0       	ldi	r19, 0x00	; 0
    19a2:	0e 94 45 29 	call	0x528a	; 0x528a <CPsd>
CPsd(-2,3,1000,3,14,20,40,0);
    19a6:	8e ef       	ldi	r24, 0xFE	; 254
    19a8:	9f ef       	ldi	r25, 0xFF	; 255
    19aa:	63 e0       	ldi	r22, 0x03	; 3
    19ac:	70 e0       	ldi	r23, 0x00	; 0
    19ae:	48 ee       	ldi	r20, 0xE8	; 232
    19b0:	53 e0       	ldi	r21, 0x03	; 3
    19b2:	23 e0       	ldi	r18, 0x03	; 3
    19b4:	30 e0       	ldi	r19, 0x00	; 0
    19b6:	f4 e1       	ldi	r31, 0x14	; 20
    19b8:	ef 2e       	mov	r14, r31
    19ba:	f1 2c       	mov	r15, r1
    19bc:	0e 94 45 29 	call	0x528a	; 0x528a <CPsd>
Ot(12,-90,0,35,0);		wa= 10;
    19c0:	8c e0       	ldi	r24, 0x0C	; 12
    19c2:	90 e0       	ldi	r25, 0x00	; 0
    19c4:	66 ea       	ldi	r22, 0xA6	; 166
    19c6:	7f ef       	ldi	r23, 0xFF	; 255
    19c8:	40 e0       	ldi	r20, 0x00	; 0
    19ca:	50 e0       	ldi	r21, 0x00	; 0
    19cc:	23 e2       	ldi	r18, 0x23	; 35
    19ce:	30 e0       	ldi	r19, 0x00	; 0
    19d0:	00 e0       	ldi	r16, 0x00	; 0
    19d2:	10 e0       	ldi	r17, 0x00	; 0
    19d4:	0e 94 fb 2f 	call	0x5ff6	; 0x5ff6 <Ot>
    19d8:	8a e0       	ldi	r24, 0x0A	; 10
    19da:	90 e0       	ldi	r25, 0x00	; 0
    19dc:	90 93 5f 02 	sts	0x025F, r25
    19e0:	80 93 5e 02 	sts	0x025E, r24

Ot(18,90,0,40,5);	wa=  -80;
    19e4:	82 e1       	ldi	r24, 0x12	; 18
    19e6:	90 e0       	ldi	r25, 0x00	; 0
    19e8:	6a e5       	ldi	r22, 0x5A	; 90
    19ea:	70 e0       	ldi	r23, 0x00	; 0
    19ec:	40 e0       	ldi	r20, 0x00	; 0
    19ee:	50 e0       	ldi	r21, 0x00	; 0
    19f0:	28 e2       	ldi	r18, 0x28	; 40
    19f2:	30 e0       	ldi	r19, 0x00	; 0
    19f4:	05 e0       	ldi	r16, 0x05	; 5
    19f6:	10 e0       	ldi	r17, 0x00	; 0
    19f8:	0e 94 fb 2f 	call	0x5ff6	; 0x5ff6 <Ot>
    19fc:	60 eb       	ldi	r22, 0xB0	; 176
    19fe:	7f ef       	ldi	r23, 0xFF	; 255
    1a00:	70 93 5f 02 	sts	0x025F, r23
    1a04:	60 93 5e 02 	sts	0x025E, r22
Ot(20,-90,-10,40,0);	cw
    1a08:	84 e1       	ldi	r24, 0x14	; 20
    1a0a:	90 e0       	ldi	r25, 0x00	; 0
    1a0c:	66 ea       	ldi	r22, 0xA6	; 166
    1a0e:	7f ef       	ldi	r23, 0xFF	; 255
    1a10:	46 ef       	ldi	r20, 0xF6	; 246
    1a12:	5f ef       	ldi	r21, 0xFF	; 255
    1a14:	28 e2       	ldi	r18, 0x28	; 40
    1a16:	30 e0       	ldi	r19, 0x00	; 0
    1a18:	00 e0       	ldi	r16, 0x00	; 0
    1a1a:	10 e0       	ldi	r17, 0x00	; 0
    1a1c:	0e 94 fb 2f 	call	0x5ff6	; 0x5ff6 <Ot>
    1a20:	10 92 5f 02 	sts	0x025F, r1
    1a24:	10 92 5e 02 	sts	0x025E, r1

Axis(0,10,0,50,0);
    1a28:	80 e0       	ldi	r24, 0x00	; 0
    1a2a:	90 e0       	ldi	r25, 0x00	; 0
    1a2c:	6a e0       	ldi	r22, 0x0A	; 10
    1a2e:	70 e0       	ldi	r23, 0x00	; 0
    1a30:	40 e0       	ldi	r20, 0x00	; 0
    1a32:	50 e0       	ldi	r21, 0x00	; 0
    1a34:	22 e3       	ldi	r18, 0x32	; 50
    1a36:	30 e0       	ldi	r19, 0x00	; 0
    1a38:	0e 94 01 23 	call	0x4602	; 0x4602 <Axis>

CPsd(12,8,5,3,16,0,50,0);
    1a3c:	8c e0       	ldi	r24, 0x0C	; 12
    1a3e:	90 e0       	ldi	r25, 0x00	; 0
    1a40:	68 e0       	ldi	r22, 0x08	; 8
    1a42:	70 e0       	ldi	r23, 0x00	; 0
    1a44:	45 e0       	ldi	r20, 0x05	; 5
    1a46:	50 e0       	ldi	r21, 0x00	; 0
    1a48:	23 e0       	ldi	r18, 0x03	; 3
    1a4a:	30 e0       	ldi	r19, 0x00	; 0
    1a4c:	00 e1       	ldi	r16, 0x10	; 16
    1a4e:	10 e0       	ldi	r17, 0x00	; 0
    1a50:	ee 24       	eor	r14, r14
    1a52:	ff 24       	eor	r15, r15
    1a54:	e2 e3       	ldi	r30, 0x32	; 50
    1a56:	ce 2e       	mov	r12, r30
    1a58:	d1 2c       	mov	r13, r1
    1a5a:	0e 94 45 29 	call	0x528a	; 0x528a <CPsd>
CPsd(10,8,5,5,16,0,50,0);
    1a5e:	8a e0       	ldi	r24, 0x0A	; 10
    1a60:	90 e0       	ldi	r25, 0x00	; 0
    1a62:	68 e0       	ldi	r22, 0x08	; 8
    1a64:	70 e0       	ldi	r23, 0x00	; 0
    1a66:	45 e0       	ldi	r20, 0x05	; 5
    1a68:	50 e0       	ldi	r21, 0x00	; 0
    1a6a:	25 e0       	ldi	r18, 0x05	; 5
    1a6c:	30 e0       	ldi	r19, 0x00	; 0
    1a6e:	0e 94 45 29 	call	0x528a	; 0x528a <CPsd>
CPsd(8,8,1000,3,16,25,50,0);
    1a72:	88 e0       	ldi	r24, 0x08	; 8
    1a74:	90 e0       	ldi	r25, 0x00	; 0
    1a76:	68 e0       	ldi	r22, 0x08	; 8
    1a78:	70 e0       	ldi	r23, 0x00	; 0
    1a7a:	48 ee       	ldi	r20, 0xE8	; 232
    1a7c:	53 e0       	ldi	r21, 0x03	; 3
    1a7e:	23 e0       	ldi	r18, 0x03	; 3
    1a80:	30 e0       	ldi	r19, 0x00	; 0
    1a82:	b9 e1       	ldi	r27, 0x19	; 25
    1a84:	eb 2e       	mov	r14, r27
    1a86:	f1 2c       	mov	r15, r1
    1a88:	0e 94 45 29 	call	0x528a	; 0x528a <CPsd>

Drift(2,34,-90,30,0);	wa=  -90;
    1a8c:	82 e0       	ldi	r24, 0x02	; 2
    1a8e:	90 e0       	ldi	r25, 0x00	; 0
    1a90:	62 e2       	ldi	r22, 0x22	; 34
    1a92:	70 e0       	ldi	r23, 0x00	; 0
    1a94:	46 ea       	ldi	r20, 0xA6	; 166
    1a96:	5f ef       	ldi	r21, 0xFF	; 255
    1a98:	2e e1       	ldi	r18, 0x1E	; 30
    1a9a:	30 e0       	ldi	r19, 0x00	; 0
    1a9c:	00 e0       	ldi	r16, 0x00	; 0
    1a9e:	10 e0       	ldi	r17, 0x00	; 0
    1aa0:	0e 94 7b 2c 	call	0x58f6	; 0x58f6 <Drift>
    1aa4:	86 ea       	ldi	r24, 0xA6	; 166
    1aa6:	9f ef       	ldi	r25, 0xFF	; 255
    1aa8:	90 93 5f 02 	sts	0x025F, r25
    1aac:	80 93 5e 02 	sts	0x025E, r24
Ot(8,-90,0,30,0);	cw
    1ab0:	88 e0       	ldi	r24, 0x08	; 8
    1ab2:	90 e0       	ldi	r25, 0x00	; 0
    1ab4:	66 ea       	ldi	r22, 0xA6	; 166
    1ab6:	7f ef       	ldi	r23, 0xFF	; 255
    1ab8:	40 e0       	ldi	r20, 0x00	; 0
    1aba:	50 e0       	ldi	r21, 0x00	; 0
    1abc:	2e e1       	ldi	r18, 0x1E	; 30
    1abe:	30 e0       	ldi	r19, 0x00	; 0
    1ac0:	0e 94 fb 2f 	call	0x5ff6	; 0x5ff6 <Ot>
    1ac4:	10 92 5f 02 	sts	0x025F, r1
    1ac8:	10 92 5e 02 	sts	0x025E, r1

CPsd(12,8,5,3,16,0,40,0);
    1acc:	8c e0       	ldi	r24, 0x0C	; 12
    1ace:	90 e0       	ldi	r25, 0x00	; 0
    1ad0:	68 e0       	ldi	r22, 0x08	; 8
    1ad2:	70 e0       	ldi	r23, 0x00	; 0
    1ad4:	45 e0       	ldi	r20, 0x05	; 5
    1ad6:	50 e0       	ldi	r21, 0x00	; 0
    1ad8:	23 e0       	ldi	r18, 0x03	; 3
    1ada:	30 e0       	ldi	r19, 0x00	; 0
    1adc:	00 e1       	ldi	r16, 0x10	; 16
    1ade:	10 e0       	ldi	r17, 0x00	; 0
    1ae0:	ee 24       	eor	r14, r14
    1ae2:	ff 24       	eor	r15, r15
    1ae4:	a8 e2       	ldi	r26, 0x28	; 40
    1ae6:	ca 2e       	mov	r12, r26
    1ae8:	d1 2c       	mov	r13, r1
    1aea:	0e 94 45 29 	call	0x528a	; 0x528a <CPsd>
CPsd(10,8,5,5,16,0,40,0);
    1aee:	8a e0       	ldi	r24, 0x0A	; 10
    1af0:	90 e0       	ldi	r25, 0x00	; 0
    1af2:	68 e0       	ldi	r22, 0x08	; 8
    1af4:	70 e0       	ldi	r23, 0x00	; 0
    1af6:	45 e0       	ldi	r20, 0x05	; 5
    1af8:	50 e0       	ldi	r21, 0x00	; 0
    1afa:	25 e0       	ldi	r18, 0x05	; 5
    1afc:	30 e0       	ldi	r19, 0x00	; 0
    1afe:	0e 94 45 29 	call	0x528a	; 0x528a <CPsd>
CPsd(8,8,1000,3,16,25,40,0);
    1b02:	88 e0       	ldi	r24, 0x08	; 8
    1b04:	90 e0       	ldi	r25, 0x00	; 0
    1b06:	68 e0       	ldi	r22, 0x08	; 8
    1b08:	70 e0       	ldi	r23, 0x00	; 0
    1b0a:	48 ee       	ldi	r20, 0xE8	; 232
    1b0c:	53 e0       	ldi	r21, 0x03	; 3
    1b0e:	23 e0       	ldi	r18, 0x03	; 3
    1b10:	30 e0       	ldi	r19, 0x00	; 0
    1b12:	f9 e1       	ldi	r31, 0x19	; 25
    1b14:	ef 2e       	mov	r14, r31
    1b16:	f1 2c       	mov	r15, r1
    1b18:	0e 94 45 29 	call	0x528a	; 0x528a <CPsd>

Drift(0,24,-30,30,0);	wa= -30;
    1b1c:	80 e0       	ldi	r24, 0x00	; 0
    1b1e:	90 e0       	ldi	r25, 0x00	; 0
    1b20:	68 e1       	ldi	r22, 0x18	; 24
    1b22:	70 e0       	ldi	r23, 0x00	; 0
    1b24:	42 ee       	ldi	r20, 0xE2	; 226
    1b26:	5f ef       	ldi	r21, 0xFF	; 255
    1b28:	2e e1       	ldi	r18, 0x1E	; 30
    1b2a:	30 e0       	ldi	r19, 0x00	; 0
    1b2c:	00 e0       	ldi	r16, 0x00	; 0
    1b2e:	10 e0       	ldi	r17, 0x00	; 0
    1b30:	0e 94 7b 2c 	call	0x58f6	; 0x58f6 <Drift>
    1b34:	82 ee       	ldi	r24, 0xE2	; 226
    1b36:	9f ef       	ldi	r25, 0xFF	; 255
    1b38:	90 93 5f 02 	sts	0x025F, r25
    1b3c:	80 93 5e 02 	sts	0x025E, r24
Ot(20,-90,10,30,0);	wa= 70;
    1b40:	84 e1       	ldi	r24, 0x14	; 20
    1b42:	90 e0       	ldi	r25, 0x00	; 0
    1b44:	66 ea       	ldi	r22, 0xA6	; 166
    1b46:	7f ef       	ldi	r23, 0xFF	; 255
    1b48:	4a e0       	ldi	r20, 0x0A	; 10
    1b4a:	50 e0       	ldi	r21, 0x00	; 0
    1b4c:	2e e1       	ldi	r18, 0x1E	; 30
    1b4e:	30 e0       	ldi	r19, 0x00	; 0
    1b50:	0e 94 fb 2f 	call	0x5ff6	; 0x5ff6 <Ot>
    1b54:	86 e4       	ldi	r24, 0x46	; 70
    1b56:	90 e0       	ldi	r25, 0x00	; 0
    1b58:	90 93 5f 02 	sts	0x025F, r25
    1b5c:	80 93 5e 02 	sts	0x025E, r24
Ot(10,90,20,30,-40);	cw
    1b60:	8a e0       	ldi	r24, 0x0A	; 10
    1b62:	90 e0       	ldi	r25, 0x00	; 0
    1b64:	6a e5       	ldi	r22, 0x5A	; 90
    1b66:	70 e0       	ldi	r23, 0x00	; 0
    1b68:	44 e1       	ldi	r20, 0x14	; 20
    1b6a:	50 e0       	ldi	r21, 0x00	; 0
    1b6c:	2e e1       	ldi	r18, 0x1E	; 30
    1b6e:	30 e0       	ldi	r19, 0x00	; 0
    1b70:	08 ed       	ldi	r16, 0xD8	; 216
    1b72:	1f ef       	ldi	r17, 0xFF	; 255
    1b74:	0e 94 fb 2f 	call	0x5ff6	; 0x5ff6 <Ot>
    1b78:	10 92 5f 02 	sts	0x025F, r1
    1b7c:	10 92 5e 02 	sts	0x025E, r1



SS();
    1b80:	0e 94 a6 1d 	call	0x3b4c	; 0x3b4c <SS>
break;
    1b84:	8a c2       	rjmp	.+1300   	; 0x209a <__stack+0xf9b>


///OUT GET
if(gate[1]){
	case -3:
	ar ab645(30);
    1b86:	60 92 3c 02 	sts	0x023C, r6
    1b8a:	70 92 3d 02 	sts	0x023D, r7
    1b8e:	80 92 3e 02 	sts	0x023E, r8
    1b92:	90 92 3f 02 	sts	0x023F, r9
    1b96:	60 92 22 02 	sts	0x0222, r6
    1b9a:	70 92 23 02 	sts	0x0223, r7
    1b9e:	80 92 24 02 	sts	0x0224, r8
    1ba2:	90 92 25 02 	sts	0x0225, r9
    1ba6:	50 92 5f 02 	sts	0x025F, r5
    1baa:	40 92 5e 02 	sts	0x025E, r4
    1bae:	86 e0       	ldi	r24, 0x06	; 6
    1bb0:	90 e0       	ldi	r25, 0x00	; 0
    1bb2:	66 e9       	ldi	r22, 0x96	; 150
    1bb4:	70 e0       	ldi	r23, 0x00	; 0
    1bb6:	44 e0       	ldi	r20, 0x04	; 4
    1bb8:	50 e0       	ldi	r21, 0x00	; 0
    1bba:	24 ec       	ldi	r18, 0xC4	; 196
    1bbc:	30 e0       	ldi	r19, 0x00	; 0
    1bbe:	05 e0       	ldi	r16, 0x05	; 5
    1bc0:	10 e0       	ldi	r17, 0x00	; 0
    1bc2:	ea ea       	ldi	r30, 0xAA	; 170
    1bc4:	ee 2e       	mov	r14, r30
    1bc6:	f1 2c       	mov	r15, r1
    1bc8:	be e1       	ldi	r27, 0x1E	; 30
    1bca:	cb 2e       	mov	r12, r27
    1bcc:	d1 2c       	mov	r13, r1
    1bce:	ae e1       	ldi	r26, 0x1E	; 30
    1bd0:	aa 2e       	mov	r10, r26
    1bd2:	b1 2c       	mov	r11, r1
    1bd4:	0e 94 42 38 	call	0x7084	; 0x7084 <AB>
    1bd8:	10 92 5f 02 	sts	0x025F, r1
    1bdc:	10 92 5e 02 	sts	0x025E, r1
	Axis(-15,0,0,35,45);	wa = 90;
    1be0:	81 ef       	ldi	r24, 0xF1	; 241
    1be2:	9f ef       	ldi	r25, 0xFF	; 255
    1be4:	60 e0       	ldi	r22, 0x00	; 0
    1be6:	70 e0       	ldi	r23, 0x00	; 0
    1be8:	40 e0       	ldi	r20, 0x00	; 0
    1bea:	50 e0       	ldi	r21, 0x00	; 0
    1bec:	23 e2       	ldi	r18, 0x23	; 35
    1bee:	30 e0       	ldi	r19, 0x00	; 0
    1bf0:	0d e2       	ldi	r16, 0x2D	; 45
    1bf2:	10 e0       	ldi	r17, 0x00	; 0
    1bf4:	0e 94 01 23 	call	0x4602	; 0x4602 <Axis>
    1bf8:	50 92 5f 02 	sts	0x025F, r5
    1bfc:	40 92 5e 02 	sts	0x025E, r4
	Ot(-27,90,20,30,0);	wa = 20;
    1c00:	85 ee       	ldi	r24, 0xE5	; 229
    1c02:	9f ef       	ldi	r25, 0xFF	; 255
    1c04:	6a e5       	ldi	r22, 0x5A	; 90
    1c06:	70 e0       	ldi	r23, 0x00	; 0
    1c08:	44 e1       	ldi	r20, 0x14	; 20
    1c0a:	50 e0       	ldi	r21, 0x00	; 0
    1c0c:	2e e1       	ldi	r18, 0x1E	; 30
    1c0e:	30 e0       	ldi	r19, 0x00	; 0
    1c10:	00 e0       	ldi	r16, 0x00	; 0
    1c12:	10 e0       	ldi	r17, 0x00	; 0
    1c14:	0e 94 fb 2f 	call	0x5ff6	; 0x5ff6 <Ot>
    1c18:	c4 e1       	ldi	r28, 0x14	; 20
    1c1a:	d0 e0       	ldi	r29, 0x00	; 0
    1c1c:	d0 93 5f 02 	sts	0x025F, r29
    1c20:	c0 93 5e 02 	sts	0x025E, r28

	Avoid(4,12,16,20,-1000,35,0);
    1c24:	84 e0       	ldi	r24, 0x04	; 4
    1c26:	90 e0       	ldi	r25, 0x00	; 0
    1c28:	6c e0       	ldi	r22, 0x0C	; 12
    1c2a:	70 e0       	ldi	r23, 0x00	; 0
    1c2c:	40 e1       	ldi	r20, 0x10	; 16
    1c2e:	50 e0       	ldi	r21, 0x00	; 0
    1c30:	24 e1       	ldi	r18, 0x14	; 20
    1c32:	30 e0       	ldi	r19, 0x00	; 0
    1c34:	08 e1       	ldi	r16, 0x18	; 24
    1c36:	1c ef       	ldi	r17, 0xFC	; 252
    1c38:	f3 e2       	ldi	r31, 0x23	; 35
    1c3a:	ef 2e       	mov	r14, r31
    1c3c:	f1 2c       	mov	r15, r1
    1c3e:	cc 24       	eor	r12, r12
    1c40:	dd 24       	eor	r13, r13
    1c42:	0e 94 24 36 	call	0x6c48	; 0x6c48 <Avoid>
	Ot(-14,90,50,30,0);	wa=  -20;
    1c46:	82 ef       	ldi	r24, 0xF2	; 242
    1c48:	9f ef       	ldi	r25, 0xFF	; 255
    1c4a:	6a e5       	ldi	r22, 0x5A	; 90
    1c4c:	70 e0       	ldi	r23, 0x00	; 0
    1c4e:	42 e3       	ldi	r20, 0x32	; 50
    1c50:	50 e0       	ldi	r21, 0x00	; 0
    1c52:	2e e1       	ldi	r18, 0x1E	; 30
    1c54:	30 e0       	ldi	r19, 0x00	; 0
    1c56:	00 e0       	ldi	r16, 0x00	; 0
    1c58:	10 e0       	ldi	r17, 0x00	; 0
    1c5a:	0e 94 fb 2f 	call	0x5ff6	; 0x5ff6 <Ot>
    1c5e:	ac ee       	ldi	r26, 0xEC	; 236
    1c60:	bf ef       	ldi	r27, 0xFF	; 255
    1c62:	b0 93 5f 02 	sts	0x025F, r27
    1c66:	a0 93 5e 02 	sts	0x025E, r26

	CPsd(12,6,-3,3,14,0,35,0);
    1c6a:	8c e0       	ldi	r24, 0x0C	; 12
    1c6c:	90 e0       	ldi	r25, 0x00	; 0
    1c6e:	66 e0       	ldi	r22, 0x06	; 6
    1c70:	70 e0       	ldi	r23, 0x00	; 0
    1c72:	4d ef       	ldi	r20, 0xFD	; 253
    1c74:	5f ef       	ldi	r21, 0xFF	; 255
    1c76:	23 e0       	ldi	r18, 0x03	; 3
    1c78:	30 e0       	ldi	r19, 0x00	; 0
    1c7a:	0e e0       	ldi	r16, 0x0E	; 14
    1c7c:	10 e0       	ldi	r17, 0x00	; 0
    1c7e:	ee 24       	eor	r14, r14
    1c80:	ff 24       	eor	r15, r15
    1c82:	e3 e2       	ldi	r30, 0x23	; 35
    1c84:	ce 2e       	mov	r12, r30
    1c86:	d1 2c       	mov	r13, r1
    1c88:	aa 24       	eor	r10, r10
    1c8a:	bb 24       	eor	r11, r11
    1c8c:	0e 94 45 29 	call	0x528a	; 0x528a <CPsd>
	CPsd(10,6,-3,5,14,0,35,0);
    1c90:	8a e0       	ldi	r24, 0x0A	; 10
    1c92:	90 e0       	ldi	r25, 0x00	; 0
    1c94:	66 e0       	ldi	r22, 0x06	; 6
    1c96:	70 e0       	ldi	r23, 0x00	; 0
    1c98:	4d ef       	ldi	r20, 0xFD	; 253
    1c9a:	5f ef       	ldi	r21, 0xFF	; 255
    1c9c:	25 e0       	ldi	r18, 0x05	; 5
    1c9e:	30 e0       	ldi	r19, 0x00	; 0
    1ca0:	0e 94 45 29 	call	0x528a	; 0x528a <CPsd>
	CPsd(-5,6,-1000,5,14,20,35,0);
    1ca4:	8b ef       	ldi	r24, 0xFB	; 251
    1ca6:	9f ef       	ldi	r25, 0xFF	; 255
    1ca8:	66 e0       	ldi	r22, 0x06	; 6
    1caa:	70 e0       	ldi	r23, 0x00	; 0
    1cac:	48 e1       	ldi	r20, 0x18	; 24
    1cae:	5c ef       	ldi	r21, 0xFC	; 252
    1cb0:	25 e0       	ldi	r18, 0x05	; 5
    1cb2:	30 e0       	ldi	r19, 0x00	; 0
    1cb4:	b4 e1       	ldi	r27, 0x14	; 20
    1cb6:	eb 2e       	mov	r14, r27
    1cb8:	f1 2c       	mov	r15, r1
    1cba:	0e 94 45 29 	call	0x528a	; 0x528a <CPsd>
	Ot(-11,-90,0,30,0);
    1cbe:	85 ef       	ldi	r24, 0xF5	; 245
    1cc0:	9f ef       	ldi	r25, 0xFF	; 255
    1cc2:	66 ea       	ldi	r22, 0xA6	; 166
    1cc4:	7f ef       	ldi	r23, 0xFF	; 255
    1cc6:	40 e0       	ldi	r20, 0x00	; 0
    1cc8:	50 e0       	ldi	r21, 0x00	; 0
    1cca:	2e e1       	ldi	r18, 0x1E	; 30
    1ccc:	30 e0       	ldi	r19, 0x00	; 0
    1cce:	00 e0       	ldi	r16, 0x00	; 0
    1cd0:	10 e0       	ldi	r17, 0x00	; 0
    1cd2:	0e 94 fb 2f 	call	0x5ff6	; 0x5ff6 <Ot>
	Drift(-13,0,-50,25,0);	wa = 20;
    1cd6:	83 ef       	ldi	r24, 0xF3	; 243
    1cd8:	9f ef       	ldi	r25, 0xFF	; 255
    1cda:	60 e0       	ldi	r22, 0x00	; 0
    1cdc:	70 e0       	ldi	r23, 0x00	; 0
    1cde:	4e ec       	ldi	r20, 0xCE	; 206
    1ce0:	5f ef       	ldi	r21, 0xFF	; 255
    1ce2:	29 e1       	ldi	r18, 0x19	; 25
    1ce4:	30 e0       	ldi	r19, 0x00	; 0
    1ce6:	0e 94 7b 2c 	call	0x58f6	; 0x58f6 <Drift>
    1cea:	d0 93 5f 02 	sts	0x025F, r29
    1cee:	c0 93 5e 02 	sts	0x025E, r28
	CPsd(12,3,-5,3,15,0,40,5);
    1cf2:	8c e0       	ldi	r24, 0x0C	; 12
    1cf4:	90 e0       	ldi	r25, 0x00	; 0
    1cf6:	63 e0       	ldi	r22, 0x03	; 3
    1cf8:	70 e0       	ldi	r23, 0x00	; 0
    1cfa:	4b ef       	ldi	r20, 0xFB	; 251
    1cfc:	5f ef       	ldi	r21, 0xFF	; 255
    1cfe:	23 e0       	ldi	r18, 0x03	; 3
    1d00:	30 e0       	ldi	r19, 0x00	; 0
    1d02:	0f e0       	ldi	r16, 0x0F	; 15
    1d04:	10 e0       	ldi	r17, 0x00	; 0
    1d06:	ee 24       	eor	r14, r14
    1d08:	ff 24       	eor	r15, r15
    1d0a:	a8 e2       	ldi	r26, 0x28	; 40
    1d0c:	ca 2e       	mov	r12, r26
    1d0e:	d1 2c       	mov	r13, r1
    1d10:	f5 e0       	ldi	r31, 0x05	; 5
    1d12:	af 2e       	mov	r10, r31
    1d14:	b1 2c       	mov	r11, r1
    1d16:	0e 94 45 29 	call	0x528a	; 0x528a <CPsd>
	CPsd(10,3,-5,5,15,0,40,0);
    1d1a:	8a e0       	ldi	r24, 0x0A	; 10
    1d1c:	90 e0       	ldi	r25, 0x00	; 0
    1d1e:	63 e0       	ldi	r22, 0x03	; 3
    1d20:	70 e0       	ldi	r23, 0x00	; 0
    1d22:	4b ef       	ldi	r20, 0xFB	; 251
    1d24:	5f ef       	ldi	r21, 0xFF	; 255
    1d26:	25 e0       	ldi	r18, 0x05	; 5
    1d28:	30 e0       	ldi	r19, 0x00	; 0
    1d2a:	aa 24       	eor	r10, r10
    1d2c:	bb 24       	eor	r11, r11
    1d2e:	0e 94 45 29 	call	0x528a	; 0x528a <CPsd>
	CPsd(3,3,-1000,5,15,22,40,0);
    1d32:	83 e0       	ldi	r24, 0x03	; 3
    1d34:	90 e0       	ldi	r25, 0x00	; 0
    1d36:	63 e0       	ldi	r22, 0x03	; 3
    1d38:	70 e0       	ldi	r23, 0x00	; 0
    1d3a:	48 e1       	ldi	r20, 0x18	; 24
    1d3c:	5c ef       	ldi	r21, 0xFC	; 252
    1d3e:	25 e0       	ldi	r18, 0x05	; 5
    1d40:	30 e0       	ldi	r19, 0x00	; 0
    1d42:	e6 e1       	ldi	r30, 0x16	; 22
    1d44:	ee 2e       	mov	r14, r30
    1d46:	f1 2c       	mov	r15, r1
    1d48:	0e 94 45 29 	call	0x528a	; 0x528a <CPsd>
	SS();
    1d4c:	0e 94 a6 1d 	call	0x3b4c	; 0x3b4c <SS>
    1d50:	a0 c1       	rjmp	.+832    	; 0x2092 <__stack+0xf93>
}

else{

case -6:
	ar ab645(30);
    1d52:	60 92 3c 02 	sts	0x023C, r6
    1d56:	70 92 3d 02 	sts	0x023D, r7
    1d5a:	80 92 3e 02 	sts	0x023E, r8
    1d5e:	90 92 3f 02 	sts	0x023F, r9
    1d62:	60 92 22 02 	sts	0x0222, r6
    1d66:	70 92 23 02 	sts	0x0223, r7
    1d6a:	80 92 24 02 	sts	0x0224, r8
    1d6e:	90 92 25 02 	sts	0x0225, r9
    1d72:	50 92 5f 02 	sts	0x025F, r5
    1d76:	40 92 5e 02 	sts	0x025E, r4
    1d7a:	86 e0       	ldi	r24, 0x06	; 6
    1d7c:	90 e0       	ldi	r25, 0x00	; 0
    1d7e:	66 e9       	ldi	r22, 0x96	; 150
    1d80:	70 e0       	ldi	r23, 0x00	; 0
    1d82:	44 e0       	ldi	r20, 0x04	; 4
    1d84:	50 e0       	ldi	r21, 0x00	; 0
    1d86:	24 ec       	ldi	r18, 0xC4	; 196
    1d88:	30 e0       	ldi	r19, 0x00	; 0
    1d8a:	05 e0       	ldi	r16, 0x05	; 5
    1d8c:	10 e0       	ldi	r17, 0x00	; 0
    1d8e:	ba ea       	ldi	r27, 0xAA	; 170
    1d90:	eb 2e       	mov	r14, r27
    1d92:	f1 2c       	mov	r15, r1
    1d94:	ae e1       	ldi	r26, 0x1E	; 30
    1d96:	ca 2e       	mov	r12, r26
    1d98:	d1 2c       	mov	r13, r1
    1d9a:	fe e1       	ldi	r31, 0x1E	; 30
    1d9c:	af 2e       	mov	r10, r31
    1d9e:	b1 2c       	mov	r11, r1
    1da0:	0e 94 42 38 	call	0x7084	; 0x7084 <AB>
    1da4:	10 92 5f 02 	sts	0x025F, r1
    1da8:	10 92 5e 02 	sts	0x025E, r1

	At(-70,100);	wa= -70;
    1dac:	60 e0       	ldi	r22, 0x00	; 0
    1dae:	70 e0       	ldi	r23, 0x00	; 0
    1db0:	8c e8       	ldi	r24, 0x8C	; 140
    1db2:	92 ec       	ldi	r25, 0xC2	; 194
    1db4:	44 e6       	ldi	r20, 0x64	; 100
    1db6:	50 e0       	ldi	r21, 0x00	; 0
    1db8:	0e 94 d9 31 	call	0x63b2	; 0x63b2 <At>
    1dbc:	ca eb       	ldi	r28, 0xBA	; 186
    1dbe:	df ef       	ldi	r29, 0xFF	; 255
    1dc0:	d0 93 5f 02 	sts	0x025F, r29
    1dc4:	c0 93 5e 02 	sts	0x025E, r28
	Drift(0,10,-20,30,40);	wa= -90;
    1dc8:	80 e0       	ldi	r24, 0x00	; 0
    1dca:	90 e0       	ldi	r25, 0x00	; 0
    1dcc:	6a e0       	ldi	r22, 0x0A	; 10
    1dce:	70 e0       	ldi	r23, 0x00	; 0
    1dd0:	4c ee       	ldi	r20, 0xEC	; 236
    1dd2:	5f ef       	ldi	r21, 0xFF	; 255
    1dd4:	2e e1       	ldi	r18, 0x1E	; 30
    1dd6:	30 e0       	ldi	r19, 0x00	; 0
    1dd8:	08 e2       	ldi	r16, 0x28	; 40
    1dda:	10 e0       	ldi	r17, 0x00	; 0
    1ddc:	0e 94 7b 2c 	call	0x58f6	; 0x58f6 <Drift>
    1de0:	c6 ea       	ldi	r28, 0xA6	; 166
    1de2:	df ef       	ldi	r29, 0xFF	; 255
    1de4:	d0 93 5f 02 	sts	0x025F, r29
    1de8:	c0 93 5e 02 	sts	0x025E, r28
	Ot(8,-90,0,30,0);	cw	
    1dec:	88 e0       	ldi	r24, 0x08	; 8
    1dee:	90 e0       	ldi	r25, 0x00	; 0
    1df0:	66 ea       	ldi	r22, 0xA6	; 166
    1df2:	7f ef       	ldi	r23, 0xFF	; 255
    1df4:	40 e0       	ldi	r20, 0x00	; 0
    1df6:	50 e0       	ldi	r21, 0x00	; 0
    1df8:	2e e1       	ldi	r18, 0x1E	; 30
    1dfa:	30 e0       	ldi	r19, 0x00	; 0
    1dfc:	00 e0       	ldi	r16, 0x00	; 0
    1dfe:	10 e0       	ldi	r17, 0x00	; 0
    1e00:	0e 94 fb 2f 	call	0x5ff6	; 0x5ff6 <Ot>
    1e04:	10 92 5f 02 	sts	0x025F, r1
    1e08:	10 92 5e 02 	sts	0x025E, r1

	CPsd(12,8,5,3,16,0,50,0);
    1e0c:	8c e0       	ldi	r24, 0x0C	; 12
    1e0e:	90 e0       	ldi	r25, 0x00	; 0
    1e10:	68 e0       	ldi	r22, 0x08	; 8
    1e12:	70 e0       	ldi	r23, 0x00	; 0
    1e14:	45 e0       	ldi	r20, 0x05	; 5
    1e16:	50 e0       	ldi	r21, 0x00	; 0
    1e18:	23 e0       	ldi	r18, 0x03	; 3
    1e1a:	30 e0       	ldi	r19, 0x00	; 0
    1e1c:	00 e1       	ldi	r16, 0x10	; 16
    1e1e:	10 e0       	ldi	r17, 0x00	; 0
    1e20:	ee 24       	eor	r14, r14
    1e22:	ff 24       	eor	r15, r15
    1e24:	e2 e3       	ldi	r30, 0x32	; 50
    1e26:	ce 2e       	mov	r12, r30
    1e28:	d1 2c       	mov	r13, r1
    1e2a:	aa 24       	eor	r10, r10
    1e2c:	bb 24       	eor	r11, r11
    1e2e:	0e 94 45 29 	call	0x528a	; 0x528a <CPsd>
	CPsd(10,8,5,5,16,0,50,0);
    1e32:	8a e0       	ldi	r24, 0x0A	; 10
    1e34:	90 e0       	ldi	r25, 0x00	; 0
    1e36:	68 e0       	ldi	r22, 0x08	; 8
    1e38:	70 e0       	ldi	r23, 0x00	; 0
    1e3a:	45 e0       	ldi	r20, 0x05	; 5
    1e3c:	50 e0       	ldi	r21, 0x00	; 0
    1e3e:	25 e0       	ldi	r18, 0x05	; 5
    1e40:	30 e0       	ldi	r19, 0x00	; 0
    1e42:	0e 94 45 29 	call	0x528a	; 0x528a <CPsd>
	CPsd(8,8,1000,3,16,25,50,0);
    1e46:	88 e0       	ldi	r24, 0x08	; 8
    1e48:	90 e0       	ldi	r25, 0x00	; 0
    1e4a:	68 e0       	ldi	r22, 0x08	; 8
    1e4c:	70 e0       	ldi	r23, 0x00	; 0
    1e4e:	48 ee       	ldi	r20, 0xE8	; 232
    1e50:	53 e0       	ldi	r21, 0x03	; 3
    1e52:	23 e0       	ldi	r18, 0x03	; 3
    1e54:	30 e0       	ldi	r19, 0x00	; 0
    1e56:	b9 e1       	ldi	r27, 0x19	; 25
    1e58:	eb 2e       	mov	r14, r27
    1e5a:	f1 2c       	mov	r15, r1
    1e5c:	0e 94 45 29 	call	0x528a	; 0x528a <CPsd>

	Drift(2,34,-90,40,0);	wa=  -90;
    1e60:	82 e0       	ldi	r24, 0x02	; 2
    1e62:	90 e0       	ldi	r25, 0x00	; 0
    1e64:	62 e2       	ldi	r22, 0x22	; 34
    1e66:	70 e0       	ldi	r23, 0x00	; 0
    1e68:	46 ea       	ldi	r20, 0xA6	; 166
    1e6a:	5f ef       	ldi	r21, 0xFF	; 255
    1e6c:	28 e2       	ldi	r18, 0x28	; 40
    1e6e:	30 e0       	ldi	r19, 0x00	; 0
    1e70:	00 e0       	ldi	r16, 0x00	; 0
    1e72:	10 e0       	ldi	r17, 0x00	; 0
    1e74:	0e 94 7b 2c 	call	0x58f6	; 0x58f6 <Drift>
    1e78:	d0 93 5f 02 	sts	0x025F, r29
    1e7c:	c0 93 5e 02 	sts	0x025E, r28
	Ot(8,-90,0,40,0);	cw
    1e80:	88 e0       	ldi	r24, 0x08	; 8
    1e82:	90 e0       	ldi	r25, 0x00	; 0
    1e84:	66 ea       	ldi	r22, 0xA6	; 166
    1e86:	7f ef       	ldi	r23, 0xFF	; 255
    1e88:	40 e0       	ldi	r20, 0x00	; 0
    1e8a:	50 e0       	ldi	r21, 0x00	; 0
    1e8c:	28 e2       	ldi	r18, 0x28	; 40
    1e8e:	30 e0       	ldi	r19, 0x00	; 0
    1e90:	0e 94 fb 2f 	call	0x5ff6	; 0x5ff6 <Ot>
    1e94:	10 92 5f 02 	sts	0x025F, r1
    1e98:	10 92 5e 02 	sts	0x025E, r1

	CPsd(12,8,5,3,16,0,50,0);
    1e9c:	8c e0       	ldi	r24, 0x0C	; 12
    1e9e:	90 e0       	ldi	r25, 0x00	; 0
    1ea0:	68 e0       	ldi	r22, 0x08	; 8
    1ea2:	70 e0       	ldi	r23, 0x00	; 0
    1ea4:	45 e0       	ldi	r20, 0x05	; 5
    1ea6:	50 e0       	ldi	r21, 0x00	; 0
    1ea8:	23 e0       	ldi	r18, 0x03	; 3
    1eaa:	30 e0       	ldi	r19, 0x00	; 0
    1eac:	00 e1       	ldi	r16, 0x10	; 16
    1eae:	10 e0       	ldi	r17, 0x00	; 0
    1eb0:	ee 24       	eor	r14, r14
    1eb2:	ff 24       	eor	r15, r15
    1eb4:	0e 94 45 29 	call	0x528a	; 0x528a <CPsd>
	CPsd(10,8,5,5,16,0,50,0);
    1eb8:	8a e0       	ldi	r24, 0x0A	; 10
    1eba:	90 e0       	ldi	r25, 0x00	; 0
    1ebc:	68 e0       	ldi	r22, 0x08	; 8
    1ebe:	70 e0       	ldi	r23, 0x00	; 0
    1ec0:	45 e0       	ldi	r20, 0x05	; 5
    1ec2:	50 e0       	ldi	r21, 0x00	; 0
    1ec4:	25 e0       	ldi	r18, 0x05	; 5
    1ec6:	30 e0       	ldi	r19, 0x00	; 0
    1ec8:	0e 94 45 29 	call	0x528a	; 0x528a <CPsd>
	CPsd(8,8,1000,3,16,25,50,0);
    1ecc:	88 e0       	ldi	r24, 0x08	; 8
    1ece:	90 e0       	ldi	r25, 0x00	; 0
    1ed0:	68 e0       	ldi	r22, 0x08	; 8
    1ed2:	70 e0       	ldi	r23, 0x00	; 0
    1ed4:	48 ee       	ldi	r20, 0xE8	; 232
    1ed6:	53 e0       	ldi	r21, 0x03	; 3
    1ed8:	23 e0       	ldi	r18, 0x03	; 3
    1eda:	30 e0       	ldi	r19, 0x00	; 0
    1edc:	a9 e1       	ldi	r26, 0x19	; 25
    1ede:	ea 2e       	mov	r14, r26
    1ee0:	f1 2c       	mov	r15, r1
    1ee2:	0e 94 45 29 	call	0x528a	; 0x528a <CPsd>

	Drift(0,24,-30,40,0);	wa= -30;
    1ee6:	80 e0       	ldi	r24, 0x00	; 0
    1ee8:	90 e0       	ldi	r25, 0x00	; 0
    1eea:	68 e1       	ldi	r22, 0x18	; 24
    1eec:	70 e0       	ldi	r23, 0x00	; 0
    1eee:	42 ee       	ldi	r20, 0xE2	; 226
    1ef0:	5f ef       	ldi	r21, 0xFF	; 255
    1ef2:	28 e2       	ldi	r18, 0x28	; 40
    1ef4:	30 e0       	ldi	r19, 0x00	; 0
    1ef6:	00 e0       	ldi	r16, 0x00	; 0
    1ef8:	10 e0       	ldi	r17, 0x00	; 0
    1efa:	0e 94 7b 2c 	call	0x58f6	; 0x58f6 <Drift>
    1efe:	82 ee       	ldi	r24, 0xE2	; 226
    1f00:	9f ef       	ldi	r25, 0xFF	; 255
    1f02:	90 93 5f 02 	sts	0x025F, r25
    1f06:	80 93 5e 02 	sts	0x025E, r24
	Ot(20,-90,10,35,0);	wa= 70;
    1f0a:	84 e1       	ldi	r24, 0x14	; 20
    1f0c:	90 e0       	ldi	r25, 0x00	; 0
    1f0e:	66 ea       	ldi	r22, 0xA6	; 166
    1f10:	7f ef       	ldi	r23, 0xFF	; 255
    1f12:	4a e0       	ldi	r20, 0x0A	; 10
    1f14:	50 e0       	ldi	r21, 0x00	; 0
    1f16:	23 e2       	ldi	r18, 0x23	; 35
    1f18:	30 e0       	ldi	r19, 0x00	; 0
    1f1a:	0e 94 fb 2f 	call	0x5ff6	; 0x5ff6 <Ot>
    1f1e:	e6 e4       	ldi	r30, 0x46	; 70
    1f20:	f0 e0       	ldi	r31, 0x00	; 0
    1f22:	f0 93 5f 02 	sts	0x025F, r31
    1f26:	e0 93 5e 02 	sts	0x025E, r30
	Ot(10,90,0,35,0);	wa = -20;
    1f2a:	8a e0       	ldi	r24, 0x0A	; 10
    1f2c:	90 e0       	ldi	r25, 0x00	; 0
    1f2e:	6a e5       	ldi	r22, 0x5A	; 90
    1f30:	70 e0       	ldi	r23, 0x00	; 0
    1f32:	40 e0       	ldi	r20, 0x00	; 0
    1f34:	50 e0       	ldi	r21, 0x00	; 0
    1f36:	23 e2       	ldi	r18, 0x23	; 35
    1f38:	30 e0       	ldi	r19, 0x00	; 0
    1f3a:	0e 94 fb 2f 	call	0x5ff6	; 0x5ff6 <Ot>
    1f3e:	2c ee       	ldi	r18, 0xEC	; 236
    1f40:	3f ef       	ldi	r19, 0xFF	; 255
    1f42:	30 93 5f 02 	sts	0x025F, r19
    1f46:	20 93 5e 02 	sts	0x025E, r18
	Drift(1,35,-70,30,0);	cw
    1f4a:	81 e0       	ldi	r24, 0x01	; 1
    1f4c:	90 e0       	ldi	r25, 0x00	; 0
    1f4e:	63 e2       	ldi	r22, 0x23	; 35
    1f50:	70 e0       	ldi	r23, 0x00	; 0
    1f52:	4a eb       	ldi	r20, 0xBA	; 186
    1f54:	5f ef       	ldi	r21, 0xFF	; 255
    1f56:	2e e1       	ldi	r18, 0x1E	; 30
    1f58:	30 e0       	ldi	r19, 0x00	; 0
    1f5a:	0e 94 7b 2c 	call	0x58f6	; 0x58f6 <Drift>
    1f5e:	10 92 5f 02 	sts	0x025F, r1
    1f62:	10 92 5e 02 	sts	0x025E, r1

	CPsd(12,1,3,3,11,0,40,50);
    1f66:	8c e0       	ldi	r24, 0x0C	; 12
    1f68:	90 e0       	ldi	r25, 0x00	; 0
    1f6a:	61 e0       	ldi	r22, 0x01	; 1
    1f6c:	70 e0       	ldi	r23, 0x00	; 0
    1f6e:	43 e0       	ldi	r20, 0x03	; 3
    1f70:	50 e0       	ldi	r21, 0x00	; 0
    1f72:	23 e0       	ldi	r18, 0x03	; 3
    1f74:	30 e0       	ldi	r19, 0x00	; 0
    1f76:	0b e0       	ldi	r16, 0x0B	; 11
    1f78:	10 e0       	ldi	r17, 0x00	; 0
    1f7a:	ee 24       	eor	r14, r14
    1f7c:	ff 24       	eor	r15, r15
    1f7e:	f8 e2       	ldi	r31, 0x28	; 40
    1f80:	cf 2e       	mov	r12, r31
    1f82:	d1 2c       	mov	r13, r1
    1f84:	e2 e3       	ldi	r30, 0x32	; 50
    1f86:	ae 2e       	mov	r10, r30
    1f88:	b1 2c       	mov	r11, r1
    1f8a:	0e 94 45 29 	call	0x528a	; 0x528a <CPsd>
	CPsd(10,1,5,5,11,0,40,0);
    1f8e:	8a e0       	ldi	r24, 0x0A	; 10
    1f90:	90 e0       	ldi	r25, 0x00	; 0
    1f92:	61 e0       	ldi	r22, 0x01	; 1
    1f94:	70 e0       	ldi	r23, 0x00	; 0
    1f96:	45 e0       	ldi	r20, 0x05	; 5
    1f98:	50 e0       	ldi	r21, 0x00	; 0
    1f9a:	25 e0       	ldi	r18, 0x05	; 5
    1f9c:	30 e0       	ldi	r19, 0x00	; 0
    1f9e:	aa 24       	eor	r10, r10
    1fa0:	bb 24       	eor	r11, r11
    1fa2:	0e 94 45 29 	call	0x528a	; 0x528a <CPsd>
	CPsd(1,1,1000,3,11,20,40,0);
    1fa6:	81 e0       	ldi	r24, 0x01	; 1
    1fa8:	90 e0       	ldi	r25, 0x00	; 0
    1faa:	61 e0       	ldi	r22, 0x01	; 1
    1fac:	70 e0       	ldi	r23, 0x00	; 0
    1fae:	48 ee       	ldi	r20, 0xE8	; 232
    1fb0:	53 e0       	ldi	r21, 0x03	; 3
    1fb2:	23 e0       	ldi	r18, 0x03	; 3
    1fb4:	30 e0       	ldi	r19, 0x00	; 0
    1fb6:	b4 e1       	ldi	r27, 0x14	; 20
    1fb8:	eb 2e       	mov	r14, r27
    1fba:	f1 2c       	mov	r15, r1
    1fbc:	0e 94 45 29 	call	0x528a	; 0x528a <CPsd>

	Drift(0,30,-80,30,0);	wa= -80;
    1fc0:	80 e0       	ldi	r24, 0x00	; 0
    1fc2:	90 e0       	ldi	r25, 0x00	; 0
    1fc4:	6e e1       	ldi	r22, 0x1E	; 30
    1fc6:	70 e0       	ldi	r23, 0x00	; 0
    1fc8:	40 eb       	ldi	r20, 0xB0	; 176
    1fca:	5f ef       	ldi	r21, 0xFF	; 255
    1fcc:	2e e1       	ldi	r18, 0x1E	; 30
    1fce:	30 e0       	ldi	r19, 0x00	; 0
    1fd0:	00 e0       	ldi	r16, 0x00	; 0
    1fd2:	10 e0       	ldi	r17, 0x00	; 0
    1fd4:	0e 94 7b 2c 	call	0x58f6	; 0x58f6 <Drift>
    1fd8:	40 eb       	ldi	r20, 0xB0	; 176
    1fda:	5f ef       	ldi	r21, 0xFF	; 255
    1fdc:	50 93 5f 02 	sts	0x025F, r21
    1fe0:	40 93 5e 02 	sts	0x025E, r20
	Avoid(2,11,15,12,1000,40,0);	
    1fe4:	82 e0       	ldi	r24, 0x02	; 2
    1fe6:	90 e0       	ldi	r25, 0x00	; 0
    1fe8:	6b e0       	ldi	r22, 0x0B	; 11
    1fea:	70 e0       	ldi	r23, 0x00	; 0
    1fec:	4f e0       	ldi	r20, 0x0F	; 15
    1fee:	50 e0       	ldi	r21, 0x00	; 0
    1ff0:	2c e0       	ldi	r18, 0x0C	; 12
    1ff2:	30 e0       	ldi	r19, 0x00	; 0
    1ff4:	08 ee       	ldi	r16, 0xE8	; 232
    1ff6:	13 e0       	ldi	r17, 0x03	; 3
    1ff8:	a8 e2       	ldi	r26, 0x28	; 40
    1ffa:	ea 2e       	mov	r14, r26
    1ffc:	f1 2c       	mov	r15, r1
    1ffe:	cc 24       	eor	r12, r12
    2000:	dd 24       	eor	r13, r13
    2002:	0e 94 24 36 	call	0x6c48	; 0x6c48 <Avoid>
	Ot(6,90,10,30,0);	wa= 20;
    2006:	86 e0       	ldi	r24, 0x06	; 6
    2008:	90 e0       	ldi	r25, 0x00	; 0
    200a:	6a e5       	ldi	r22, 0x5A	; 90
    200c:	70 e0       	ldi	r23, 0x00	; 0
    200e:	4a e0       	ldi	r20, 0x0A	; 10
    2010:	50 e0       	ldi	r21, 0x00	; 0
    2012:	2e e1       	ldi	r18, 0x1E	; 30
    2014:	30 e0       	ldi	r19, 0x00	; 0
    2016:	00 e0       	ldi	r16, 0x00	; 0
    2018:	10 e0       	ldi	r17, 0x00	; 0
    201a:	0e 94 fb 2f 	call	0x5ff6	; 0x5ff6 <Ot>
    201e:	84 e1       	ldi	r24, 0x14	; 20
    2020:	90 e0       	ldi	r25, 0x00	; 0
    2022:	90 93 5f 02 	sts	0x025F, r25
    2026:	80 93 5e 02 	sts	0x025E, r24
	CPsd(12,5,-3,3,11,0,40,0);
    202a:	8c e0       	ldi	r24, 0x0C	; 12
    202c:	90 e0       	ldi	r25, 0x00	; 0
    202e:	65 e0       	ldi	r22, 0x05	; 5
    2030:	70 e0       	ldi	r23, 0x00	; 0
    2032:	4d ef       	ldi	r20, 0xFD	; 253
    2034:	5f ef       	ldi	r21, 0xFF	; 255
    2036:	23 e0       	ldi	r18, 0x03	; 3
    2038:	30 e0       	ldi	r19, 0x00	; 0
    203a:	0b e0       	ldi	r16, 0x0B	; 11
    203c:	10 e0       	ldi	r17, 0x00	; 0
    203e:	ee 24       	eor	r14, r14
    2040:	ff 24       	eor	r15, r15
    2042:	f8 e2       	ldi	r31, 0x28	; 40
    2044:	cf 2e       	mov	r12, r31
    2046:	d1 2c       	mov	r13, r1
    2048:	0e 94 45 29 	call	0x528a	; 0x528a <CPsd>
	CPsd(10,5,-5,5,11,0,40,0);
    204c:	8a e0       	ldi	r24, 0x0A	; 10
    204e:	90 e0       	ldi	r25, 0x00	; 0
    2050:	65 e0       	ldi	r22, 0x05	; 5
    2052:	70 e0       	ldi	r23, 0x00	; 0
    2054:	4b ef       	ldi	r20, 0xFB	; 251
    2056:	5f ef       	ldi	r21, 0xFF	; 255
    2058:	25 e0       	ldi	r18, 0x05	; 5
    205a:	30 e0       	ldi	r19, 0x00	; 0
    205c:	0e 94 45 29 	call	0x528a	; 0x528a <CPsd>
	CPsd(-4,5,-1000,5,11,20,40,0);
    2060:	8c ef       	ldi	r24, 0xFC	; 252
    2062:	9f ef       	ldi	r25, 0xFF	; 255
    2064:	65 e0       	ldi	r22, 0x05	; 5
    2066:	70 e0       	ldi	r23, 0x00	; 0
    2068:	48 e1       	ldi	r20, 0x18	; 24
    206a:	5c ef       	ldi	r21, 0xFC	; 252
    206c:	25 e0       	ldi	r18, 0x05	; 5
    206e:	30 e0       	ldi	r19, 0x00	; 0
    2070:	e4 e1       	ldi	r30, 0x14	; 20
    2072:	ee 2e       	mov	r14, r30
    2074:	f1 2c       	mov	r15, r1
    2076:	0e 94 45 29 	call	0x528a	; 0x528a <CPsd>
	Axis(0,-15,0,40,-50);
    207a:	80 e0       	ldi	r24, 0x00	; 0
    207c:	90 e0       	ldi	r25, 0x00	; 0
    207e:	61 ef       	ldi	r22, 0xF1	; 241
    2080:	7f ef       	ldi	r23, 0xFF	; 255
    2082:	40 e0       	ldi	r20, 0x00	; 0
    2084:	50 e0       	ldi	r21, 0x00	; 0
    2086:	28 e2       	ldi	r18, 0x28	; 40
    2088:	30 e0       	ldi	r19, 0x00	; 0
    208a:	0e ec       	ldi	r16, 0xCE	; 206
    208c:	1f ef       	ldi	r17, 0xFF	; 255
    208e:	0e 94 01 23 	call	0x4602	; 0x4602 <Axis>
}


while(!SW2);
    2092:	b5 99       	sbic	0x16, 5	; 22
    2094:	fe cf       	rjmp	.-4      	; 0x2092 <__stack+0xf93>
while(SW2);
    2096:	b5 9b       	sbis	0x16, 5	; 22
    2098:	fe cf       	rjmp	.-4      	; 0x2096 <__stack+0xf97>

			}
		}

		if(key){
    209a:	80 91 06 02 	lds	r24, 0x0206
    209e:	90 91 07 02 	lds	r25, 0x0207
    20a2:	00 97       	sbiw	r24, 0x00	; 0
    20a4:	09 f4       	brne	.+2      	; 0x20a8 <__stack+0xfa9>
    20a6:	42 c0       	rjmp	.+132    	; 0x212c <__stack+0x102d>
			lcd(0,0,"%03d %03d %03d %03d %03d",g_psd[2],g_psd[1],g_psd[0],g_psd[8],g_psd[7]);
    20a8:	40 91 2e 02 	lds	r20, 0x022E
    20ac:	30 91 2d 02 	lds	r19, 0x022D
    20b0:	20 91 2c 02 	lds	r18, 0x022C
    20b4:	90 91 34 02 	lds	r25, 0x0234
    20b8:	80 91 33 02 	lds	r24, 0x0233
    20bc:	6d b7       	in	r22, 0x3d	; 61
    20be:	7e b7       	in	r23, 0x3e	; 62
    20c0:	6e 50       	subi	r22, 0x0E	; 14
    20c2:	70 40       	sbci	r23, 0x00	; 0
    20c4:	0f b6       	in	r0, 0x3f	; 63
    20c6:	f8 94       	cli
    20c8:	7e bf       	out	0x3e, r23	; 62
    20ca:	0f be       	out	0x3f, r0	; 63
    20cc:	6d bf       	out	0x3d, r22	; 61
    20ce:	ed b7       	in	r30, 0x3d	; 61
    20d0:	fe b7       	in	r31, 0x3e	; 62
    20d2:	31 96       	adiw	r30, 0x01	; 1
    20d4:	ad b7       	in	r26, 0x3d	; 61
    20d6:	be b7       	in	r27, 0x3e	; 62
    20d8:	12 96       	adiw	r26, 0x02	; 2
    20da:	3c 92       	st	X, r3
    20dc:	2e 92       	st	-X, r2
    20de:	11 97       	sbiw	r26, 0x01	; 1
    20e0:	c0 e0       	ldi	r28, 0x00	; 0
    20e2:	d1 e0       	ldi	r29, 0x01	; 1
    20e4:	d3 83       	std	Z+3, r29	; 0x03
    20e6:	c2 83       	std	Z+2, r28	; 0x02
    20e8:	44 83       	std	Z+4, r20	; 0x04
    20ea:	15 82       	std	Z+5, r1	; 0x05
    20ec:	36 83       	std	Z+6, r19	; 0x06
    20ee:	17 82       	std	Z+7, r1	; 0x07
    20f0:	20 87       	std	Z+8, r18	; 0x08
    20f2:	11 86       	std	Z+9, r1	; 0x09
    20f4:	92 87       	std	Z+10, r25	; 0x0a
    20f6:	13 86       	std	Z+11, r1	; 0x0b
    20f8:	84 87       	std	Z+12, r24	; 0x0c
    20fa:	15 86       	std	Z+13, r1	; 0x0d
    20fc:	0e 94 20 40 	call	0x8040	; 0x8040 <sprintf>
    2100:	ed b7       	in	r30, 0x3d	; 61
    2102:	fe b7       	in	r31, 0x3e	; 62
    2104:	3e 96       	adiw	r30, 0x0e	; 14
    2106:	0f b6       	in	r0, 0x3f	; 63
    2108:	f8 94       	cli
    210a:	fe bf       	out	0x3e, r31	; 62
    210c:	0f be       	out	0x3f, r0	; 63
    210e:	ed bf       	out	0x3d, r30	; 61
    2110:	80 e0       	ldi	r24, 0x00	; 0
    2112:	60 e0       	ldi	r22, 0x00	; 0
    2114:	a1 01       	movw	r20, r2
    2116:	0e 94 67 01 	call	0x2ce	; 0x2ce <LCD>
			lcd(1,0,"%03d %03d      %03d %03d",g_psd[3],g_psd[4],g_psd[5],g_psd[6]);
    211a:	30 91 2f 02 	lds	r19, 0x022F
    211e:	20 91 30 02 	lds	r18, 0x0230
    2122:	90 91 31 02 	lds	r25, 0x0231
    2126:	80 91 32 02 	lds	r24, 0x0232
    212a:	41 c0       	rjmp	.+130    	; 0x21ae <__stack+0x10af>
		}
		else{
			lcd(0,0,"%03d %03d %03d %03d %03d",psd[2],psd[1],psd[0],psd[8],psd[7]);
    212c:	40 91 42 02 	lds	r20, 0x0242
    2130:	30 91 41 02 	lds	r19, 0x0241
    2134:	20 91 40 02 	lds	r18, 0x0240
    2138:	90 91 48 02 	lds	r25, 0x0248
    213c:	80 91 47 02 	lds	r24, 0x0247
    2140:	6d b7       	in	r22, 0x3d	; 61
    2142:	7e b7       	in	r23, 0x3e	; 62
    2144:	6e 50       	subi	r22, 0x0E	; 14
    2146:	70 40       	sbci	r23, 0x00	; 0
    2148:	0f b6       	in	r0, 0x3f	; 63
    214a:	f8 94       	cli
    214c:	7e bf       	out	0x3e, r23	; 62
    214e:	0f be       	out	0x3f, r0	; 63
    2150:	6d bf       	out	0x3d, r22	; 61
    2152:	ed b7       	in	r30, 0x3d	; 61
    2154:	fe b7       	in	r31, 0x3e	; 62
    2156:	31 96       	adiw	r30, 0x01	; 1
    2158:	ad b7       	in	r26, 0x3d	; 61
    215a:	be b7       	in	r27, 0x3e	; 62
    215c:	12 96       	adiw	r26, 0x02	; 2
    215e:	3c 92       	st	X, r3
    2160:	2e 92       	st	-X, r2
    2162:	11 97       	sbiw	r26, 0x01	; 1
    2164:	c0 e0       	ldi	r28, 0x00	; 0
    2166:	d1 e0       	ldi	r29, 0x01	; 1
    2168:	d3 83       	std	Z+3, r29	; 0x03
    216a:	c2 83       	std	Z+2, r28	; 0x02
    216c:	44 83       	std	Z+4, r20	; 0x04
    216e:	15 82       	std	Z+5, r1	; 0x05
    2170:	36 83       	std	Z+6, r19	; 0x06
    2172:	17 82       	std	Z+7, r1	; 0x07
    2174:	20 87       	std	Z+8, r18	; 0x08
    2176:	11 86       	std	Z+9, r1	; 0x09
    2178:	92 87       	std	Z+10, r25	; 0x0a
    217a:	13 86       	std	Z+11, r1	; 0x0b
    217c:	84 87       	std	Z+12, r24	; 0x0c
    217e:	15 86       	std	Z+13, r1	; 0x0d
    2180:	0e 94 20 40 	call	0x8040	; 0x8040 <sprintf>
    2184:	ed b7       	in	r30, 0x3d	; 61
    2186:	fe b7       	in	r31, 0x3e	; 62
    2188:	3e 96       	adiw	r30, 0x0e	; 14
    218a:	0f b6       	in	r0, 0x3f	; 63
    218c:	f8 94       	cli
    218e:	fe bf       	out	0x3e, r31	; 62
    2190:	0f be       	out	0x3f, r0	; 63
    2192:	ed bf       	out	0x3d, r30	; 61
    2194:	80 e0       	ldi	r24, 0x00	; 0
    2196:	60 e0       	ldi	r22, 0x00	; 0
    2198:	a1 01       	movw	r20, r2
    219a:	0e 94 67 01 	call	0x2ce	; 0x2ce <LCD>
			lcd(1,0,"%03d %03d      %03d %03d",psd[3],psd[4],psd[5],psd[6]);
    219e:	30 91 43 02 	lds	r19, 0x0243
    21a2:	20 91 44 02 	lds	r18, 0x0244
    21a6:	90 91 45 02 	lds	r25, 0x0245
    21aa:	80 91 46 02 	lds	r24, 0x0246
    21ae:	4d b7       	in	r20, 0x3d	; 61
    21b0:	5e b7       	in	r21, 0x3e	; 62
    21b2:	4c 50       	subi	r20, 0x0C	; 12
    21b4:	50 40       	sbci	r21, 0x00	; 0
    21b6:	0f b6       	in	r0, 0x3f	; 63
    21b8:	f8 94       	cli
    21ba:	5e bf       	out	0x3e, r21	; 62
    21bc:	0f be       	out	0x3f, r0	; 63
    21be:	4d bf       	out	0x3d, r20	; 61
    21c0:	ed b7       	in	r30, 0x3d	; 61
    21c2:	fe b7       	in	r31, 0x3e	; 62
    21c4:	31 96       	adiw	r30, 0x01	; 1
    21c6:	ad b7       	in	r26, 0x3d	; 61
    21c8:	be b7       	in	r27, 0x3e	; 62
    21ca:	12 96       	adiw	r26, 0x02	; 2
    21cc:	3c 92       	st	X, r3
    21ce:	2e 92       	st	-X, r2
    21d0:	11 97       	sbiw	r26, 0x01	; 1
    21d2:	c9 e1       	ldi	r28, 0x19	; 25
    21d4:	d1 e0       	ldi	r29, 0x01	; 1
    21d6:	d3 83       	std	Z+3, r29	; 0x03
    21d8:	c2 83       	std	Z+2, r28	; 0x02
    21da:	34 83       	std	Z+4, r19	; 0x04
    21dc:	15 82       	std	Z+5, r1	; 0x05
    21de:	26 83       	std	Z+6, r18	; 0x06
    21e0:	17 82       	std	Z+7, r1	; 0x07
    21e2:	90 87       	std	Z+8, r25	; 0x08
    21e4:	11 86       	std	Z+9, r1	; 0x09
    21e6:	82 87       	std	Z+10, r24	; 0x0a
    21e8:	13 86       	std	Z+11, r1	; 0x0b
    21ea:	0e 94 20 40 	call	0x8040	; 0x8040 <sprintf>
    21ee:	ed b7       	in	r30, 0x3d	; 61
    21f0:	fe b7       	in	r31, 0x3e	; 62
    21f2:	3c 96       	adiw	r30, 0x0c	; 12
    21f4:	0f b6       	in	r0, 0x3f	; 63
    21f6:	f8 94       	cli
    21f8:	fe bf       	out	0x3e, r31	; 62
    21fa:	0f be       	out	0x3f, r0	; 63
    21fc:	ed bf       	out	0x3d, r30	; 61
    21fe:	81 e0       	ldi	r24, 0x01	; 1
    2200:	60 e0       	ldi	r22, 0x00	; 0
    2202:	a1 01       	movw	r20, r2
    2204:	0e 94 67 01 	call	0x2ce	; 0x2ce <LCD>
		}
		key_puck = abs(key) %9;
    2208:	80 91 06 02 	lds	r24, 0x0206
    220c:	90 91 07 02 	lds	r25, 0x0207
    2210:	97 ff       	sbrs	r25, 7
    2212:	03 c0       	rjmp	.+6      	; 0x221a <__stack+0x111b>
    2214:	90 95       	com	r25
    2216:	81 95       	neg	r24
    2218:	9f 4f       	sbci	r25, 0xFF	; 255
    221a:	69 e0       	ldi	r22, 0x09	; 9
    221c:	70 e0       	ldi	r23, 0x00	; 0
    221e:	0e 94 cc 46 	call	0x8d98	; 0x8d98 <__divmodhi4>
    2222:	90 93 09 02 	sts	0x0209, r25
    2226:	80 93 08 02 	sts	0x0208, r24

		get_gyro();
    222a:	0e 94 4e 15 	call	0x2a9c	; 0x2a9c <get_gyro>
		lcd(2,0,"C%d X%3d Y%3d S%2d",key_puck,Cmd(key_puck,102),Cmd(key_puck,103),Cmd(key_puck,104));		
    222e:	80 91 08 02 	lds	r24, 0x0208
    2232:	66 e6       	ldi	r22, 0x66	; 102
    2234:	0e 94 26 3f 	call	0x7e4c	; 0x7e4c <Cmd>
    2238:	e8 2e       	mov	r14, r24
    223a:	80 91 08 02 	lds	r24, 0x0208
    223e:	67 e6       	ldi	r22, 0x67	; 103
    2240:	0e 94 26 3f 	call	0x7e4c	; 0x7e4c <Cmd>
    2244:	08 2f       	mov	r16, r24
    2246:	10 91 08 02 	lds	r17, 0x0208
    224a:	c0 90 09 02 	lds	r12, 0x0209
    224e:	81 2f       	mov	r24, r17
    2250:	68 e6       	ldi	r22, 0x68	; 104
    2252:	0e 94 26 3f 	call	0x7e4c	; 0x7e4c <Cmd>
    2256:	2d b7       	in	r18, 0x3d	; 61
    2258:	3e b7       	in	r19, 0x3e	; 62
    225a:	2c 50       	subi	r18, 0x0C	; 12
    225c:	30 40       	sbci	r19, 0x00	; 0
    225e:	0f b6       	in	r0, 0x3f	; 63
    2260:	f8 94       	cli
    2262:	3e bf       	out	0x3e, r19	; 62
    2264:	0f be       	out	0x3f, r0	; 63
    2266:	2d bf       	out	0x3d, r18	; 61
    2268:	ed b7       	in	r30, 0x3d	; 61
    226a:	fe b7       	in	r31, 0x3e	; 62
    226c:	31 96       	adiw	r30, 0x01	; 1
    226e:	ad b7       	in	r26, 0x3d	; 61
    2270:	be b7       	in	r27, 0x3e	; 62
    2272:	12 96       	adiw	r26, 0x02	; 2
    2274:	3c 92       	st	X, r3
    2276:	2e 92       	st	-X, r2
    2278:	11 97       	sbiw	r26, 0x01	; 1
    227a:	c2 e3       	ldi	r28, 0x32	; 50
    227c:	d1 e0       	ldi	r29, 0x01	; 1
    227e:	d3 83       	std	Z+3, r29	; 0x03
    2280:	c2 83       	std	Z+2, r28	; 0x02
    2282:	14 83       	std	Z+4, r17	; 0x04
    2284:	c5 82       	std	Z+5, r12	; 0x05
    2286:	e6 82       	std	Z+6, r14	; 0x06
    2288:	17 82       	std	Z+7, r1	; 0x07
    228a:	00 87       	std	Z+8, r16	; 0x08
    228c:	11 86       	std	Z+9, r1	; 0x09
    228e:	82 87       	std	Z+10, r24	; 0x0a
    2290:	13 86       	std	Z+11, r1	; 0x0b
    2292:	0e 94 20 40 	call	0x8040	; 0x8040 <sprintf>
    2296:	ed b7       	in	r30, 0x3d	; 61
    2298:	fe b7       	in	r31, 0x3e	; 62
    229a:	3c 96       	adiw	r30, 0x0c	; 12
    229c:	0f b6       	in	r0, 0x3f	; 63
    229e:	f8 94       	cli
    22a0:	fe bf       	out	0x3e, r31	; 62
    22a2:	0f be       	out	0x3f, r0	; 63
    22a4:	ed bf       	out	0x3d, r30	; 61
    22a6:	82 e0       	ldi	r24, 0x02	; 2
    22a8:	60 e0       	ldi	r22, 0x00	; 0
    22aa:	a1 01       	movw	r20, r2
    22ac:	0e 94 67 01 	call	0x2ce	; 0x2ce <LCD>
		lcd(3,0,"%d%d%d%d%d|%d%d G%04d",IR_4,IR_1,IR_2,IR_3,IR_5,IND_1,IND_2, (int)gyro);
    22b0:	20 91 8f 02 	lds	r18, 0x028F
    22b4:	30 91 90 02 	lds	r19, 0x0290
    22b8:	40 91 91 02 	lds	r20, 0x0291
    22bc:	50 91 92 02 	lds	r21, 0x0292
    22c0:	a0 90 8d 02 	lds	r10, 0x028D
    22c4:	b0 90 8e 02 	lds	r11, 0x028E
    22c8:	a0 91 47 03 	lds	r26, 0x0347
    22cc:	b0 91 48 03 	lds	r27, 0x0348
    22d0:	00 91 1b 03 	lds	r16, 0x031B
    22d4:	10 91 1c 03 	lds	r17, 0x031C
    22d8:	e0 90 97 02 	lds	r14, 0x0297
    22dc:	f0 90 98 02 	lds	r15, 0x0298
    22e0:	c0 90 8b 02 	lds	r12, 0x028B
    22e4:	d0 90 8c 02 	lds	r13, 0x028C
    22e8:	60 91 7e 02 	lds	r22, 0x027E
    22ec:	70 91 7f 02 	lds	r23, 0x027F
    22f0:	80 91 80 02 	lds	r24, 0x0280
    22f4:	90 91 81 02 	lds	r25, 0x0281
    22f8:	cd b7       	in	r28, 0x3d	; 61
    22fa:	de b7       	in	r29, 0x3e	; 62
    22fc:	64 97       	sbiw	r28, 0x14	; 20
    22fe:	0f b6       	in	r0, 0x3f	; 63
    2300:	f8 94       	cli
    2302:	de bf       	out	0x3e, r29	; 62
    2304:	0f be       	out	0x3f, r0	; 63
    2306:	cd bf       	out	0x3d, r28	; 61
    2308:	21 96       	adiw	r28, 0x01	; 1
    230a:	ed b7       	in	r30, 0x3d	; 61
    230c:	fe b7       	in	r31, 0x3e	; 62
    230e:	32 82       	std	Z+2, r3	; 0x02
    2310:	21 82       	std	Z+1, r2	; 0x01
    2312:	e5 e4       	ldi	r30, 0x45	; 69
    2314:	f1 e0       	ldi	r31, 0x01	; 1
    2316:	fb 83       	std	Y+3, r31	; 0x03
    2318:	ea 83       	std	Y+2, r30	; 0x02
    231a:	3d 83       	std	Y+5, r19	; 0x05
    231c:	2c 83       	std	Y+4, r18	; 0x04
    231e:	5f 83       	std	Y+7, r21	; 0x07
    2320:	4e 83       	std	Y+6, r20	; 0x06
    2322:	b9 86       	std	Y+9, r11	; 0x09
    2324:	a8 86       	std	Y+8, r10	; 0x08
    2326:	bb 87       	std	Y+11, r27	; 0x0b
    2328:	aa 87       	std	Y+10, r26	; 0x0a
    232a:	1d 87       	std	Y+13, r17	; 0x0d
    232c:	0c 87       	std	Y+12, r16	; 0x0c
    232e:	ff 86       	std	Y+15, r15	; 0x0f
    2330:	ee 86       	std	Y+14, r14	; 0x0e
    2332:	d9 8a       	std	Y+17, r13	; 0x11
    2334:	c8 8a       	std	Y+16, r12	; 0x10
    2336:	0e 94 37 41 	call	0x826e	; 0x826e <__fixsfsi>
    233a:	7b 8b       	std	Y+19, r23	; 0x13
    233c:	6a 8b       	std	Y+18, r22	; 0x12
    233e:	0e 94 20 40 	call	0x8040	; 0x8040 <sprintf>
    2342:	2d b7       	in	r18, 0x3d	; 61
    2344:	3e b7       	in	r19, 0x3e	; 62
    2346:	2c 5e       	subi	r18, 0xEC	; 236
    2348:	3f 4f       	sbci	r19, 0xFF	; 255
    234a:	0f b6       	in	r0, 0x3f	; 63
    234c:	f8 94       	cli
    234e:	3e bf       	out	0x3e, r19	; 62
    2350:	0f be       	out	0x3f, r0	; 63
    2352:	2d bf       	out	0x3d, r18	; 61
    2354:	83 e0       	ldi	r24, 0x03	; 3
    2356:	60 e0       	ldi	r22, 0x00	; 0
    2358:	a1 01       	movw	r20, r2
    235a:	0e 94 67 01 	call	0x2ce	; 0x2ce <LCD>
		lcd(3,16,"k:%02d",key);
    235e:	00 d0       	rcall	.+0      	; 0x2360 <__stack+0x1261>
    2360:	00 d0       	rcall	.+0      	; 0x2362 <__stack+0x1263>
    2362:	00 d0       	rcall	.+0      	; 0x2364 <__stack+0x1265>
    2364:	ed b7       	in	r30, 0x3d	; 61
    2366:	fe b7       	in	r31, 0x3e	; 62
    2368:	31 96       	adiw	r30, 0x01	; 1
    236a:	ad b7       	in	r26, 0x3d	; 61
    236c:	be b7       	in	r27, 0x3e	; 62
    236e:	12 96       	adiw	r26, 0x02	; 2
    2370:	3c 92       	st	X, r3
    2372:	2e 92       	st	-X, r2
    2374:	11 97       	sbiw	r26, 0x01	; 1
    2376:	cb e5       	ldi	r28, 0x5B	; 91
    2378:	d1 e0       	ldi	r29, 0x01	; 1
    237a:	d3 83       	std	Z+3, r29	; 0x03
    237c:	c2 83       	std	Z+2, r28	; 0x02
    237e:	80 91 06 02 	lds	r24, 0x0206
    2382:	90 91 07 02 	lds	r25, 0x0207
    2386:	95 83       	std	Z+5, r25	; 0x05
    2388:	84 83       	std	Z+4, r24	; 0x04
    238a:	0e 94 20 40 	call	0x8040	; 0x8040 <sprintf>
    238e:	ed b7       	in	r30, 0x3d	; 61
    2390:	fe b7       	in	r31, 0x3e	; 62
    2392:	36 96       	adiw	r30, 0x06	; 6
    2394:	0f b6       	in	r0, 0x3f	; 63
    2396:	f8 94       	cli
    2398:	fe bf       	out	0x3e, r31	; 62
    239a:	0f be       	out	0x3f, r0	; 63
    239c:	ed bf       	out	0x3d, r30	; 61
    239e:	83 e0       	ldi	r24, 0x03	; 3
    23a0:	60 e1       	ldi	r22, 0x10	; 16
    23a2:	a1 01       	movw	r20, r2
    23a4:	0e 94 67 01 	call	0x2ce	; 0x2ce <LCD>
	}
    23a8:	0c 94 c5 02 	jmp	0x58a	; 0x58a <main+0x134>

000023ac <ReadData>:
    23ac:	90 e0       	ldi	r25, 0x00	; 0
    23ae:	fc 01       	movw	r30, r24
    23b0:	b0 96       	adiw	r30, 0x20	; 32
    23b2:	fe 2f       	mov	r31, r30
    23b4:	ee 27       	eor	r30, r30
    23b6:	20 81       	ld	r18, Z
    23b8:	20 93 86 02 	sts	0x0286, r18
    23bc:	20 fd       	sbrc	r18, 0
    23be:	fb cf       	rjmp	.-10     	; 0x23b6 <ReadData+0xa>
    23c0:	88 96       	adiw	r24, 0x28	; 40
    23c2:	b8 2f       	mov	r27, r24
    23c4:	aa 27       	eor	r26, r26
    23c6:	8c 91       	ld	r24, X
    23c8:	90 81       	ld	r25, Z
    23ca:	90 93 86 02 	sts	0x0286, r25
    23ce:	90 fd       	sbrc	r25, 0
    23d0:	fb cf       	rjmp	.-10     	; 0x23c8 <ReadData+0x1c>
    23d2:	08 95       	ret

000023d4 <WriteCommand>:
    23d4:	90 e0       	ldi	r25, 0x00	; 0
    23d6:	80 96       	adiw	r24, 0x20	; 32
    23d8:	f8 2f       	mov	r31, r24
    23da:	ee 27       	eor	r30, r30
    23dc:	80 81       	ld	r24, Z
    23de:	80 93 86 02 	sts	0x0286, r24
    23e2:	80 fd       	sbrc	r24, 0
    23e4:	fb cf       	rjmp	.-10     	; 0x23dc <WriteCommand+0x8>
    23e6:	60 83       	st	Z, r22
    23e8:	80 81       	ld	r24, Z
    23ea:	80 93 86 02 	sts	0x0286, r24
    23ee:	80 fd       	sbrc	r24, 0
    23f0:	fb cf       	rjmp	.-10     	; 0x23e8 <WriteCommand+0x14>
    23f2:	08 95       	ret

000023f4 <StartMotion>:
    23f4:	80 e0       	ldi	r24, 0x00	; 0
    23f6:	61 e0       	ldi	r22, 0x01	; 1
    23f8:	0e 94 ea 11 	call	0x23d4	; 0x23d4 <WriteCommand>
    23fc:	82 e0       	ldi	r24, 0x02	; 2
    23fe:	61 e0       	ldi	r22, 0x01	; 1
    2400:	0e 94 ea 11 	call	0x23d4	; 0x23d4 <WriteCommand>
    2404:	81 e0       	ldi	r24, 0x01	; 1
    2406:	61 e0       	ldi	r22, 0x01	; 1
    2408:	0e 94 ea 11 	call	0x23d4	; 0x23d4 <WriteCommand>
    240c:	08 95       	ret

0000240e <WriteDataTwoByte>:
    240e:	a8 2f       	mov	r26, r24
    2410:	b0 e0       	ldi	r27, 0x00	; 0
    2412:	fd 01       	movw	r30, r26
    2414:	b0 96       	adiw	r30, 0x20	; 32
    2416:	fe 2f       	mov	r31, r30
    2418:	ee 27       	eor	r30, r30
    241a:	80 81       	ld	r24, Z
    241c:	80 93 86 02 	sts	0x0286, r24
    2420:	80 fd       	sbrc	r24, 0
    2422:	fb cf       	rjmp	.-10     	; 0x241a <WriteDataTwoByte+0xc>
    2424:	98 96       	adiw	r26, 0x28	; 40
    2426:	ba 2f       	mov	r27, r26
    2428:	aa 27       	eor	r26, r26
    242a:	87 2f       	mov	r24, r23
    242c:	99 27       	eor	r25, r25
    242e:	87 fd       	sbrc	r24, 7
    2430:	9a 95       	dec	r25
    2432:	8c 93       	st	X, r24
    2434:	80 81       	ld	r24, Z
    2436:	80 93 86 02 	sts	0x0286, r24
    243a:	80 fd       	sbrc	r24, 0
    243c:	fb cf       	rjmp	.-10     	; 0x2434 <WriteDataTwoByte+0x26>
    243e:	6c 93       	st	X, r22
    2440:	80 81       	ld	r24, Z
    2442:	80 93 86 02 	sts	0x0286, r24
    2446:	80 fd       	sbrc	r24, 0
    2448:	fb cf       	rjmp	.-10     	; 0x2440 <WriteDataTwoByte+0x32>
    244a:	08 95       	ret

0000244c <StopMotion>:
    244c:	1f 93       	push	r17
    244e:	cf 93       	push	r28
    2450:	df 93       	push	r29
    2452:	18 2f       	mov	r17, r24
    2454:	80 e0       	ldi	r24, 0x00	; 0
    2456:	6f e1       	ldi	r22, 0x1F	; 31
    2458:	0e 94 ea 11 	call	0x23d4	; 0x23d4 <WriteCommand>
    245c:	c1 e0       	ldi	r28, 0x01	; 1
    245e:	d0 e0       	ldi	r29, 0x00	; 0
    2460:	02 c0       	rjmp	.+4      	; 0x2466 <StopMotion+0x1a>
    2462:	cc 0f       	add	r28, r28
    2464:	dd 1f       	adc	r29, r29
    2466:	1a 95       	dec	r17
    2468:	e2 f7       	brpl	.-8      	; 0x2462 <StopMotion+0x16>
    246a:	80 e0       	ldi	r24, 0x00	; 0
    246c:	be 01       	movw	r22, r28
    246e:	0e 94 07 12 	call	0x240e	; 0x240e <WriteDataTwoByte>
    2472:	81 e0       	ldi	r24, 0x01	; 1
    2474:	6f e1       	ldi	r22, 0x1F	; 31
    2476:	0e 94 ea 11 	call	0x23d4	; 0x23d4 <WriteCommand>
    247a:	81 e0       	ldi	r24, 0x01	; 1
    247c:	be 01       	movw	r22, r28
    247e:	0e 94 07 12 	call	0x240e	; 0x240e <WriteDataTwoByte>
    2482:	82 e0       	ldi	r24, 0x02	; 2
    2484:	6f e1       	ldi	r22, 0x1F	; 31
    2486:	0e 94 ea 11 	call	0x23d4	; 0x23d4 <WriteCommand>
    248a:	82 e0       	ldi	r24, 0x02	; 2
    248c:	be 01       	movw	r22, r28
    248e:	0e 94 07 12 	call	0x240e	; 0x240e <WriteDataTwoByte>
    2492:	80 e0       	ldi	r24, 0x00	; 0
    2494:	61 e0       	ldi	r22, 0x01	; 1
    2496:	0e 94 ea 11 	call	0x23d4	; 0x23d4 <WriteCommand>
    249a:	82 e0       	ldi	r24, 0x02	; 2
    249c:	61 e0       	ldi	r22, 0x01	; 1
    249e:	0e 94 ea 11 	call	0x23d4	; 0x23d4 <WriteCommand>
    24a2:	81 e0       	ldi	r24, 0x01	; 1
    24a4:	61 e0       	ldi	r22, 0x01	; 1
    24a6:	0e 94 ea 11 	call	0x23d4	; 0x23d4 <WriteCommand>
    24aa:	df 91       	pop	r29
    24ac:	cf 91       	pop	r28
    24ae:	1f 91       	pop	r17
    24b0:	08 95       	ret

000024b2 <WriteDataFourByte>:
    24b2:	df 92       	push	r13
    24b4:	ef 92       	push	r14
    24b6:	ff 92       	push	r15
    24b8:	0f 93       	push	r16
    24ba:	1f 93       	push	r17
    24bc:	d8 2e       	mov	r13, r24
    24be:	7a 01       	movw	r14, r20
    24c0:	8b 01       	movw	r16, r22
    24c2:	9b 01       	movw	r18, r22
    24c4:	55 27       	eor	r21, r21
    24c6:	37 fd       	sbrc	r19, 7
    24c8:	50 95       	com	r21
    24ca:	45 2f       	mov	r20, r21
    24cc:	b9 01       	movw	r22, r18
    24ce:	0e 94 07 12 	call	0x240e	; 0x240e <WriteDataTwoByte>
    24d2:	8d 2d       	mov	r24, r13
    24d4:	b7 01       	movw	r22, r14
    24d6:	0e 94 07 12 	call	0x240e	; 0x240e <WriteDataTwoByte>
    24da:	1f 91       	pop	r17
    24dc:	0f 91       	pop	r16
    24de:	ff 90       	pop	r15
    24e0:	ef 90       	pop	r14
    24e2:	df 90       	pop	r13
    24e4:	08 95       	ret

000024e6 <Motor_Reset>:
    24e6:	1f 93       	push	r17
    24e8:	18 2f       	mov	r17, r24
    24ea:	60 e0       	ldi	r22, 0x00	; 0
    24ec:	0e 94 ea 11 	call	0x23d4	; 0x23d4 <WriteCommand>
    24f0:	8c ec       	ldi	r24, 0xCC	; 204
    24f2:	9c e1       	ldi	r25, 0x1C	; 28
    24f4:	01 97       	sbiw	r24, 0x01	; 1
    24f6:	f1 f7       	brne	.-4      	; 0x24f4 <Motor_Reset+0xe>
    24f8:	00 c0       	rjmp	.+0      	; 0x24fa <Motor_Reset+0x14>
    24fa:	00 00       	nop
    24fc:	81 2f       	mov	r24, r17
    24fe:	6d e1       	ldi	r22, 0x1D	; 29
    2500:	0e 94 ea 11 	call	0x23d4	; 0x23d4 <WriteCommand>
    2504:	81 2f       	mov	r24, r17
    2506:	60 e0       	ldi	r22, 0x00	; 0
    2508:	70 e0       	ldi	r23, 0x00	; 0
    250a:	0e 94 07 12 	call	0x240e	; 0x240e <WriteDataTwoByte>
    250e:	1f 91       	pop	r17
    2510:	08 95       	ret

00002512 <SetGain>:
    2512:	af 92       	push	r10
    2514:	bf 92       	push	r11
    2516:	cf 92       	push	r12
    2518:	df 92       	push	r13
    251a:	ef 92       	push	r14
    251c:	ff 92       	push	r15
    251e:	0f 93       	push	r16
    2520:	1f 93       	push	r17
    2522:	cf 93       	push	r28
    2524:	df 93       	push	r29
    2526:	f8 2e       	mov	r15, r24
    2528:	6b 01       	movw	r12, r22
    252a:	ea 01       	movw	r28, r20
    252c:	89 01       	movw	r16, r18
    252e:	aa 24       	eor	r10, r10
    2530:	a3 94       	inc	r10
    2532:	61 15       	cp	r22, r1
    2534:	71 05       	cpc	r23, r1
    2536:	09 f4       	brne	.+2      	; 0x253a <SetGain+0x28>
    2538:	aa 24       	eor	r10, r10
    253a:	bb 24       	eor	r11, r11
    253c:	b3 94       	inc	r11
    253e:	20 97       	sbiw	r28, 0x00	; 0
    2540:	09 f4       	brne	.+2      	; 0x2544 <SetGain+0x32>
    2542:	bb 24       	eor	r11, r11
    2544:	ee 24       	eor	r14, r14
    2546:	e3 94       	inc	r14
    2548:	01 15       	cp	r16, r1
    254a:	11 05       	cpc	r17, r1
    254c:	09 f4       	brne	.+2      	; 0x2550 <SetGain+0x3e>
    254e:	ee 24       	eor	r14, r14
    2550:	8f 2d       	mov	r24, r15
    2552:	6e e1       	ldi	r22, 0x1E	; 30
    2554:	0e 94 ea 11 	call	0x23d4	; 0x23d4 <WriteCommand>
    2558:	6b 2d       	mov	r22, r11
    255a:	70 e0       	ldi	r23, 0x00	; 0
    255c:	66 0f       	add	r22, r22
    255e:	77 1f       	adc	r23, r23
    2560:	66 0f       	add	r22, r22
    2562:	77 1f       	adc	r23, r23
    2564:	8a 2d       	mov	r24, r10
    2566:	90 e0       	ldi	r25, 0x00	; 0
    2568:	43 e0       	ldi	r20, 0x03	; 3
    256a:	88 0f       	add	r24, r24
    256c:	99 1f       	adc	r25, r25
    256e:	4a 95       	dec	r20
    2570:	e1 f7       	brne	.-8      	; 0x256a <SetGain+0x58>
    2572:	68 2b       	or	r22, r24
    2574:	79 2b       	or	r23, r25
    2576:	8e 2d       	mov	r24, r14
    2578:	90 e0       	ldi	r25, 0x00	; 0
    257a:	88 0f       	add	r24, r24
    257c:	99 1f       	adc	r25, r25
    257e:	68 2b       	or	r22, r24
    2580:	79 2b       	or	r23, r25
    2582:	8f 2d       	mov	r24, r15
    2584:	0e 94 07 12 	call	0x240e	; 0x240e <WriteDataTwoByte>
    2588:	aa 20       	and	r10, r10
    258a:	21 f0       	breq	.+8      	; 0x2594 <SetGain+0x82>
    258c:	8f 2d       	mov	r24, r15
    258e:	b6 01       	movw	r22, r12
    2590:	0e 94 07 12 	call	0x240e	; 0x240e <WriteDataTwoByte>
    2594:	bb 20       	and	r11, r11
    2596:	21 f0       	breq	.+8      	; 0x25a0 <SetGain+0x8e>
    2598:	8f 2d       	mov	r24, r15
    259a:	be 01       	movw	r22, r28
    259c:	0e 94 07 12 	call	0x240e	; 0x240e <WriteDataTwoByte>
    25a0:	ee 20       	and	r14, r14
    25a2:	21 f0       	breq	.+8      	; 0x25ac <SetGain+0x9a>
    25a4:	8f 2d       	mov	r24, r15
    25a6:	b8 01       	movw	r22, r16
    25a8:	0e 94 07 12 	call	0x240e	; 0x240e <WriteDataTwoByte>
    25ac:	8f 2d       	mov	r24, r15
    25ae:	64 e0       	ldi	r22, 0x04	; 4
    25b0:	0e 94 ea 11 	call	0x23d4	; 0x23d4 <WriteCommand>
    25b4:	df 91       	pop	r29
    25b6:	cf 91       	pop	r28
    25b8:	1f 91       	pop	r17
    25ba:	0f 91       	pop	r16
    25bc:	ff 90       	pop	r15
    25be:	ef 90       	pop	r14
    25c0:	df 90       	pop	r13
    25c2:	cf 90       	pop	r12
    25c4:	bf 90       	pop	r11
    25c6:	af 90       	pop	r10
    25c8:	08 95       	ret

000025ca <SetGain2>:
    25ca:	8f 92       	push	r8
    25cc:	9f 92       	push	r9
    25ce:	af 92       	push	r10
    25d0:	bf 92       	push	r11
    25d2:	cf 92       	push	r12
    25d4:	df 92       	push	r13
    25d6:	ef 92       	push	r14
    25d8:	ff 92       	push	r15
    25da:	0f 93       	push	r16
    25dc:	1f 93       	push	r17
    25de:	cf 93       	push	r28
    25e0:	df 93       	push	r29
    25e2:	f8 2e       	mov	r15, r24
    25e4:	4b 01       	movw	r8, r22
    25e6:	6a 01       	movw	r12, r20
    25e8:	e9 01       	movw	r28, r18
    25ea:	aa 24       	eor	r10, r10
    25ec:	a3 94       	inc	r10
    25ee:	61 15       	cp	r22, r1
    25f0:	71 05       	cpc	r23, r1
    25f2:	09 f4       	brne	.+2      	; 0x25f6 <SetGain2+0x2c>
    25f4:	aa 24       	eor	r10, r10
    25f6:	bb 24       	eor	r11, r11
    25f8:	b3 94       	inc	r11
    25fa:	c1 14       	cp	r12, r1
    25fc:	d1 04       	cpc	r13, r1
    25fe:	09 f4       	brne	.+2      	; 0x2602 <SetGain2+0x38>
    2600:	bb 24       	eor	r11, r11
    2602:	ee 24       	eor	r14, r14
    2604:	e3 94       	inc	r14
    2606:	20 97       	sbiw	r28, 0x00	; 0
    2608:	09 f4       	brne	.+2      	; 0x260c <SetGain2+0x42>
    260a:	ee 24       	eor	r14, r14
    260c:	8f 2d       	mov	r24, r15
    260e:	6e e1       	ldi	r22, 0x1E	; 30
    2610:	0e 94 ea 11 	call	0x23d4	; 0x23d4 <WriteCommand>
    2614:	6a 2d       	mov	r22, r10
    2616:	70 e0       	ldi	r23, 0x00	; 0
    2618:	a3 e0       	ldi	r26, 0x03	; 3
    261a:	66 0f       	add	r22, r22
    261c:	77 1f       	adc	r23, r23
    261e:	aa 95       	dec	r26
    2620:	e1 f7       	brne	.-8      	; 0x261a <SetGain2+0x50>
    2622:	61 60       	ori	r22, 0x01	; 1
    2624:	8b 2d       	mov	r24, r11
    2626:	90 e0       	ldi	r25, 0x00	; 0
    2628:	88 0f       	add	r24, r24
    262a:	99 1f       	adc	r25, r25
    262c:	88 0f       	add	r24, r24
    262e:	99 1f       	adc	r25, r25
    2630:	68 2b       	or	r22, r24
    2632:	79 2b       	or	r23, r25
    2634:	8e 2d       	mov	r24, r14
    2636:	90 e0       	ldi	r25, 0x00	; 0
    2638:	88 0f       	add	r24, r24
    263a:	99 1f       	adc	r25, r25
    263c:	68 2b       	or	r22, r24
    263e:	79 2b       	or	r23, r25
    2640:	8f 2d       	mov	r24, r15
    2642:	0e 94 07 12 	call	0x240e	; 0x240e <WriteDataTwoByte>
    2646:	aa 20       	and	r10, r10
    2648:	21 f0       	breq	.+8      	; 0x2652 <SetGain2+0x88>
    264a:	8f 2d       	mov	r24, r15
    264c:	b4 01       	movw	r22, r8
    264e:	0e 94 07 12 	call	0x240e	; 0x240e <WriteDataTwoByte>
    2652:	bb 20       	and	r11, r11
    2654:	21 f0       	breq	.+8      	; 0x265e <SetGain2+0x94>
    2656:	8f 2d       	mov	r24, r15
    2658:	b6 01       	movw	r22, r12
    265a:	0e 94 07 12 	call	0x240e	; 0x240e <WriteDataTwoByte>
    265e:	ee 20       	and	r14, r14
    2660:	21 f0       	breq	.+8      	; 0x266a <SetGain2+0xa0>
    2662:	8f 2d       	mov	r24, r15
    2664:	be 01       	movw	r22, r28
    2666:	0e 94 07 12 	call	0x240e	; 0x240e <WriteDataTwoByte>
    266a:	8f 2d       	mov	r24, r15
    266c:	b8 01       	movw	r22, r16
    266e:	0e 94 07 12 	call	0x240e	; 0x240e <WriteDataTwoByte>
    2672:	8f 2d       	mov	r24, r15
    2674:	64 e0       	ldi	r22, 0x04	; 4
    2676:	0e 94 ea 11 	call	0x23d4	; 0x23d4 <WriteCommand>
    267a:	df 91       	pop	r29
    267c:	cf 91       	pop	r28
    267e:	1f 91       	pop	r17
    2680:	0f 91       	pop	r16
    2682:	ff 90       	pop	r15
    2684:	ef 90       	pop	r14
    2686:	df 90       	pop	r13
    2688:	cf 90       	pop	r12
    268a:	bf 90       	pop	r11
    268c:	af 90       	pop	r10
    268e:	9f 90       	pop	r9
    2690:	8f 90       	pop	r8
    2692:	08 95       	ret

00002694 <SetAcceleration>:
    2694:	df 92       	push	r13
    2696:	ef 92       	push	r14
    2698:	ff 92       	push	r15
    269a:	0f 93       	push	r16
    269c:	1f 93       	push	r17
    269e:	d8 2e       	mov	r13, r24
    26a0:	7a 01       	movw	r14, r20
    26a2:	8b 01       	movw	r16, r22
    26a4:	6f e1       	ldi	r22, 0x1F	; 31
    26a6:	0e 94 ea 11 	call	0x23d4	; 0x23d4 <WriteCommand>
    26aa:	8d 2d       	mov	r24, r13
    26ac:	60 e2       	ldi	r22, 0x20	; 32
    26ae:	70 e0       	ldi	r23, 0x00	; 0
    26b0:	0e 94 07 12 	call	0x240e	; 0x240e <WriteDataTwoByte>
    26b4:	8d 2d       	mov	r24, r13
    26b6:	b8 01       	movw	r22, r16
    26b8:	a7 01       	movw	r20, r14
    26ba:	0e 94 59 12 	call	0x24b2	; 0x24b2 <WriteDataFourByte>
    26be:	1f 91       	pop	r17
    26c0:	0f 91       	pop	r16
    26c2:	ff 90       	pop	r15
    26c4:	ef 90       	pop	r14
    26c6:	df 90       	pop	r13
    26c8:	08 95       	ret

000026ca <Motor_init>:
    26ca:	80 e0       	ldi	r24, 0x00	; 0
    26cc:	60 e1       	ldi	r22, 0x10	; 16
    26ce:	70 e0       	ldi	r23, 0x00	; 0
    26d0:	40 e0       	ldi	r20, 0x00	; 0
    26d2:	50 e0       	ldi	r21, 0x00	; 0
    26d4:	20 e4       	ldi	r18, 0x40	; 64
    26d6:	30 e0       	ldi	r19, 0x00	; 0
    26d8:	0e 94 89 12 	call	0x2512	; 0x2512 <SetGain>
    26dc:	81 e0       	ldi	r24, 0x01	; 1
    26de:	60 e1       	ldi	r22, 0x10	; 16
    26e0:	70 e0       	ldi	r23, 0x00	; 0
    26e2:	40 e0       	ldi	r20, 0x00	; 0
    26e4:	50 e0       	ldi	r21, 0x00	; 0
    26e6:	20 e4       	ldi	r18, 0x40	; 64
    26e8:	30 e0       	ldi	r19, 0x00	; 0
    26ea:	0e 94 89 12 	call	0x2512	; 0x2512 <SetGain>
    26ee:	82 e0       	ldi	r24, 0x02	; 2
    26f0:	60 e1       	ldi	r22, 0x10	; 16
    26f2:	70 e0       	ldi	r23, 0x00	; 0
    26f4:	40 e0       	ldi	r20, 0x00	; 0
    26f6:	50 e0       	ldi	r21, 0x00	; 0
    26f8:	20 e4       	ldi	r18, 0x40	; 64
    26fa:	30 e0       	ldi	r19, 0x00	; 0
    26fc:	0e 94 89 12 	call	0x2512	; 0x2512 <SetGain>
    2700:	80 e0       	ldi	r24, 0x00	; 0
    2702:	4f ef       	ldi	r20, 0xFF	; 255
    2704:	5f ef       	ldi	r21, 0xFF	; 255
    2706:	6f ef       	ldi	r22, 0xFF	; 255
    2708:	7f e3       	ldi	r23, 0x3F	; 63
    270a:	0e 94 4a 13 	call	0x2694	; 0x2694 <SetAcceleration>
    270e:	81 e0       	ldi	r24, 0x01	; 1
    2710:	4f ef       	ldi	r20, 0xFF	; 255
    2712:	5f ef       	ldi	r21, 0xFF	; 255
    2714:	6f ef       	ldi	r22, 0xFF	; 255
    2716:	7f e3       	ldi	r23, 0x3F	; 63
    2718:	0e 94 4a 13 	call	0x2694	; 0x2694 <SetAcceleration>
    271c:	82 e0       	ldi	r24, 0x02	; 2
    271e:	4f ef       	ldi	r20, 0xFF	; 255
    2720:	5f ef       	ldi	r21, 0xFF	; 255
    2722:	6f ef       	ldi	r22, 0xFF	; 255
    2724:	7f e3       	ldi	r23, 0x3F	; 63
    2726:	0e 94 4a 13 	call	0x2694	; 0x2694 <SetAcceleration>
    272a:	08 95       	ret

0000272c <SetVelocity>:
    272c:	df 92       	push	r13
    272e:	ef 92       	push	r14
    2730:	ff 92       	push	r15
    2732:	0f 93       	push	r16
    2734:	1f 93       	push	r17
    2736:	df 93       	push	r29
    2738:	cf 93       	push	r28
    273a:	0f 92       	push	r0
    273c:	cd b7       	in	r28, 0x3d	; 61
    273e:	de b7       	in	r29, 0x3e	; 62
    2740:	d8 2e       	mov	r13, r24
    2742:	7a 01       	movw	r14, r20
    2744:	8b 01       	movw	r16, r22
    2746:	77 ff       	sbrs	r23, 7
    2748:	0a c0       	rjmp	.+20     	; 0x275e <SetVelocity+0x32>
    274a:	10 95       	com	r17
    274c:	00 95       	com	r16
    274e:	f0 94       	com	r15
    2750:	e0 94       	com	r14
    2752:	e1 1c       	adc	r14, r1
    2754:	f1 1c       	adc	r15, r1
    2756:	01 1d       	adc	r16, r1
    2758:	11 1d       	adc	r17, r1
    275a:	90 e0       	ldi	r25, 0x00	; 0
    275c:	01 c0       	rjmp	.+2      	; 0x2760 <SetVelocity+0x34>
    275e:	91 e0       	ldi	r25, 0x01	; 1
    2760:	8d 2d       	mov	r24, r13
    2762:	6f e1       	ldi	r22, 0x1F	; 31
    2764:	99 83       	std	Y+1, r25	; 0x01
    2766:	0e 94 ea 11 	call	0x23d4	; 0x23d4 <WriteCommand>
    276a:	99 81       	ldd	r25, Y+1	; 0x01
    276c:	79 2f       	mov	r23, r25
    276e:	72 95       	swap	r23
    2770:	70 7f       	andi	r23, 0xF0	; 240
    2772:	60 e0       	ldi	r22, 0x00	; 0
    2774:	68 60       	ori	r22, 0x08	; 8
    2776:	78 60       	ori	r23, 0x08	; 8
    2778:	8d 2d       	mov	r24, r13
    277a:	0e 94 07 12 	call	0x240e	; 0x240e <WriteDataTwoByte>
    277e:	8d 2d       	mov	r24, r13
    2780:	b8 01       	movw	r22, r16
    2782:	a7 01       	movw	r20, r14
    2784:	0e 94 59 12 	call	0x24b2	; 0x24b2 <WriteDataFourByte>
    2788:	0f 90       	pop	r0
    278a:	cf 91       	pop	r28
    278c:	df 91       	pop	r29
    278e:	1f 91       	pop	r17
    2790:	0f 91       	pop	r16
    2792:	ff 90       	pop	r15
    2794:	ef 90       	pop	r14
    2796:	df 90       	pop	r13
    2798:	08 95       	ret

0000279a <MOTOR_CTR>:
    279a:	af 92       	push	r10
    279c:	bf 92       	push	r11
    279e:	cf 92       	push	r12
    27a0:	df 92       	push	r13
    27a2:	ef 92       	push	r14
    27a4:	ff 92       	push	r15
    27a6:	0f 93       	push	r16
    27a8:	1f 93       	push	r17
    27aa:	df 93       	push	r29
    27ac:	cf 93       	push	r28
    27ae:	cd b7       	in	r28, 0x3d	; 61
    27b0:	de b7       	in	r29, 0x3e	; 62
    27b2:	2c 97       	sbiw	r28, 0x0c	; 12
    27b4:	0f b6       	in	r0, 0x3f	; 63
    27b6:	f8 94       	cli
    27b8:	de bf       	out	0x3e, r29	; 62
    27ba:	0f be       	out	0x3f, r0	; 63
    27bc:	cd bf       	out	0x3d, r28	; 61
    27be:	59 01       	movw	r10, r18
    27c0:	6a 01       	movw	r12, r20
    27c2:	0e 94 6a 41 	call	0x82d4	; 0x82d4 <__floatsisf>
    27c6:	69 83       	std	Y+1, r22	; 0x01
    27c8:	7a 83       	std	Y+2, r23	; 0x02
    27ca:	8b 83       	std	Y+3, r24	; 0x03
    27cc:	9c 83       	std	Y+4, r25	; 0x04
    27ce:	c6 01       	movw	r24, r12
    27d0:	b5 01       	movw	r22, r10
    27d2:	0e 94 6a 41 	call	0x82d4	; 0x82d4 <__floatsisf>
    27d6:	6d 83       	std	Y+5, r22	; 0x05
    27d8:	7e 83       	std	Y+6, r23	; 0x06
    27da:	8f 83       	std	Y+7, r24	; 0x07
    27dc:	98 87       	std	Y+8, r25	; 0x08
    27de:	c8 01       	movw	r24, r16
    27e0:	b7 01       	movw	r22, r14
    27e2:	0e 94 6a 41 	call	0x82d4	; 0x82d4 <__floatsisf>
    27e6:	69 87       	std	Y+9, r22	; 0x09
    27e8:	7a 87       	std	Y+10, r23	; 0x0a
    27ea:	8b 87       	std	Y+11, r24	; 0x0b
    27ec:	9c 87       	std	Y+12, r25	; 0x0c
    27ee:	8e 01       	movw	r16, r28
    27f0:	0f 5f       	subi	r16, 0xFF	; 255
    27f2:	1f 4f       	sbci	r17, 0xFF	; 255
    27f4:	ee 24       	eor	r14, r14
    27f6:	f8 01       	movw	r30, r16
    27f8:	60 81       	ld	r22, Z
    27fa:	71 81       	ldd	r23, Z+1	; 0x01
    27fc:	82 81       	ldd	r24, Z+2	; 0x02
    27fe:	93 81       	ldd	r25, Z+3	; 0x03
    2800:	21 e7       	ldi	r18, 0x71	; 113
    2802:	3c ea       	ldi	r19, 0xAC	; 172
    2804:	4b e8       	ldi	r20, 0x8B	; 139
    2806:	5e e3       	ldi	r21, 0x3E	; 62
    2808:	0e 94 2e 43 	call	0x865c	; 0x865c <__mulsf3>
    280c:	9b 01       	movw	r18, r22
    280e:	ac 01       	movw	r20, r24
    2810:	f8 01       	movw	r30, r16
    2812:	21 93       	st	Z+, r18
    2814:	31 93       	st	Z+, r19
    2816:	41 93       	st	Z+, r20
    2818:	51 93       	st	Z+, r21
    281a:	8f 01       	movw	r16, r30
    281c:	20 e0       	ldi	r18, 0x00	; 0
    281e:	30 e0       	ldi	r19, 0x00	; 0
    2820:	40 e8       	ldi	r20, 0x80	; 128
    2822:	57 e4       	ldi	r21, 0x47	; 71
    2824:	0e 94 2e 43 	call	0x865c	; 0x865c <__mulsf3>
    2828:	0e 94 37 41 	call	0x826e	; 0x826e <__fixsfsi>
    282c:	ab 01       	movw	r20, r22
    282e:	bc 01       	movw	r22, r24
    2830:	8e 2d       	mov	r24, r14
    2832:	0e 94 96 13 	call	0x272c	; 0x272c <SetVelocity>
    2836:	e3 94       	inc	r14
    2838:	fe 2d       	mov	r31, r14
    283a:	f3 30       	cpi	r31, 0x03	; 3
    283c:	e1 f6       	brne	.-72     	; 0x27f6 <MOTOR_CTR+0x5c>
    283e:	0e 94 fa 11 	call	0x23f4	; 0x23f4 <StartMotion>
    2842:	2c 96       	adiw	r28, 0x0c	; 12
    2844:	0f b6       	in	r0, 0x3f	; 63
    2846:	f8 94       	cli
    2848:	de bf       	out	0x3e, r29	; 62
    284a:	0f be       	out	0x3f, r0	; 63
    284c:	cd bf       	out	0x3d, r28	; 61
    284e:	cf 91       	pop	r28
    2850:	df 91       	pop	r29
    2852:	1f 91       	pop	r17
    2854:	0f 91       	pop	r16
    2856:	ff 90       	pop	r15
    2858:	ef 90       	pop	r14
    285a:	df 90       	pop	r13
    285c:	cf 90       	pop	r12
    285e:	bf 90       	pop	r11
    2860:	af 90       	pop	r10
    2862:	08 95       	ret

00002864 <SetPosition>:
    2864:	4f 92       	push	r4
    2866:	5f 92       	push	r5
    2868:	6f 92       	push	r6
    286a:	7f 92       	push	r7
    286c:	8f 92       	push	r8
    286e:	9f 92       	push	r9
    2870:	af 92       	push	r10
    2872:	bf 92       	push	r11
    2874:	cf 92       	push	r12
    2876:	df 92       	push	r13
    2878:	ef 92       	push	r14
    287a:	ff 92       	push	r15
    287c:	0f 93       	push	r16
    287e:	1f 93       	push	r17
    2880:	98 2e       	mov	r9, r24
    2882:	86 2e       	mov	r8, r22
    2884:	29 01       	movw	r4, r18
    2886:	3a 01       	movw	r6, r20
    2888:	6f e1       	ldi	r22, 0x1F	; 31
    288a:	0e 94 ea 11 	call	0x23d4	; 0x23d4 <WriteCommand>
    288e:	68 2d       	mov	r22, r8
    2890:	70 e0       	ldi	r23, 0x00	; 0
    2892:	6a 62       	ori	r22, 0x2A	; 42
    2894:	89 2d       	mov	r24, r9
    2896:	0e 94 07 12 	call	0x240e	; 0x240e <WriteDataTwoByte>
    289a:	89 2d       	mov	r24, r9
    289c:	b3 01       	movw	r22, r6
    289e:	a2 01       	movw	r20, r4
    28a0:	0e 94 59 12 	call	0x24b2	; 0x24b2 <WriteDataFourByte>
    28a4:	89 2d       	mov	r24, r9
    28a6:	b8 01       	movw	r22, r16
    28a8:	a7 01       	movw	r20, r14
    28aa:	0e 94 59 12 	call	0x24b2	; 0x24b2 <WriteDataFourByte>
    28ae:	89 2d       	mov	r24, r9
    28b0:	b6 01       	movw	r22, r12
    28b2:	a5 01       	movw	r20, r10
    28b4:	0e 94 59 12 	call	0x24b2	; 0x24b2 <WriteDataFourByte>
    28b8:	1f 91       	pop	r17
    28ba:	0f 91       	pop	r16
    28bc:	ff 90       	pop	r15
    28be:	ef 90       	pop	r14
    28c0:	df 90       	pop	r13
    28c2:	cf 90       	pop	r12
    28c4:	bf 90       	pop	r11
    28c6:	af 90       	pop	r10
    28c8:	9f 90       	pop	r9
    28ca:	8f 90       	pop	r8
    28cc:	7f 90       	pop	r7
    28ce:	6f 90       	pop	r6
    28d0:	5f 90       	pop	r5
    28d2:	4f 90       	pop	r4
    28d4:	08 95       	ret

000028d6 <LM629_HW_Reset>:
    28d6:	9f 92       	push	r9
    28d8:	af 92       	push	r10
    28da:	bf 92       	push	r11
    28dc:	cf 92       	push	r12
    28de:	df 92       	push	r13
    28e0:	ef 92       	push	r14
    28e2:	ff 92       	push	r15
    28e4:	0f 93       	push	r16
    28e6:	1f 93       	push	r17
    28e8:	df 93       	push	r29
    28ea:	cf 93       	push	r28
    28ec:	00 d0       	rcall	.+0      	; 0x28ee <LM629_HW_Reset+0x18>
    28ee:	0f 92       	push	r0
    28f0:	cd b7       	in	r28, 0x3d	; 61
    28f2:	de b7       	in	r29, 0x3e	; 62
    28f4:	1a ba       	out	0x1a, r1	; 26
    28f6:	15 ba       	out	0x15, r1	; 21
    28f8:	8f ef       	ldi	r24, 0xFF	; 255
    28fa:	84 bb       	out	0x14, r24	; 20
    28fc:	10 92 65 00 	sts	0x0065, r1
    2900:	83 e0       	ldi	r24, 0x03	; 3
    2902:	80 93 64 00 	sts	0x0064, r24
    2906:	10 e8       	ldi	r17, 0x80	; 128
    2908:	a1 2e       	mov	r10, r17
    290a:	b4 e8       	ldi	r27, 0x84	; 132
    290c:	bb 2e       	mov	r11, r27
    290e:	6e 01       	movw	r12, r28
    2910:	08 94       	sec
    2912:	c1 1c       	adc	r12, r1
    2914:	d1 1c       	adc	r13, r1
    2916:	85 b3       	in	r24, 0x15	; 21
    2918:	85 60       	ori	r24, 0x05	; 5
    291a:	85 bb       	out	0x15, r24	; 21
    291c:	83 e3       	ldi	r24, 0x33	; 51
    291e:	9b e2       	ldi	r25, 0x2B	; 43
    2920:	01 97       	sbiw	r24, 0x01	; 1
    2922:	f1 f7       	brne	.-4      	; 0x2920 <LM629_HW_Reset+0x4a>
    2924:	85 b3       	in	r24, 0x15	; 21
    2926:	8a 7f       	andi	r24, 0xFA	; 250
    2928:	85 bb       	out	0x15, r24	; 21
    292a:	ec ec       	ldi	r30, 0xCC	; 204
    292c:	fc e1       	ldi	r31, 0x1C	; 28
    292e:	31 97       	sbiw	r30, 0x01	; 1
    2930:	f1 f7       	brne	.-4      	; 0x292e <LM629_HW_Reset+0x58>
    2932:	00 c0       	rjmp	.+0      	; 0x2934 <LM629_HW_Reset+0x5e>
    2934:	00 00       	nop
    2936:	80 91 65 00 	lds	r24, 0x0065
    293a:	8d 7f       	andi	r24, 0xFD	; 253
    293c:	80 93 65 00 	sts	0x0065, r24
    2940:	ab 98       	cbi	0x15, 3	; 21
    2942:	85 b3       	in	r24, 0x15	; 21
    2944:	88 7f       	andi	r24, 0xF8	; 248
    2946:	85 bb       	out	0x15, r24	; 21
    2948:	99 b3       	in	r25, 0x19	; 25
    294a:	99 83       	std	Y+1, r25	; 0x01
    294c:	a8 9a       	sbi	0x15, 0	; 21
    294e:	19 b3       	in	r17, 0x19	; 25
    2950:	85 b3       	in	r24, 0x15	; 21
    2952:	88 7f       	andi	r24, 0xF8	; 248
    2954:	82 60       	ori	r24, 0x02	; 2
    2956:	85 bb       	out	0x15, r24	; 21
    2958:	09 b3       	in	r16, 0x19	; 25
    295a:	94 3c       	cpi	r25, 0xC4	; 196
    295c:	09 f4       	brne	.+2      	; 0x2960 <LM629_HW_Reset+0x8a>
    295e:	94 c0       	rjmp	.+296    	; 0x2a88 <LM629_HW_Reset+0x1b2>
    2960:	94 38       	cpi	r25, 0x84	; 132
    2962:	09 f4       	brne	.+2      	; 0x2966 <LM629_HW_Reset+0x90>
    2964:	91 c0       	rjmp	.+290    	; 0x2a88 <LM629_HW_Reset+0x1b2>
    2966:	15 ba       	out	0x15, r1	; 21
    2968:	80 e0       	ldi	r24, 0x00	; 0
    296a:	60 e0       	ldi	r22, 0x00	; 0
    296c:	44 e6       	ldi	r20, 0x64	; 100
    296e:	51 e0       	ldi	r21, 0x01	; 1
    2970:	0e 94 67 01 	call	0x2ce	; 0x2ce <LCD>
    2974:	81 e0       	ldi	r24, 0x01	; 1
    2976:	60 e0       	ldi	r22, 0x00	; 0
    2978:	4a e6       	ldi	r20, 0x6A	; 106
    297a:	51 e0       	ldi	r21, 0x01	; 1
    297c:	0e 94 67 01 	call	0x2ce	; 0x2ce <LCD>
    2980:	14 3c       	cpi	r17, 0xC4	; 196
    2982:	09 f4       	brne	.+2      	; 0x2986 <LM629_HW_Reset+0xb0>
    2984:	81 c0       	rjmp	.+258    	; 0x2a88 <LM629_HW_Reset+0x1b2>
    2986:	14 38       	cpi	r17, 0x84	; 132
    2988:	09 f4       	brne	.+2      	; 0x298c <LM629_HW_Reset+0xb6>
    298a:	7e c0       	rjmp	.+252    	; 0x2a88 <LM629_HW_Reset+0x1b2>
    298c:	15 ba       	out	0x15, r1	; 21
    298e:	80 e0       	ldi	r24, 0x00	; 0
    2990:	60 e0       	ldi	r22, 0x00	; 0
    2992:	44 e6       	ldi	r20, 0x64	; 100
    2994:	51 e0       	ldi	r21, 0x01	; 1
    2996:	0e 94 67 01 	call	0x2ce	; 0x2ce <LCD>
    299a:	82 e0       	ldi	r24, 0x02	; 2
    299c:	60 e0       	ldi	r22, 0x00	; 0
    299e:	4a e7       	ldi	r20, 0x7A	; 122
    29a0:	51 e0       	ldi	r21, 0x01	; 1
    29a2:	0e 94 67 01 	call	0x2ce	; 0x2ce <LCD>
    29a6:	04 3c       	cpi	r16, 0xC4	; 196
    29a8:	09 f4       	brne	.+2      	; 0x29ac <LM629_HW_Reset+0xd6>
    29aa:	6e c0       	rjmp	.+220    	; 0x2a88 <LM629_HW_Reset+0x1b2>
    29ac:	04 38       	cpi	r16, 0x84	; 132
    29ae:	09 f4       	brne	.+2      	; 0x29b2 <LM629_HW_Reset+0xdc>
    29b0:	6b c0       	rjmp	.+214    	; 0x2a88 <LM629_HW_Reset+0x1b2>
    29b2:	15 ba       	out	0x15, r1	; 21
    29b4:	80 e0       	ldi	r24, 0x00	; 0
    29b6:	60 e0       	ldi	r22, 0x00	; 0
    29b8:	44 e6       	ldi	r20, 0x64	; 100
    29ba:	51 e0       	ldi	r21, 0x01	; 1
    29bc:	0e 94 67 01 	call	0x2ce	; 0x2ce <LCD>
    29c0:	83 e0       	ldi	r24, 0x03	; 3
    29c2:	60 e0       	ldi	r22, 0x00	; 0
    29c4:	4a e8       	ldi	r20, 0x8A	; 138
    29c6:	51 e0       	ldi	r21, 0x01	; 1
    29c8:	29 c0       	rjmp	.+82     	; 0x2a1c <LM629_HW_Reset+0x146>
    29ca:	9e 2c       	mov	r9, r14
    29cc:	9c 18       	sub	r9, r12
    29ce:	89 2d       	mov	r24, r9
    29d0:	6d e1       	ldi	r22, 0x1D	; 29
    29d2:	0e 94 ea 11 	call	0x23d4	; 0x23d4 <WriteCommand>
    29d6:	89 2d       	mov	r24, r9
    29d8:	60 e0       	ldi	r22, 0x00	; 0
    29da:	70 e0       	ldi	r23, 0x00	; 0
    29dc:	0e 94 07 12 	call	0x240e	; 0x240e <WriteDataTwoByte>
    29e0:	f8 01       	movw	r30, r16
    29e2:	80 81       	ld	r24, Z
    29e4:	f7 01       	movw	r30, r14
    29e6:	81 93       	st	Z+, r24
    29e8:	7f 01       	movw	r14, r30
    29ea:	00 50       	subi	r16, 0x00	; 0
    29ec:	1f 4f       	sbci	r17, 0xFF	; 255
    29ee:	f3 e2       	ldi	r31, 0x23	; 35
    29f0:	00 30       	cpi	r16, 0x00	; 0
    29f2:	1f 07       	cpc	r17, r31
    29f4:	51 f7       	brne	.-44     	; 0x29ca <LM629_HW_Reset+0xf4>
    29f6:	89 81       	ldd	r24, Y+1	; 0x01
    29f8:	80 3c       	cpi	r24, 0xC0	; 192
    29fa:	99 f0       	breq	.+38     	; 0x2a22 <LM629_HW_Reset+0x14c>
    29fc:	80 38       	cpi	r24, 0x80	; 128
    29fe:	89 f0       	breq	.+34     	; 0x2a22 <LM629_HW_Reset+0x14c>
    2a00:	85 b7       	in	r24, 0x35	; 53
    2a02:	8f 73       	andi	r24, 0x3F	; 63
    2a04:	85 bf       	out	0x35, r24	; 53
    2a06:	15 ba       	out	0x15, r1	; 21
    2a08:	80 e0       	ldi	r24, 0x00	; 0
    2a0a:	60 e0       	ldi	r22, 0x00	; 0
    2a0c:	4a e9       	ldi	r20, 0x9A	; 154
    2a0e:	51 e0       	ldi	r21, 0x01	; 1
    2a10:	0e 94 67 01 	call	0x2ce	; 0x2ce <LCD>
    2a14:	81 e0       	ldi	r24, 0x01	; 1
    2a16:	60 e0       	ldi	r22, 0x00	; 0
    2a18:	4a e6       	ldi	r20, 0x6A	; 106
    2a1a:	51 e0       	ldi	r21, 0x01	; 1
    2a1c:	0e 94 67 01 	call	0x2ce	; 0x2ce <LCD>
    2a20:	7a cf       	rjmp	.-268    	; 0x2916 <LM629_HW_Reset+0x40>
    2a22:	80 e0       	ldi	r24, 0x00	; 0
    2a24:	60 e0       	ldi	r22, 0x00	; 0
    2a26:	40 ea       	ldi	r20, 0xA0	; 160
    2a28:	51 e0       	ldi	r21, 0x01	; 1
    2a2a:	0e 94 67 01 	call	0x2ce	; 0x2ce <LCD>
    2a2e:	80 e0       	ldi	r24, 0x00	; 0
    2a30:	98 b3       	in	r25, 0x18	; 24
    2a32:	97 60       	ori	r25, 0x07	; 7
    2a34:	98 bb       	out	0x18, r25	; 24
    2a36:	2f ef       	ldi	r18, 0xFF	; 255
    2a38:	3f eb       	ldi	r19, 0xBF	; 191
    2a3a:	46 e0       	ldi	r20, 0x06	; 6
    2a3c:	21 50       	subi	r18, 0x01	; 1
    2a3e:	30 40       	sbci	r19, 0x00	; 0
    2a40:	40 40       	sbci	r20, 0x00	; 0
    2a42:	e1 f7       	brne	.-8      	; 0x2a3c <LM629_HW_Reset+0x166>
    2a44:	00 c0       	rjmp	.+0      	; 0x2a46 <LM629_HW_Reset+0x170>
    2a46:	00 00       	nop
    2a48:	98 b3       	in	r25, 0x18	; 24
    2a4a:	98 7f       	andi	r25, 0xF8	; 248
    2a4c:	98 bb       	out	0x18, r25	; 24
    2a4e:	2f ef       	ldi	r18, 0xFF	; 255
    2a50:	3f eb       	ldi	r19, 0xBF	; 191
    2a52:	46 e0       	ldi	r20, 0x06	; 6
    2a54:	21 50       	subi	r18, 0x01	; 1
    2a56:	30 40       	sbci	r19, 0x00	; 0
    2a58:	40 40       	sbci	r20, 0x00	; 0
    2a5a:	e1 f7       	brne	.-8      	; 0x2a54 <LM629_HW_Reset+0x17e>
    2a5c:	00 c0       	rjmp	.+0      	; 0x2a5e <LM629_HW_Reset+0x188>
    2a5e:	00 00       	nop
    2a60:	8f 5f       	subi	r24, 0xFF	; 255
    2a62:	83 30       	cpi	r24, 0x03	; 3
    2a64:	29 f7       	brne	.-54     	; 0x2a30 <LM629_HW_Reset+0x15a>
    2a66:	0e 94 d8 01 	call	0x3b0	; 0x3b0 <lcd_clear_screen>
    2a6a:	0f 90       	pop	r0
    2a6c:	0f 90       	pop	r0
    2a6e:	0f 90       	pop	r0
    2a70:	cf 91       	pop	r28
    2a72:	df 91       	pop	r29
    2a74:	1f 91       	pop	r17
    2a76:	0f 91       	pop	r16
    2a78:	ff 90       	pop	r15
    2a7a:	ef 90       	pop	r14
    2a7c:	df 90       	pop	r13
    2a7e:	cf 90       	pop	r12
    2a80:	bf 90       	pop	r11
    2a82:	af 90       	pop	r10
    2a84:	9f 90       	pop	r9
    2a86:	08 95       	ret
    2a88:	a5 be       	out	0x35, r10	; 53
    2a8a:	82 e0       	ldi	r24, 0x02	; 2
    2a8c:	80 93 6d 00 	sts	0x006D, r24
    2a90:	b0 92 6c 00 	sts	0x006C, r11
    2a94:	76 01       	movw	r14, r12
    2a96:	00 e0       	ldi	r16, 0x00	; 0
    2a98:	10 e2       	ldi	r17, 0x20	; 32
    2a9a:	97 cf       	rjmp	.-210    	; 0x29ca <LM629_HW_Reset+0xf4>

00002a9c <get_gyro>:
    2a9c:	4f 92       	push	r4
    2a9e:	5f 92       	push	r5
    2aa0:	6f 92       	push	r6
    2aa2:	7f 92       	push	r7
    2aa4:	8f 92       	push	r8
    2aa6:	9f 92       	push	r9
    2aa8:	af 92       	push	r10
    2aaa:	bf 92       	push	r11
    2aac:	cf 92       	push	r12
    2aae:	df 92       	push	r13
    2ab0:	ef 92       	push	r14
    2ab2:	ff 92       	push	r15
    2ab4:	0f 93       	push	r16
    2ab6:	1f 93       	push	r17
    2ab8:	cf 93       	push	r28
    2aba:	df 93       	push	r29
    2abc:	04 e6       	ldi	r16, 0x64	; 100
    2abe:	80 2e       	mov	r8, r16
    2ac0:	91 2c       	mov	r9, r1
    2ac2:	84 e0       	ldi	r24, 0x04	; 4
    2ac4:	0e 94 76 00 	call	0xec	; 0xec <read_gyro>
    2ac8:	98 2f       	mov	r25, r24
    2aca:	80 e0       	ldi	r24, 0x00	; 0
    2acc:	ec 01       	movw	r28, r24
    2ace:	85 e0       	ldi	r24, 0x05	; 5
    2ad0:	0e 94 76 00 	call	0xec	; 0xec <read_gyro>
    2ad4:	90 e0       	ldi	r25, 0x00	; 0
    2ad6:	8c 2b       	or	r24, r28
    2ad8:	9d 2b       	or	r25, r29
    2ada:	b4 01       	movw	r22, r8
    2adc:	0e 94 cc 46 	call	0x8d98	; 0x8d98 <__divmodhi4>
    2ae0:	88 27       	eor	r24, r24
    2ae2:	77 fd       	sbrc	r23, 7
    2ae4:	80 95       	com	r24
    2ae6:	98 2f       	mov	r25, r24
    2ae8:	0e 94 6a 41 	call	0x82d4	; 0x82d4 <__floatsisf>
    2aec:	f6 2e       	mov	r15, r22
    2aee:	07 2f       	mov	r16, r23
    2af0:	18 2f       	mov	r17, r24
    2af2:	e9 2e       	mov	r14, r25
    2af4:	46 2e       	mov	r4, r22
    2af6:	57 2e       	mov	r5, r23
    2af8:	68 2e       	mov	r6, r24
    2afa:	79 2e       	mov	r7, r25
    2afc:	63 01       	movw	r12, r6
    2afe:	52 01       	movw	r10, r4
    2b00:	e8 94       	clt
    2b02:	d7 f8       	bld	r13, 7
    2b04:	c6 01       	movw	r24, r12
    2b06:	b5 01       	movw	r22, r10
    2b08:	20 e0       	ldi	r18, 0x00	; 0
    2b0a:	30 e0       	ldi	r19, 0x00	; 0
    2b0c:	44 e3       	ldi	r20, 0x34	; 52
    2b0e:	53 e4       	ldi	r21, 0x43	; 67
    2b10:	0e 94 93 42 	call	0x8526	; 0x8526 <__gesf2>
    2b14:	18 16       	cp	r1, r24
    2b16:	ac f2       	brlt	.-86     	; 0x2ac2 <get_gyro+0x26>
    2b18:	60 91 7a 02 	lds	r22, 0x027A
    2b1c:	70 91 7b 02 	lds	r23, 0x027B
    2b20:	80 91 7c 02 	lds	r24, 0x027C
    2b24:	90 91 7d 02 	lds	r25, 0x027D
    2b28:	2f 2d       	mov	r18, r15
    2b2a:	30 2f       	mov	r19, r16
    2b2c:	41 2f       	mov	r20, r17
    2b2e:	5e 2d       	mov	r21, r14
    2b30:	0e 94 c8 40 	call	0x8190	; 0x8190 <__cmpsf2>
    2b34:	88 23       	and	r24, r24
    2b36:	09 f4       	brne	.+2      	; 0x2b3a <get_gyro+0x9e>
    2b38:	e5 c0       	rjmp	.+458    	; 0x2d04 <get_gyro+0x268>
    2b3a:	6f 2d       	mov	r22, r15
    2b3c:	70 2f       	mov	r23, r16
    2b3e:	81 2f       	mov	r24, r17
    2b40:	9e 2d       	mov	r25, r14
    2b42:	20 e0       	ldi	r18, 0x00	; 0
    2b44:	30 e0       	ldi	r19, 0x00	; 0
    2b46:	a9 01       	movw	r20, r18
    2b48:	0e 94 c8 40 	call	0x8190	; 0x8190 <__cmpsf2>
    2b4c:	87 ff       	sbrs	r24, 7
    2b4e:	5d c0       	rjmp	.+186    	; 0x2c0a <get_gyro+0x16e>
    2b50:	60 91 7a 02 	lds	r22, 0x027A
    2b54:	70 91 7b 02 	lds	r23, 0x027B
    2b58:	80 91 7c 02 	lds	r24, 0x027C
    2b5c:	90 91 7d 02 	lds	r25, 0x027D
    2b60:	20 e0       	ldi	r18, 0x00	; 0
    2b62:	30 e0       	ldi	r19, 0x00	; 0
    2b64:	a9 01       	movw	r20, r18
    2b66:	0e 94 93 42 	call	0x8526	; 0x8526 <__gesf2>
    2b6a:	18 16       	cp	r1, r24
    2b6c:	0c f0       	brlt	.+2      	; 0x2b70 <get_gyro+0xd4>
    2b6e:	4d c0       	rjmp	.+154    	; 0x2c0a <get_gyro+0x16e>
    2b70:	20 91 7a 02 	lds	r18, 0x027A
    2b74:	30 91 7b 02 	lds	r19, 0x027B
    2b78:	40 91 7c 02 	lds	r20, 0x027C
    2b7c:	50 91 7d 02 	lds	r21, 0x027D
    2b80:	5f 77       	andi	r21, 0x7F	; 127
    2b82:	c6 01       	movw	r24, r12
    2b84:	b5 01       	movw	r22, r10
    2b86:	0e 94 51 40 	call	0x80a2	; 0x80a2 <__addsf3>
    2b8a:	20 e0       	ldi	r18, 0x00	; 0
    2b8c:	30 e0       	ldi	r19, 0x00	; 0
    2b8e:	44 e3       	ldi	r20, 0x34	; 52
    2b90:	53 e4       	ldi	r21, 0x43	; 67
    2b92:	0e 94 c8 40 	call	0x8190	; 0x8190 <__cmpsf2>
    2b96:	87 ff       	sbrs	r24, 7
    2b98:	15 c0       	rjmp	.+42     	; 0x2bc4 <get_gyro+0x128>
    2b9a:	a0 90 7e 02 	lds	r10, 0x027E
    2b9e:	b0 90 7f 02 	lds	r11, 0x027F
    2ba2:	c0 90 80 02 	lds	r12, 0x0280
    2ba6:	d0 90 81 02 	lds	r13, 0x0281
    2baa:	20 91 7a 02 	lds	r18, 0x027A
    2bae:	30 91 7b 02 	lds	r19, 0x027B
    2bb2:	40 91 7c 02 	lds	r20, 0x027C
    2bb6:	50 91 7d 02 	lds	r21, 0x027D
    2bba:	6f 2d       	mov	r22, r15
    2bbc:	70 2f       	mov	r23, r16
    2bbe:	81 2f       	mov	r24, r17
    2bc0:	9e 2d       	mov	r25, r14
    2bc2:	1c c0       	rjmp	.+56     	; 0x2bfc <get_gyro+0x160>
    2bc4:	a0 90 7e 02 	lds	r10, 0x027E
    2bc8:	b0 90 7f 02 	lds	r11, 0x027F
    2bcc:	c0 90 80 02 	lds	r12, 0x0280
    2bd0:	d0 90 81 02 	lds	r13, 0x0281
    2bd4:	60 91 7a 02 	lds	r22, 0x027A
    2bd8:	70 91 7b 02 	lds	r23, 0x027B
    2bdc:	80 91 7c 02 	lds	r24, 0x027C
    2be0:	90 91 7d 02 	lds	r25, 0x027D
    2be4:	2f 2d       	mov	r18, r15
    2be6:	30 2f       	mov	r19, r16
    2be8:	41 2f       	mov	r20, r17
    2bea:	5e 2d       	mov	r21, r14
    2bec:	0e 94 50 40 	call	0x80a0	; 0x80a0 <__subsf3>
    2bf0:	9b 01       	movw	r18, r22
    2bf2:	ac 01       	movw	r20, r24
    2bf4:	60 e0       	ldi	r22, 0x00	; 0
    2bf6:	70 e0       	ldi	r23, 0x00	; 0
    2bf8:	84 eb       	ldi	r24, 0xB4	; 180
    2bfa:	93 e4       	ldi	r25, 0x43	; 67
    2bfc:	0e 94 50 40 	call	0x80a0	; 0x80a0 <__subsf3>
    2c00:	9b 01       	movw	r18, r22
    2c02:	ac 01       	movw	r20, r24
    2c04:	c6 01       	movw	r24, r12
    2c06:	b5 01       	movw	r22, r10
    2c08:	69 c0       	rjmp	.+210    	; 0x2cdc <get_gyro+0x240>
    2c0a:	c3 01       	movw	r24, r6
    2c0c:	b2 01       	movw	r22, r4
    2c0e:	20 e0       	ldi	r18, 0x00	; 0
    2c10:	30 e0       	ldi	r19, 0x00	; 0
    2c12:	a9 01       	movw	r20, r18
    2c14:	0e 94 93 42 	call	0x8526	; 0x8526 <__gesf2>
    2c18:	18 16       	cp	r1, r24
    2c1a:	0c f0       	brlt	.+2      	; 0x2c1e <get_gyro+0x182>
    2c1c:	47 c0       	rjmp	.+142    	; 0x2cac <get_gyro+0x210>
    2c1e:	60 91 7a 02 	lds	r22, 0x027A
    2c22:	70 91 7b 02 	lds	r23, 0x027B
    2c26:	80 91 7c 02 	lds	r24, 0x027C
    2c2a:	90 91 7d 02 	lds	r25, 0x027D
    2c2e:	20 e0       	ldi	r18, 0x00	; 0
    2c30:	30 e0       	ldi	r19, 0x00	; 0
    2c32:	a9 01       	movw	r20, r18
    2c34:	0e 94 c8 40 	call	0x8190	; 0x8190 <__cmpsf2>
    2c38:	87 ff       	sbrs	r24, 7
    2c3a:	38 c0       	rjmp	.+112    	; 0x2cac <get_gyro+0x210>
    2c3c:	20 91 7a 02 	lds	r18, 0x027A
    2c40:	30 91 7b 02 	lds	r19, 0x027B
    2c44:	40 91 7c 02 	lds	r20, 0x027C
    2c48:	50 91 7d 02 	lds	r21, 0x027D
    2c4c:	5f 77       	andi	r21, 0x7F	; 127
    2c4e:	c6 01       	movw	r24, r12
    2c50:	b5 01       	movw	r22, r10
    2c52:	0e 94 51 40 	call	0x80a2	; 0x80a2 <__addsf3>
    2c56:	20 e0       	ldi	r18, 0x00	; 0
    2c58:	30 e0       	ldi	r19, 0x00	; 0
    2c5a:	44 e3       	ldi	r20, 0x34	; 52
    2c5c:	53 e4       	ldi	r21, 0x43	; 67
    2c5e:	0e 94 c8 40 	call	0x8190	; 0x8190 <__cmpsf2>
    2c62:	87 fd       	sbrc	r24, 7
    2c64:	23 c0       	rjmp	.+70     	; 0x2cac <get_gyro+0x210>
    2c66:	e0 90 7e 02 	lds	r14, 0x027E
    2c6a:	f0 90 7f 02 	lds	r15, 0x027F
    2c6e:	00 91 80 02 	lds	r16, 0x0280
    2c72:	10 91 81 02 	lds	r17, 0x0281
    2c76:	20 91 7a 02 	lds	r18, 0x027A
    2c7a:	30 91 7b 02 	lds	r19, 0x027B
    2c7e:	40 91 7c 02 	lds	r20, 0x027C
    2c82:	50 91 7d 02 	lds	r21, 0x027D
    2c86:	c3 01       	movw	r24, r6
    2c88:	b2 01       	movw	r22, r4
    2c8a:	0e 94 50 40 	call	0x80a0	; 0x80a0 <__subsf3>
    2c8e:	9b 01       	movw	r18, r22
    2c90:	ac 01       	movw	r20, r24
    2c92:	60 e0       	ldi	r22, 0x00	; 0
    2c94:	70 e0       	ldi	r23, 0x00	; 0
    2c96:	84 eb       	ldi	r24, 0xB4	; 180
    2c98:	93 e4       	ldi	r25, 0x43	; 67
    2c9a:	0e 94 50 40 	call	0x80a0	; 0x80a0 <__subsf3>
    2c9e:	9b 01       	movw	r18, r22
    2ca0:	ac 01       	movw	r20, r24
    2ca2:	c8 01       	movw	r24, r16
    2ca4:	b7 01       	movw	r22, r14
    2ca6:	0e 94 50 40 	call	0x80a0	; 0x80a0 <__subsf3>
    2caa:	1a c0       	rjmp	.+52     	; 0x2ce0 <get_gyro+0x244>
    2cac:	e0 90 7e 02 	lds	r14, 0x027E
    2cb0:	f0 90 7f 02 	lds	r15, 0x027F
    2cb4:	00 91 80 02 	lds	r16, 0x0280
    2cb8:	10 91 81 02 	lds	r17, 0x0281
    2cbc:	20 91 7a 02 	lds	r18, 0x027A
    2cc0:	30 91 7b 02 	lds	r19, 0x027B
    2cc4:	40 91 7c 02 	lds	r20, 0x027C
    2cc8:	50 91 7d 02 	lds	r21, 0x027D
    2ccc:	c3 01       	movw	r24, r6
    2cce:	b2 01       	movw	r22, r4
    2cd0:	0e 94 50 40 	call	0x80a0	; 0x80a0 <__subsf3>
    2cd4:	9b 01       	movw	r18, r22
    2cd6:	ac 01       	movw	r20, r24
    2cd8:	c8 01       	movw	r24, r16
    2cda:	b7 01       	movw	r22, r14
    2cdc:	0e 94 51 40 	call	0x80a2	; 0x80a2 <__addsf3>
    2ce0:	9b 01       	movw	r18, r22
    2ce2:	ac 01       	movw	r20, r24
    2ce4:	20 93 7e 02 	sts	0x027E, r18
    2ce8:	30 93 7f 02 	sts	0x027F, r19
    2cec:	40 93 80 02 	sts	0x0280, r20
    2cf0:	50 93 81 02 	sts	0x0281, r21
    2cf4:	40 92 7a 02 	sts	0x027A, r4
    2cf8:	50 92 7b 02 	sts	0x027B, r5
    2cfc:	60 92 7c 02 	sts	0x027C, r6
    2d00:	70 92 7d 02 	sts	0x027D, r7
    2d04:	df 91       	pop	r29
    2d06:	cf 91       	pop	r28
    2d08:	1f 91       	pop	r17
    2d0a:	0f 91       	pop	r16
    2d0c:	ff 90       	pop	r15
    2d0e:	ef 90       	pop	r14
    2d10:	df 90       	pop	r13
    2d12:	cf 90       	pop	r12
    2d14:	bf 90       	pop	r11
    2d16:	af 90       	pop	r10
    2d18:	9f 90       	pop	r9
    2d1a:	8f 90       	pop	r8
    2d1c:	7f 90       	pop	r7
    2d1e:	6f 90       	pop	r6
    2d20:	5f 90       	pop	r5
    2d22:	4f 90       	pop	r4
    2d24:	08 95       	ret

00002d26 <speed>:
    2d26:	2f 92       	push	r2
    2d28:	3f 92       	push	r3
    2d2a:	4f 92       	push	r4
    2d2c:	5f 92       	push	r5
    2d2e:	6f 92       	push	r6
    2d30:	7f 92       	push	r7
    2d32:	8f 92       	push	r8
    2d34:	9f 92       	push	r9
    2d36:	af 92       	push	r10
    2d38:	bf 92       	push	r11
    2d3a:	cf 92       	push	r12
    2d3c:	df 92       	push	r13
    2d3e:	ef 92       	push	r14
    2d40:	ff 92       	push	r15
    2d42:	0f 93       	push	r16
    2d44:	1f 93       	push	r17
    2d46:	df 93       	push	r29
    2d48:	cf 93       	push	r28
    2d4a:	cd b7       	in	r28, 0x3d	; 61
    2d4c:	de b7       	in	r29, 0x3e	; 62
    2d4e:	62 97       	sbiw	r28, 0x12	; 18
    2d50:	0f b6       	in	r0, 0x3f	; 63
    2d52:	f8 94       	cli
    2d54:	de bf       	out	0x3e, r29	; 62
    2d56:	0f be       	out	0x3f, r0	; 63
    2d58:	cd bf       	out	0x3d, r28	; 61
    2d5a:	69 83       	std	Y+1, r22	; 0x01
    2d5c:	7a 83       	std	Y+2, r23	; 0x02
    2d5e:	8b 83       	std	Y+3, r24	; 0x03
    2d60:	9c 83       	std	Y+4, r25	; 0x04
    2d62:	2d 83       	std	Y+5, r18	; 0x05
    2d64:	3e 83       	std	Y+6, r19	; 0x06
    2d66:	4f 83       	std	Y+7, r20	; 0x07
    2d68:	58 87       	std	Y+8, r21	; 0x08
    2d6a:	37 01       	movw	r6, r14
    2d6c:	48 01       	movw	r8, r16
    2d6e:	60 e0       	ldi	r22, 0x00	; 0
    2d70:	70 e0       	ldi	r23, 0x00	; 0
    2d72:	84 e3       	ldi	r24, 0x34	; 52
    2d74:	94 e4       	ldi	r25, 0x44	; 68
    2d76:	a6 01       	movw	r20, r12
    2d78:	95 01       	movw	r18, r10
    2d7a:	0e 94 50 40 	call	0x80a0	; 0x80a0 <__subsf3>
    2d7e:	16 2f       	mov	r17, r22
    2d80:	07 2f       	mov	r16, r23
    2d82:	f8 2e       	mov	r15, r24
    2d84:	e9 2e       	mov	r14, r25
    2d86:	8d 81       	ldd	r24, Y+5	; 0x05
    2d88:	9e 81       	ldd	r25, Y+6	; 0x06
    2d8a:	af 81       	ldd	r26, Y+7	; 0x07
    2d8c:	b8 85       	ldd	r27, Y+8	; 0x08
    2d8e:	80 93 87 02 	sts	0x0287, r24
    2d92:	90 93 88 02 	sts	0x0288, r25
    2d96:	a0 93 89 02 	sts	0x0289, r26
    2d9a:	b0 93 8a 02 	sts	0x028A, r27
    2d9e:	89 81       	ldd	r24, Y+1	; 0x01
    2da0:	9a 81       	ldd	r25, Y+2	; 0x02
    2da2:	ab 81       	ldd	r26, Y+3	; 0x03
    2da4:	bc 81       	ldd	r27, Y+4	; 0x04
    2da6:	80 93 1d 03 	sts	0x031D, r24
    2daa:	90 93 1e 03 	sts	0x031E, r25
    2dae:	a0 93 1f 03 	sts	0x031F, r26
    2db2:	b0 93 20 03 	sts	0x0320, r27
    2db6:	a0 92 93 02 	sts	0x0293, r10
    2dba:	b0 92 94 02 	sts	0x0294, r11
    2dbe:	c0 92 95 02 	sts	0x0295, r12
    2dc2:	d0 92 96 02 	sts	0x0296, r13
    2dc6:	c6 01       	movw	r24, r12
    2dc8:	b5 01       	movw	r22, r10
    2dca:	20 e0       	ldi	r18, 0x00	; 0
    2dcc:	30 e0       	ldi	r19, 0x00	; 0
    2dce:	44 e3       	ldi	r20, 0x34	; 52
    2dd0:	53 e4       	ldi	r21, 0x43	; 67
    2dd2:	0e 94 c8 40 	call	0x8190	; 0x8190 <__cmpsf2>
    2dd6:	18 16       	cp	r1, r24
    2dd8:	84 f0       	brlt	.+32     	; 0x2dfa <speed+0xd4>
    2dda:	a8 01       	movw	r20, r16
    2ddc:	97 01       	movw	r18, r14
    2dde:	65 2f       	mov	r22, r21
    2de0:	74 2f       	mov	r23, r20
    2de2:	83 2f       	mov	r24, r19
    2de4:	92 2f       	mov	r25, r18
    2de6:	20 e0       	ldi	r18, 0x00	; 0
    2de8:	30 e0       	ldi	r19, 0x00	; 0
    2dea:	44 eb       	ldi	r20, 0xB4	; 180
    2dec:	53 e4       	ldi	r21, 0x43	; 67
    2dee:	0e 94 50 40 	call	0x80a0	; 0x80a0 <__subsf3>
    2df2:	16 2f       	mov	r17, r22
    2df4:	07 2f       	mov	r16, r23
    2df6:	f8 2e       	mov	r15, r24
    2df8:	e9 2e       	mov	r14, r25
    2dfa:	a8 01       	movw	r20, r16
    2dfc:	97 01       	movw	r18, r14
    2dfe:	65 2f       	mov	r22, r21
    2e00:	70 2f       	mov	r23, r16
    2e02:	83 2f       	mov	r24, r19
    2e04:	9e 2d       	mov	r25, r14
    2e06:	20 e0       	ldi	r18, 0x00	; 0
    2e08:	30 e0       	ldi	r19, 0x00	; 0
    2e0a:	44 eb       	ldi	r20, 0xB4	; 180
    2e0c:	52 e4       	ldi	r21, 0x42	; 66
    2e0e:	0e 94 50 40 	call	0x80a0	; 0x80a0 <__subsf3>
    2e12:	69 87       	std	Y+9, r22	; 0x09
    2e14:	7a 87       	std	Y+10, r23	; 0x0a
    2e16:	8b 87       	std	Y+11, r24	; 0x0b
    2e18:	9c 87       	std	Y+12, r25	; 0x0c
    2e1a:	c4 01       	movw	r24, r8
    2e1c:	b3 01       	movw	r22, r6
    2e1e:	23 ef       	ldi	r18, 0xF3	; 243
    2e20:	36 e6       	ldi	r19, 0x66	; 102
    2e22:	4f e5       	ldi	r20, 0x5F	; 95
    2e24:	5e e3       	ldi	r21, 0x3E	; 62
    2e26:	0e 94 2e 43 	call	0x865c	; 0x865c <__mulsf3>
    2e2a:	6d 87       	std	Y+13, r22	; 0x0d
    2e2c:	7e 87       	std	Y+14, r23	; 0x0e
    2e2e:	8f 87       	std	Y+15, r24	; 0x0f
    2e30:	98 8b       	std	Y+16, r25	; 0x10
    2e32:	80 e0       	ldi	r24, 0x00	; 0
    2e34:	90 e0       	ldi	r25, 0x00	; 0
    2e36:	36 e9       	ldi	r19, 0x96	; 150
    2e38:	43 2e       	mov	r4, r19
    2e3a:	51 2c       	mov	r5, r1
    2e3c:	28 e6       	ldi	r18, 0x68	; 104
    2e3e:	22 2e       	mov	r2, r18
    2e40:	21 e0       	ldi	r18, 0x01	; 1
    2e42:	32 2e       	mov	r3, r18
    2e44:	9a 8b       	std	Y+18, r25	; 0x12
    2e46:	89 8b       	std	Y+17, r24	; 0x11
    2e48:	b2 01       	movw	r22, r4
    2e4a:	88 27       	eor	r24, r24
    2e4c:	77 fd       	sbrc	r23, 7
    2e4e:	80 95       	com	r24
    2e50:	98 2f       	mov	r25, r24
    2e52:	0e 94 6a 41 	call	0x82d4	; 0x82d4 <__floatsisf>
    2e56:	5b 01       	movw	r10, r22
    2e58:	6c 01       	movw	r12, r24
    2e5a:	c2 01       	movw	r24, r4
    2e5c:	88 58       	subi	r24, 0x88	; 136
    2e5e:	9f 4f       	sbci	r25, 0xFF	; 255
    2e60:	b1 01       	movw	r22, r2
    2e62:	0e 94 cc 46 	call	0x8d98	; 0x8d98 <__divmodhi4>
    2e66:	2c 01       	movw	r4, r24
    2e68:	c6 01       	movw	r24, r12
    2e6a:	b5 01       	movw	r22, r10
    2e6c:	d8 01       	movw	r26, r16
    2e6e:	f7 01       	movw	r30, r14
    2e70:	2b 2f       	mov	r18, r27
    2e72:	30 2f       	mov	r19, r16
    2e74:	4f 2f       	mov	r20, r31
    2e76:	5e 2d       	mov	r21, r14
    2e78:	0e 94 50 40 	call	0x80a0	; 0x80a0 <__subsf3>
    2e7c:	25 e3       	ldi	r18, 0x35	; 53
    2e7e:	3a ef       	ldi	r19, 0xFA	; 250
    2e80:	4e e8       	ldi	r20, 0x8E	; 142
    2e82:	5c e3       	ldi	r21, 0x3C	; 60
    2e84:	0e 94 2e 43 	call	0x865c	; 0x865c <__mulsf3>
    2e88:	0e 94 cc 40 	call	0x8198	; 0x8198 <cos>
    2e8c:	3b 01       	movw	r6, r22
    2e8e:	4c 01       	movw	r8, r24
    2e90:	c6 01       	movw	r24, r12
    2e92:	b5 01       	movw	r22, r10
    2e94:	b9 85       	ldd	r27, Y+9	; 0x09
    2e96:	aa 85       	ldd	r26, Y+10	; 0x0a
    2e98:	ab 84       	ldd	r10, Y+11	; 0x0b
    2e9a:	dc 84       	ldd	r13, Y+12	; 0x0c
    2e9c:	2b 2f       	mov	r18, r27
    2e9e:	3a 2f       	mov	r19, r26
    2ea0:	4a 2d       	mov	r20, r10
    2ea2:	5d 2d       	mov	r21, r13
    2ea4:	0e 94 50 40 	call	0x80a0	; 0x80a0 <__subsf3>
    2ea8:	25 e3       	ldi	r18, 0x35	; 53
    2eaa:	3a ef       	ldi	r19, 0xFA	; 250
    2eac:	4e e8       	ldi	r20, 0x8E	; 142
    2eae:	5c e3       	ldi	r21, 0x3C	; 60
    2eb0:	0e 94 2e 43 	call	0x865c	; 0x865c <__mulsf3>
    2eb4:	0e 94 cc 40 	call	0x8198	; 0x8198 <cos>
    2eb8:	5b 01       	movw	r10, r22
    2eba:	6c 01       	movw	r12, r24
    2ebc:	6d 81       	ldd	r22, Y+5	; 0x05
    2ebe:	7e 81       	ldd	r23, Y+6	; 0x06
    2ec0:	8f 81       	ldd	r24, Y+7	; 0x07
    2ec2:	98 85       	ldd	r25, Y+8	; 0x08
    2ec4:	a4 01       	movw	r20, r8
    2ec6:	93 01       	movw	r18, r6
    2ec8:	0e 94 2e 43 	call	0x865c	; 0x865c <__mulsf3>
    2ecc:	3b 01       	movw	r6, r22
    2ece:	4c 01       	movw	r8, r24
    2ed0:	69 81       	ldd	r22, Y+1	; 0x01
    2ed2:	7a 81       	ldd	r23, Y+2	; 0x02
    2ed4:	8b 81       	ldd	r24, Y+3	; 0x03
    2ed6:	9c 81       	ldd	r25, Y+4	; 0x04
    2ed8:	a6 01       	movw	r20, r12
    2eda:	95 01       	movw	r18, r10
    2edc:	0e 94 2e 43 	call	0x865c	; 0x865c <__mulsf3>
    2ee0:	9b 01       	movw	r18, r22
    2ee2:	ac 01       	movw	r20, r24
    2ee4:	c4 01       	movw	r24, r8
    2ee6:	b3 01       	movw	r22, r6
    2ee8:	0e 94 51 40 	call	0x80a2	; 0x80a2 <__addsf3>
    2eec:	bd 85       	ldd	r27, Y+13	; 0x0d
    2eee:	ae 85       	ldd	r26, Y+14	; 0x0e
    2ef0:	df 84       	ldd	r13, Y+15	; 0x0f
    2ef2:	a8 88       	ldd	r10, Y+16	; 0x10
    2ef4:	2b 2f       	mov	r18, r27
    2ef6:	3a 2f       	mov	r19, r26
    2ef8:	4d 2d       	mov	r20, r13
    2efa:	5a 2d       	mov	r21, r10
    2efc:	0e 94 50 40 	call	0x80a0	; 0x80a0 <__subsf3>
    2f00:	2f e6       	ldi	r18, 0x6F	; 111
    2f02:	32 e1       	ldi	r19, 0x12	; 18
    2f04:	43 e8       	ldi	r20, 0x83	; 131
    2f06:	56 e4       	ldi	r21, 0x46	; 70
    2f08:	0e 94 2e 43 	call	0x865c	; 0x865c <__mulsf3>
    2f0c:	23 e3       	ldi	r18, 0x33	; 51
    2f0e:	33 e3       	ldi	r19, 0x33	; 51
    2f10:	43 e2       	ldi	r20, 0x23	; 35
    2f12:	50 ec       	ldi	r21, 0xC0	; 192
    2f14:	0e 94 2e 43 	call	0x865c	; 0x865c <__mulsf3>
    2f18:	0e 94 37 41 	call	0x826e	; 0x826e <__fixsfsi>
    2f1c:	ab 01       	movw	r20, r22
    2f1e:	bc 01       	movw	r22, r24
    2f20:	89 89       	ldd	r24, Y+17	; 0x11
    2f22:	0e 94 96 13 	call	0x272c	; 0x272c <SetVelocity>
    2f26:	a9 89       	ldd	r26, Y+17	; 0x11
    2f28:	ba 89       	ldd	r27, Y+18	; 0x12
    2f2a:	11 96       	adiw	r26, 0x01	; 1
    2f2c:	ba 8b       	std	Y+18, r27	; 0x12
    2f2e:	a9 8b       	std	Y+17, r26	; 0x11
    2f30:	a3 30       	cpi	r26, 0x03	; 3
    2f32:	b1 05       	cpc	r27, r1
    2f34:	09 f0       	breq	.+2      	; 0x2f38 <speed+0x212>
    2f36:	88 cf       	rjmp	.-240    	; 0x2e48 <speed+0x122>
    2f38:	0e 94 fa 11 	call	0x23f4	; 0x23f4 <StartMotion>
    2f3c:	0e 94 4e 15 	call	0x2a9c	; 0x2a9c <get_gyro>
    2f40:	62 96       	adiw	r28, 0x12	; 18
    2f42:	0f b6       	in	r0, 0x3f	; 63
    2f44:	f8 94       	cli
    2f46:	de bf       	out	0x3e, r29	; 62
    2f48:	0f be       	out	0x3f, r0	; 63
    2f4a:	cd bf       	out	0x3d, r28	; 61
    2f4c:	cf 91       	pop	r28
    2f4e:	df 91       	pop	r29
    2f50:	1f 91       	pop	r17
    2f52:	0f 91       	pop	r16
    2f54:	ff 90       	pop	r15
    2f56:	ef 90       	pop	r14
    2f58:	df 90       	pop	r13
    2f5a:	cf 90       	pop	r12
    2f5c:	bf 90       	pop	r11
    2f5e:	af 90       	pop	r10
    2f60:	9f 90       	pop	r9
    2f62:	8f 90       	pop	r8
    2f64:	7f 90       	pop	r7
    2f66:	6f 90       	pop	r6
    2f68:	5f 90       	pop	r5
    2f6a:	4f 90       	pop	r4
    2f6c:	3f 90       	pop	r3
    2f6e:	2f 90       	pop	r2
    2f70:	08 95       	ret

00002f72 <wrcm>:
    2f72:	2f 92       	push	r2
    2f74:	3f 92       	push	r3
    2f76:	4f 92       	push	r4
    2f78:	5f 92       	push	r5
    2f7a:	6f 92       	push	r6
    2f7c:	7f 92       	push	r7
    2f7e:	8f 92       	push	r8
    2f80:	9f 92       	push	r9
    2f82:	af 92       	push	r10
    2f84:	bf 92       	push	r11
    2f86:	cf 92       	push	r12
    2f88:	df 92       	push	r13
    2f8a:	ef 92       	push	r14
    2f8c:	ff 92       	push	r15
    2f8e:	0f 93       	push	r16
    2f90:	1f 93       	push	r17
    2f92:	df 93       	push	r29
    2f94:	cf 93       	push	r28
    2f96:	cd b7       	in	r28, 0x3d	; 61
    2f98:	de b7       	in	r29, 0x3e	; 62
    2f9a:	2c 97       	sbiw	r28, 0x0c	; 12
    2f9c:	0f b6       	in	r0, 0x3f	; 63
    2f9e:	f8 94       	cli
    2fa0:	de bf       	out	0x3e, r29	; 62
    2fa2:	0f be       	out	0x3f, r0	; 63
    2fa4:	cd bf       	out	0x3d, r28	; 61
    2fa6:	5b 01       	movw	r10, r22
    2fa8:	6c 01       	movw	r12, r24
    2faa:	39 01       	movw	r6, r18
    2fac:	4a 01       	movw	r8, r20
    2fae:	17 01       	movw	r2, r14
    2fb0:	28 01       	movw	r4, r16
    2fb2:	60 91 7e 02 	lds	r22, 0x027E
    2fb6:	70 91 7f 02 	lds	r23, 0x027F
    2fba:	80 91 80 02 	lds	r24, 0x0280
    2fbe:	90 91 81 02 	lds	r25, 0x0281
    2fc2:	20 91 82 02 	lds	r18, 0x0282
    2fc6:	30 91 83 02 	lds	r19, 0x0283
    2fca:	40 91 84 02 	lds	r20, 0x0284
    2fce:	50 91 85 02 	lds	r21, 0x0285
    2fd2:	e0 90 7e 02 	lds	r14, 0x027E
    2fd6:	f0 90 7f 02 	lds	r15, 0x027F
    2fda:	00 91 80 02 	lds	r16, 0x0280
    2fde:	10 91 81 02 	lds	r17, 0x0281
    2fe2:	e0 92 82 02 	sts	0x0282, r14
    2fe6:	f0 92 83 02 	sts	0x0283, r15
    2fea:	00 93 84 02 	sts	0x0284, r16
    2fee:	10 93 85 02 	sts	0x0285, r17
    2ff2:	e0 90 76 02 	lds	r14, 0x0276
    2ff6:	f0 90 77 02 	lds	r15, 0x0277
    2ffa:	00 91 78 02 	lds	r16, 0x0278
    2ffe:	10 91 79 02 	lds	r17, 0x0279
    3002:	0e 94 50 40 	call	0x80a0	; 0x80a0 <__subsf3>
    3006:	9b 01       	movw	r18, r22
    3008:	ac 01       	movw	r20, r24
    300a:	c8 01       	movw	r24, r16
    300c:	b7 01       	movw	r22, r14
    300e:	0e 94 50 40 	call	0x80a0	; 0x80a0 <__subsf3>
    3012:	9b 01       	movw	r18, r22
    3014:	ac 01       	movw	r20, r24
    3016:	20 93 76 02 	sts	0x0276, r18
    301a:	30 93 77 02 	sts	0x0277, r19
    301e:	40 93 78 02 	sts	0x0278, r20
    3022:	50 93 79 02 	sts	0x0279, r21
    3026:	c6 01       	movw	r24, r12
    3028:	b5 01       	movw	r22, r10
    302a:	20 e0       	ldi	r18, 0x00	; 0
    302c:	30 e0       	ldi	r19, 0x00	; 0
    302e:	a9 01       	movw	r20, r18
    3030:	0e 94 c8 40 	call	0x8190	; 0x8190 <__cmpsf2>
    3034:	88 23       	and	r24, r24
    3036:	51 f4       	brne	.+20     	; 0x304c <wrcm+0xda>
    3038:	c4 01       	movw	r24, r8
    303a:	b3 01       	movw	r22, r6
    303c:	20 e0       	ldi	r18, 0x00	; 0
    303e:	30 e0       	ldi	r19, 0x00	; 0
    3040:	a9 01       	movw	r20, r18
    3042:	0e 94 c8 40 	call	0x8190	; 0x8190 <__cmpsf2>
    3046:	88 23       	and	r24, r24
    3048:	09 f4       	brne	.+2      	; 0x304c <wrcm+0xda>
    304a:	d2 c0       	rjmp	.+420    	; 0x31f0 <wrcm+0x27e>
    304c:	c6 01       	movw	r24, r12
    304e:	b5 01       	movw	r22, r10
    3050:	20 e0       	ldi	r18, 0x00	; 0
    3052:	30 e0       	ldi	r19, 0x00	; 0
    3054:	48 ec       	ldi	r20, 0xC8	; 200
    3056:	52 e4       	ldi	r21, 0x42	; 66
    3058:	0e 94 cf 40 	call	0x819e	; 0x819e <__divsf3>
    305c:	69 83       	std	Y+1, r22	; 0x01
    305e:	7a 83       	std	Y+2, r23	; 0x02
    3060:	8b 83       	std	Y+3, r24	; 0x03
    3062:	9c 83       	std	Y+4, r25	; 0x04
    3064:	c4 01       	movw	r24, r8
    3066:	b3 01       	movw	r22, r6
    3068:	20 e0       	ldi	r18, 0x00	; 0
    306a:	30 e0       	ldi	r19, 0x00	; 0
    306c:	48 ec       	ldi	r20, 0xC8	; 200
    306e:	52 e4       	ldi	r21, 0x42	; 66
    3070:	0e 94 cf 40 	call	0x819e	; 0x819e <__divsf3>
    3074:	6d 83       	std	Y+5, r22	; 0x05
    3076:	7e 83       	std	Y+6, r23	; 0x06
    3078:	8f 83       	std	Y+7, r24	; 0x07
    307a:	98 87       	std	Y+8, r25	; 0x08
    307c:	60 91 76 02 	lds	r22, 0x0276
    3080:	70 91 77 02 	lds	r23, 0x0277
    3084:	80 91 78 02 	lds	r24, 0x0278
    3088:	90 91 79 02 	lds	r25, 0x0279
    308c:	a2 01       	movw	r20, r4
    308e:	91 01       	movw	r18, r2
    3090:	0e 94 50 40 	call	0x80a0	; 0x80a0 <__subsf3>
    3094:	f6 2e       	mov	r15, r22
    3096:	07 2f       	mov	r16, r23
    3098:	18 2f       	mov	r17, r24
    309a:	e9 2e       	mov	r14, r25
    309c:	80 91 6e 02 	lds	r24, 0x026E
    30a0:	90 91 6f 02 	lds	r25, 0x026F
    30a4:	a0 91 70 02 	lds	r26, 0x0270
    30a8:	b0 91 71 02 	lds	r27, 0x0271
    30ac:	89 87       	std	Y+9, r24	; 0x09
    30ae:	9a 87       	std	Y+10, r25	; 0x0a
    30b0:	ab 87       	std	Y+11, r26	; 0x0b
    30b2:	bc 87       	std	Y+12, r27	; 0x0c
    30b4:	6f 2d       	mov	r22, r15
    30b6:	70 2f       	mov	r23, r16
    30b8:	81 2f       	mov	r24, r17
    30ba:	9e 2d       	mov	r25, r14
    30bc:	25 e3       	ldi	r18, 0x35	; 53
    30be:	3a ef       	ldi	r19, 0xFA	; 250
    30c0:	4e e8       	ldi	r20, 0x8E	; 142
    30c2:	5c e3       	ldi	r21, 0x3C	; 60
    30c4:	0e 94 2e 43 	call	0x865c	; 0x865c <__mulsf3>
    30c8:	0e 94 cc 40 	call	0x8198	; 0x8198 <cos>
    30cc:	3b 01       	movw	r6, r22
    30ce:	4c 01       	movw	r8, r24
    30d0:	6f 2d       	mov	r22, r15
    30d2:	70 2f       	mov	r23, r16
    30d4:	81 2f       	mov	r24, r17
    30d6:	9e 2d       	mov	r25, r14
    30d8:	20 e0       	ldi	r18, 0x00	; 0
    30da:	30 e0       	ldi	r19, 0x00	; 0
    30dc:	44 eb       	ldi	r20, 0xB4	; 180
    30de:	52 e4       	ldi	r21, 0x42	; 66
    30e0:	0e 94 51 40 	call	0x80a2	; 0x80a2 <__addsf3>
    30e4:	25 e3       	ldi	r18, 0x35	; 53
    30e6:	3a ef       	ldi	r19, 0xFA	; 250
    30e8:	4e e8       	ldi	r20, 0x8E	; 142
    30ea:	5c e3       	ldi	r21, 0x3C	; 60
    30ec:	0e 94 2e 43 	call	0x865c	; 0x865c <__mulsf3>
    30f0:	0e 94 cc 40 	call	0x8198	; 0x8198 <cos>
    30f4:	5b 01       	movw	r10, r22
    30f6:	6c 01       	movw	r12, r24
    30f8:	59 81       	ldd	r21, Y+1	; 0x01
    30fa:	4a 81       	ldd	r20, Y+2	; 0x02
    30fc:	3b 81       	ldd	r19, Y+3	; 0x03
    30fe:	2c 81       	ldd	r18, Y+4	; 0x04
    3100:	65 2f       	mov	r22, r21
    3102:	74 2f       	mov	r23, r20
    3104:	83 2f       	mov	r24, r19
    3106:	92 2f       	mov	r25, r18
    3108:	a4 01       	movw	r20, r8
    310a:	93 01       	movw	r18, r6
    310c:	0e 94 2e 43 	call	0x865c	; 0x865c <__mulsf3>
    3110:	1b 01       	movw	r2, r22
    3112:	2c 01       	movw	r4, r24
    3114:	5d 81       	ldd	r21, Y+5	; 0x05
    3116:	4e 81       	ldd	r20, Y+6	; 0x06
    3118:	3f 81       	ldd	r19, Y+7	; 0x07
    311a:	28 85       	ldd	r18, Y+8	; 0x08
    311c:	65 2f       	mov	r22, r21
    311e:	74 2f       	mov	r23, r20
    3120:	83 2f       	mov	r24, r19
    3122:	92 2f       	mov	r25, r18
    3124:	a6 01       	movw	r20, r12
    3126:	95 01       	movw	r18, r10
    3128:	0e 94 2e 43 	call	0x865c	; 0x865c <__mulsf3>
    312c:	9b 01       	movw	r18, r22
    312e:	ac 01       	movw	r20, r24
    3130:	c2 01       	movw	r24, r4
    3132:	b1 01       	movw	r22, r2
    3134:	0e 94 51 40 	call	0x80a2	; 0x80a2 <__addsf3>
    3138:	9b 01       	movw	r18, r22
    313a:	ac 01       	movw	r20, r24
    313c:	69 85       	ldd	r22, Y+9	; 0x09
    313e:	7a 85       	ldd	r23, Y+10	; 0x0a
    3140:	8b 85       	ldd	r24, Y+11	; 0x0b
    3142:	9c 85       	ldd	r25, Y+12	; 0x0c
    3144:	0e 94 51 40 	call	0x80a2	; 0x80a2 <__addsf3>
    3148:	9b 01       	movw	r18, r22
    314a:	ac 01       	movw	r20, r24
    314c:	20 93 6e 02 	sts	0x026E, r18
    3150:	30 93 6f 02 	sts	0x026F, r19
    3154:	40 93 70 02 	sts	0x0270, r20
    3158:	50 93 71 02 	sts	0x0271, r21
    315c:	20 90 72 02 	lds	r2, 0x0272
    3160:	30 90 73 02 	lds	r3, 0x0273
    3164:	40 90 74 02 	lds	r4, 0x0274
    3168:	50 90 75 02 	lds	r5, 0x0275
    316c:	6f 2d       	mov	r22, r15
    316e:	70 2f       	mov	r23, r16
    3170:	81 2f       	mov	r24, r17
    3172:	9e 2d       	mov	r25, r14
    3174:	20 e0       	ldi	r18, 0x00	; 0
    3176:	30 e0       	ldi	r19, 0x00	; 0
    3178:	44 eb       	ldi	r20, 0xB4	; 180
    317a:	52 e4       	ldi	r21, 0x42	; 66
    317c:	0e 94 50 40 	call	0x80a0	; 0x80a0 <__subsf3>
    3180:	25 e3       	ldi	r18, 0x35	; 53
    3182:	3a ef       	ldi	r19, 0xFA	; 250
    3184:	4e e8       	ldi	r20, 0x8E	; 142
    3186:	5c e3       	ldi	r21, 0x3C	; 60
    3188:	0e 94 2e 43 	call	0x865c	; 0x865c <__mulsf3>
    318c:	0e 94 cc 40 	call	0x8198	; 0x8198 <cos>
    3190:	7b 01       	movw	r14, r22
    3192:	8c 01       	movw	r16, r24
    3194:	5d 81       	ldd	r21, Y+5	; 0x05
    3196:	4e 81       	ldd	r20, Y+6	; 0x06
    3198:	3f 81       	ldd	r19, Y+7	; 0x07
    319a:	28 85       	ldd	r18, Y+8	; 0x08
    319c:	65 2f       	mov	r22, r21
    319e:	74 2f       	mov	r23, r20
    31a0:	83 2f       	mov	r24, r19
    31a2:	92 2f       	mov	r25, r18
    31a4:	a4 01       	movw	r20, r8
    31a6:	93 01       	movw	r18, r6
    31a8:	0e 94 2e 43 	call	0x865c	; 0x865c <__mulsf3>
    31ac:	5b 01       	movw	r10, r22
    31ae:	6c 01       	movw	r12, r24
    31b0:	59 81       	ldd	r21, Y+1	; 0x01
    31b2:	4a 81       	ldd	r20, Y+2	; 0x02
    31b4:	3b 81       	ldd	r19, Y+3	; 0x03
    31b6:	2c 81       	ldd	r18, Y+4	; 0x04
    31b8:	65 2f       	mov	r22, r21
    31ba:	74 2f       	mov	r23, r20
    31bc:	83 2f       	mov	r24, r19
    31be:	92 2f       	mov	r25, r18
    31c0:	a8 01       	movw	r20, r16
    31c2:	97 01       	movw	r18, r14
    31c4:	0e 94 2e 43 	call	0x865c	; 0x865c <__mulsf3>
    31c8:	9b 01       	movw	r18, r22
    31ca:	ac 01       	movw	r20, r24
    31cc:	c6 01       	movw	r24, r12
    31ce:	b5 01       	movw	r22, r10
    31d0:	0e 94 51 40 	call	0x80a2	; 0x80a2 <__addsf3>
    31d4:	9b 01       	movw	r18, r22
    31d6:	ac 01       	movw	r20, r24
    31d8:	c2 01       	movw	r24, r4
    31da:	b1 01       	movw	r22, r2
    31dc:	0e 94 51 40 	call	0x80a2	; 0x80a2 <__addsf3>
    31e0:	9b 01       	movw	r18, r22
    31e2:	ac 01       	movw	r20, r24
    31e4:	ee e6       	ldi	r30, 0x6E	; 110
    31e6:	f2 e0       	ldi	r31, 0x02	; 2
    31e8:	24 83       	std	Z+4, r18	; 0x04
    31ea:	35 83       	std	Z+5, r19	; 0x05
    31ec:	46 83       	std	Z+6, r20	; 0x06
    31ee:	57 83       	std	Z+7, r21	; 0x07
    31f0:	2c 96       	adiw	r28, 0x0c	; 12
    31f2:	0f b6       	in	r0, 0x3f	; 63
    31f4:	f8 94       	cli
    31f6:	de bf       	out	0x3e, r29	; 62
    31f8:	0f be       	out	0x3f, r0	; 63
    31fa:	cd bf       	out	0x3d, r28	; 61
    31fc:	cf 91       	pop	r28
    31fe:	df 91       	pop	r29
    3200:	1f 91       	pop	r17
    3202:	0f 91       	pop	r16
    3204:	ff 90       	pop	r15
    3206:	ef 90       	pop	r14
    3208:	df 90       	pop	r13
    320a:	cf 90       	pop	r12
    320c:	bf 90       	pop	r11
    320e:	af 90       	pop	r10
    3210:	9f 90       	pop	r9
    3212:	8f 90       	pop	r8
    3214:	7f 90       	pop	r7
    3216:	6f 90       	pop	r6
    3218:	5f 90       	pop	r5
    321a:	4f 90       	pop	r4
    321c:	3f 90       	pop	r3
    321e:	2f 90       	pop	r2
    3220:	08 95       	ret

00003222 <Omni>:

#define ginit(name)	oc=tot=gtc=psdTimer = 0;	for(int i = 0; i < 4; i++)	msp[i] = gsp[i] = 0; lcd(0,7,"%13s",name);
#define LE	oc=sgx=sgy=sga=psdTimer = 0; //새로추가

int Omni(int x, int y, int z, int ang, int sp, int ac)
{
    3222:	2f 92       	push	r2
    3224:	3f 92       	push	r3
    3226:	4f 92       	push	r4
    3228:	5f 92       	push	r5
    322a:	6f 92       	push	r6
    322c:	7f 92       	push	r7
    322e:	8f 92       	push	r8
    3230:	9f 92       	push	r9
    3232:	af 92       	push	r10
    3234:	bf 92       	push	r11
    3236:	cf 92       	push	r12
    3238:	df 92       	push	r13
    323a:	ef 92       	push	r14
    323c:	ff 92       	push	r15
    323e:	0f 93       	push	r16
    3240:	1f 93       	push	r17
    3242:	df 93       	push	r29
    3244:	cf 93       	push	r28
    3246:	cd b7       	in	r28, 0x3d	; 61
    3248:	de b7       	in	r29, 0x3e	; 62
    324a:	2e 97       	sbiw	r28, 0x0e	; 14
    324c:	0f b6       	in	r0, 0x3f	; 63
    324e:	f8 94       	cli
    3250:	de bf       	out	0x3e, r29	; 62
    3252:	0f be       	out	0x3f, r0	; 63
    3254:	cd bf       	out	0x3d, r28	; 61
    3256:	18 01       	movw	r2, r16
    3258:	87 01       	movw	r16, r14
	int xv[4]={x,y,-z,-ang},d=1;
    325a:	9a 83       	std	Y+2, r25	; 0x02
    325c:	89 83       	std	Y+1, r24	; 0x01
    325e:	7c 83       	std	Y+4, r23	; 0x04
    3260:	6b 83       	std	Y+3, r22	; 0x03
    3262:	50 95       	com	r21
    3264:	41 95       	neg	r20
    3266:	5f 4f       	sbci	r21, 0xFF	; 255
    3268:	5e 83       	std	Y+6, r21	; 0x06
    326a:	4d 83       	std	Y+5, r20	; 0x05
    326c:	30 95       	com	r19
    326e:	21 95       	neg	r18
    3270:	3f 4f       	sbci	r19, 0xFF	; 255
    3272:	38 87       	std	Y+8, r19	; 0x08
    3274:	2f 83       	std	Y+7, r18	; 0x07
    3276:	ce 01       	movw	r24, r28
    3278:	01 96       	adiw	r24, 0x01	; 1
    327a:	9a 87       	std	Y+10, r25	; 0x0a
    327c:	89 87       	std	Y+9, r24	; 0x09
#define OS	OmniSet(tot,ac);

#define ginit(name)	oc=tot=gtc=psdTimer = 0;	for(int i = 0; i < 4; i++)	msp[i] = gsp[i] = 0; lcd(0,7,"%13s",name);
#define LE	oc=sgx=sgy=sga=psdTimer = 0; //새로추가

int Omni(int x, int y, int z, int ang, int sp, int ac)
    327e:	79 e0       	ldi	r23, 0x09	; 9
    3280:	47 2e       	mov	r4, r23
    3282:	51 2c       	mov	r5, r1
    3284:	4c 0e       	add	r4, r28
    3286:	5d 1e       	adc	r5, r29
    3288:	7c 01       	movw	r14, r24
{
	int xv[4]={x,y,-z,-ang},d=1;
	double mtp=0;
    328a:	66 24       	eor	r6, r6
    328c:	77 24       	eor	r7, r7
    328e:	cc 24       	eor	r12, r12
    3290:	dd 24       	eor	r13, r13

	for(int i=0; i<4; i++)	if(mtp <fabs(xv[i])) mtp = fabs(xv[i]);
    3292:	d7 01       	movw	r26, r14
    3294:	6d 91       	ld	r22, X+
    3296:	7d 91       	ld	r23, X+
    3298:	7d 01       	movw	r14, r26
    329a:	88 27       	eor	r24, r24
    329c:	77 fd       	sbrc	r23, 7
    329e:	80 95       	com	r24
    32a0:	98 2f       	mov	r25, r24
    32a2:	0e 94 6a 41 	call	0x82d4	; 0x82d4 <__floatsisf>
    32a6:	4b 01       	movw	r8, r22
    32a8:	5c 01       	movw	r10, r24
    32aa:	e8 94       	clt
    32ac:	b7 f8       	bld	r11, 7
    32ae:	66 2d       	mov	r22, r6
    32b0:	77 2d       	mov	r23, r7
    32b2:	8c 2d       	mov	r24, r12
    32b4:	9d 2d       	mov	r25, r13
    32b6:	a5 01       	movw	r20, r10
    32b8:	94 01       	movw	r18, r8
    32ba:	0e 94 c8 40 	call	0x8190	; 0x8190 <__cmpsf2>
    32be:	87 ff       	sbrs	r24, 7
    32c0:	02 c0       	rjmp	.+4      	; 0x32c6 <Omni+0xa4>
    32c2:	34 01       	movw	r6, r8
    32c4:	65 01       	movw	r12, r10
    32c6:	e4 14       	cp	r14, r4
    32c8:	f5 04       	cpc	r15, r5
    32ca:	19 f7       	brne	.-58     	; 0x3292 <Omni+0x70>
    32cc:	ee 24       	eor	r14, r14
    32ce:	ff 24       	eor	r15, r15
	for(int i=0; i<4; i++)	msp[i] = xv[i]/mtp * sp;
    32d0:	c1 01       	movw	r24, r2
    32d2:	aa 27       	eor	r26, r26
    32d4:	97 fd       	sbrc	r25, 7
    32d6:	a0 95       	com	r26
    32d8:	ba 2f       	mov	r27, r26
    32da:	8b 87       	std	Y+11, r24	; 0x0b
    32dc:	9c 87       	std	Y+12, r25	; 0x0c
    32de:	ad 87       	std	Y+13, r26	; 0x0d
    32e0:	be 87       	std	Y+14, r27	; 0x0e
    32e2:	a9 85       	ldd	r26, Y+9	; 0x09
    32e4:	ba 85       	ldd	r27, Y+10	; 0x0a
    32e6:	ad 90       	ld	r10, X+
    32e8:	bd 90       	ld	r11, X+
    32ea:	ba 87       	std	Y+10, r27	; 0x0a
    32ec:	a9 87       	std	Y+9, r26	; 0x09
    32ee:	6b 85       	ldd	r22, Y+11	; 0x0b
    32f0:	7c 85       	ldd	r23, Y+12	; 0x0c
    32f2:	8d 85       	ldd	r24, Y+13	; 0x0d
    32f4:	9e 85       	ldd	r25, Y+14	; 0x0e
    32f6:	0e 94 6a 41 	call	0x82d4	; 0x82d4 <__floatsisf>
    32fa:	1b 01       	movw	r2, r22
    32fc:	2c 01       	movw	r4, r24
    32fe:	b5 01       	movw	r22, r10
    3300:	88 27       	eor	r24, r24
    3302:	77 fd       	sbrc	r23, 7
    3304:	80 95       	com	r24
    3306:	98 2f       	mov	r25, r24
    3308:	0e 94 6a 41 	call	0x82d4	; 0x82d4 <__floatsisf>
    330c:	26 2d       	mov	r18, r6
    330e:	37 2d       	mov	r19, r7
    3310:	4c 2d       	mov	r20, r12
    3312:	5d 2d       	mov	r21, r13
    3314:	0e 94 cf 40 	call	0x819e	; 0x819e <__divsf3>
    3318:	a2 01       	movw	r20, r4
    331a:	91 01       	movw	r18, r2
    331c:	0e 94 2e 43 	call	0x865c	; 0x865c <__mulsf3>
    3320:	9b 01       	movw	r18, r22
    3322:	ac 01       	movw	r20, r24
    3324:	f7 01       	movw	r30, r14
    3326:	ee 0f       	add	r30, r30
    3328:	ff 1f       	adc	r31, r31
    332a:	ee 0f       	add	r30, r30
    332c:	ff 1f       	adc	r31, r31
    332e:	e9 5c       	subi	r30, 0xC9	; 201
    3330:	fc 4f       	sbci	r31, 0xFC	; 252
    3332:	20 83       	st	Z, r18
    3334:	31 83       	std	Z+1, r19	; 0x01
    3336:	42 83       	std	Z+2, r20	; 0x02
    3338:	53 83       	std	Z+3, r21	; 0x03
    333a:	08 94       	sec
    333c:	e1 1c       	adc	r14, r1
    333e:	f1 1c       	adc	r15, r1
    3340:	b4 e0       	ldi	r27, 0x04	; 4
    3342:	eb 16       	cp	r14, r27
    3344:	f1 04       	cpc	r15, r1
    3346:	69 f6       	brne	.-102    	; 0x32e2 <Omni+0xc0>

	if(ac<100 && ac) d= 2;
    3348:	04 36       	cpi	r16, 0x64	; 100
    334a:	11 05       	cpc	r17, r1
    334c:	2c f4       	brge	.+10     	; 0x3358 <Omni+0x136>
    334e:	01 15       	cp	r16, r1
    3350:	11 05       	cpc	r17, r1
    3352:	09 f0       	breq	.+2      	; 0x3356 <Omni+0x134>
    3354:	51 c0       	rjmp	.+162    	; 0x33f8 <Omni+0x1d6>
    3356:	05 c0       	rjmp	.+10     	; 0x3362 <Omni+0x140>
	if(ac>100) ac-=100;
    3358:	04 36       	cpi	r16, 0x64	; 100
    335a:	11 05       	cpc	r17, r1
    335c:	11 f0       	breq	.+4      	; 0x3362 <Omni+0x140>
    335e:	04 56       	subi	r16, 0x64	; 100
    3360:	10 40       	sbci	r17, 0x00	; 0
#define ginit(name)	oc=tot=gtc=psdTimer = 0;	for(int i = 0; i < 4; i++)	msp[i] = gsp[i] = 0; lcd(0,7,"%13s",name);
#define LE	oc=sgx=sgy=sga=psdTimer = 0; //새로추가

int Omni(int x, int y, int z, int ang, int sp, int ac)
{
	int xv[4]={x,y,-z,-ang},d=1;
    3362:	91 e0       	ldi	r25, 0x01	; 1
    3364:	e9 2e       	mov	r14, r25
    3366:	f1 2c       	mov	r15, r1
	for(int i=0; i<4; i++)	msp[i] = xv[i]/mtp * sp;

	if(ac<100 && ac) d= 2;
	if(ac>100) ac-=100;

	return ceil(mtp*100/sp) + (abs(ac)/d-(2-d));
    3368:	66 2d       	mov	r22, r6
    336a:	77 2d       	mov	r23, r7
    336c:	8c 2d       	mov	r24, r12
    336e:	9d 2d       	mov	r25, r13
    3370:	20 e0       	ldi	r18, 0x00	; 0
    3372:	30 e0       	ldi	r19, 0x00	; 0
    3374:	48 ec       	ldi	r20, 0xC8	; 200
    3376:	52 e4       	ldi	r21, 0x42	; 66
    3378:	0e 94 2e 43 	call	0x865c	; 0x865c <__mulsf3>
    337c:	a2 01       	movw	r20, r4
    337e:	91 01       	movw	r18, r2
    3380:	0e 94 cf 40 	call	0x819e	; 0x819e <__divsf3>
    3384:	0e 94 b5 40 	call	0x816a	; 0x816a <ceil>
    3388:	5b 01       	movw	r10, r22
    338a:	6c 01       	movw	r12, r24
    338c:	97 01       	movw	r18, r14
    338e:	22 50       	subi	r18, 0x02	; 2
    3390:	30 40       	sbci	r19, 0x00	; 0
    3392:	c8 01       	movw	r24, r16
    3394:	17 ff       	sbrs	r17, 7
    3396:	03 c0       	rjmp	.+6      	; 0x339e <Omni+0x17c>
    3398:	90 95       	com	r25
    339a:	81 95       	neg	r24
    339c:	9f 4f       	sbci	r25, 0xFF	; 255
    339e:	b7 01       	movw	r22, r14
    33a0:	0e 94 cc 46 	call	0x8d98	; 0x8d98 <__divmodhi4>
    33a4:	62 0f       	add	r22, r18
    33a6:	73 1f       	adc	r23, r19
    33a8:	88 27       	eor	r24, r24
    33aa:	77 fd       	sbrc	r23, 7
    33ac:	80 95       	com	r24
    33ae:	98 2f       	mov	r25, r24
    33b0:	0e 94 6a 41 	call	0x82d4	; 0x82d4 <__floatsisf>
    33b4:	9b 01       	movw	r18, r22
    33b6:	ac 01       	movw	r20, r24
    33b8:	c6 01       	movw	r24, r12
    33ba:	b5 01       	movw	r22, r10
    33bc:	0e 94 51 40 	call	0x80a2	; 0x80a2 <__addsf3>
    33c0:	0e 94 37 41 	call	0x826e	; 0x826e <__fixsfsi>
}
    33c4:	cb 01       	movw	r24, r22
    33c6:	2e 96       	adiw	r28, 0x0e	; 14
    33c8:	0f b6       	in	r0, 0x3f	; 63
    33ca:	f8 94       	cli
    33cc:	de bf       	out	0x3e, r29	; 62
    33ce:	0f be       	out	0x3f, r0	; 63
    33d0:	cd bf       	out	0x3d, r28	; 61
    33d2:	cf 91       	pop	r28
    33d4:	df 91       	pop	r29
    33d6:	1f 91       	pop	r17
    33d8:	0f 91       	pop	r16
    33da:	ff 90       	pop	r15
    33dc:	ef 90       	pop	r14
    33de:	df 90       	pop	r13
    33e0:	cf 90       	pop	r12
    33e2:	bf 90       	pop	r11
    33e4:	af 90       	pop	r10
    33e6:	9f 90       	pop	r9
    33e8:	8f 90       	pop	r8
    33ea:	7f 90       	pop	r7
    33ec:	6f 90       	pop	r6
    33ee:	5f 90       	pop	r5
    33f0:	4f 90       	pop	r4
    33f2:	3f 90       	pop	r3
    33f4:	2f 90       	pop	r2
    33f6:	08 95       	ret
	double mtp=0;

	for(int i=0; i<4; i++)	if(mtp <fabs(xv[i])) mtp = fabs(xv[i]);
	for(int i=0; i<4; i++)	msp[i] = xv[i]/mtp * sp;

	if(ac<100 && ac) d= 2;
    33f8:	82 e0       	ldi	r24, 0x02	; 2
    33fa:	e8 2e       	mov	r14, r24
    33fc:	f1 2c       	mov	r15, r1
    33fe:	b4 cf       	rjmp	.-152    	; 0x3368 <Omni+0x146>

00003400 <OmniSet>:

	return ceil(mtp*100/sp) + (abs(ac)/d-(2-d));
}

void OmniSet(int tot, int ac)
{
    3400:	2f 92       	push	r2
    3402:	3f 92       	push	r3
    3404:	4f 92       	push	r4
    3406:	5f 92       	push	r5
    3408:	6f 92       	push	r6
    340a:	7f 92       	push	r7
    340c:	8f 92       	push	r8
    340e:	9f 92       	push	r9
    3410:	af 92       	push	r10
    3412:	bf 92       	push	r11
    3414:	cf 92       	push	r12
    3416:	df 92       	push	r13
    3418:	ef 92       	push	r14
    341a:	ff 92       	push	r15
    341c:	0f 93       	push	r16
    341e:	1f 93       	push	r17
    3420:	df 93       	push	r29
    3422:	cf 93       	push	r28
    3424:	cd b7       	in	r28, 0x3d	; 61
    3426:	de b7       	in	r29, 0x3e	; 62
    3428:	2e 97       	sbiw	r28, 0x0e	; 14
    342a:	0f b6       	in	r0, 0x3f	; 63
    342c:	f8 94       	cli
    342e:	de bf       	out	0x3e, r29	; 62
    3430:	0f be       	out	0x3f, r0	; 63
    3432:	cd bf       	out	0x3d, r28	; 61
	int m=(ac>100 || ac<0)?1:0,ac2;
    3434:	7a 83       	std	Y+2, r23	; 0x02
    3436:	69 83       	std	Y+1, r22	; 0x01
	if(ac>100) ac-=100;
    3438:	65 36       	cpi	r22, 0x65	; 101
    343a:	71 05       	cpc	r23, r1
    343c:	14 f0       	brlt	.+4      	; 0x3442 <OmniSet+0x42>
    343e:	64 56       	subi	r22, 0x64	; 100
    3440:	70 40       	sbci	r23, 0x00	; 0
	ac2 = abs(ac);
    3442:	4b 01       	movw	r8, r22
    3444:	77 ff       	sbrs	r23, 7
    3446:	04 c0       	rjmp	.+8      	; 0x3450 <OmniSet+0x50>
    3448:	88 24       	eor	r8, r8
    344a:	99 24       	eor	r9, r9
    344c:	86 1a       	sub	r8, r22
    344e:	97 0a       	sbc	r9, r23

	for(int i=0; i<4; i++)
	{
		if(oc>=0 && !(ac<0))	gsp[i] = (double)(msp[i] * (oc+1)/ac2);
    3450:	e0 90 38 02 	lds	r14, 0x0238
    3454:	f0 90 39 02 	lds	r15, 0x0239
    3458:	a7 01       	movw	r20, r14
    345a:	4f 5f       	subi	r20, 0xFF	; 255
    345c:	5f 4f       	sbci	r21, 0xFF	; 255
		if(oc>=ac2 || (ac<0))	gsp[i] = msp[i];
		if(oc>=tot-ac2+1 &&m)	gsp[i] = (double)(msp[i] * (tot-oc)/ac2);
    345e:	9c 01       	movw	r18, r24
    3460:	2e 19       	sub	r18, r14
    3462:	3f 09       	sbc	r19, r15
{
	int m=(ac>100 || ac<0)?1:0,ac2;
	if(ac>100) ac-=100;
	ac2 = abs(ac);

	for(int i=0; i<4; i++)
    3464:	00 e0       	ldi	r16, 0x00	; 0
    3466:	10 e0       	ldi	r17, 0x00	; 0
	{
		if(oc>=0 && !(ac<0))	gsp[i] = (double)(msp[i] * (oc+1)/ac2);
    3468:	5a 01       	movw	r10, r20
    346a:	cc 24       	eor	r12, r12
    346c:	b7 fc       	sbrc	r11, 7
    346e:	c0 94       	com	r12
    3470:	dc 2c       	mov	r13, r12
    3472:	ab 82       	std	Y+3, r10	; 0x03
    3474:	bc 82       	std	Y+4, r11	; 0x04
    3476:	cd 82       	std	Y+5, r12	; 0x05
    3478:	de 82       	std	Y+6, r13	; 0x06
    347a:	14 01       	movw	r2, r8
    347c:	44 24       	eor	r4, r4
    347e:	37 fc       	sbrc	r3, 7
    3480:	40 94       	com	r4
    3482:	54 2c       	mov	r5, r4
		if(oc>=ac2 || (ac<0))	gsp[i] = msp[i];
		if(oc>=tot-ac2+1 &&m)	gsp[i] = (double)(msp[i] * (tot-oc)/ac2);
    3484:	6c 01       	movw	r12, r24
    3486:	c8 18       	sub	r12, r8
    3488:	d9 08       	sbc	r13, r9
    348a:	d8 86       	std	Y+8, r13	; 0x08
    348c:	cf 82       	std	Y+7, r12	; 0x07
    348e:	c9 01       	movw	r24, r18
    3490:	aa 27       	eor	r26, r26
    3492:	97 fd       	sbrc	r25, 7
    3494:	a0 95       	com	r26
    3496:	ba 2f       	mov	r27, r26
    3498:	89 87       	std	Y+9, r24	; 0x09
    349a:	9a 87       	std	Y+10, r25	; 0x0a
    349c:	ab 87       	std	Y+11, r26	; 0x0b
    349e:	bc 87       	std	Y+12, r27	; 0x0c
    34a0:	7e 87       	std	Y+14, r23	; 0x0e
    34a2:	6d 87       	std	Y+13, r22	; 0x0d
    34a4:	34 01       	movw	r6, r8
	if(ac>100) ac-=100;
	ac2 = abs(ac);

	for(int i=0; i<4; i++)
	{
		if(oc>=0 && !(ac<0))	gsp[i] = (double)(msp[i] * (oc+1)/ac2);
    34a6:	f7 fc       	sbrc	r15, 7
    34a8:	34 c0       	rjmp	.+104    	; 0x3512 <OmniSet+0x112>
    34aa:	ad 85       	ldd	r26, Y+13	; 0x0d
    34ac:	be 85       	ldd	r27, Y+14	; 0x0e
    34ae:	b7 fd       	sbrc	r27, 7
    34b0:	2d c0       	rjmp	.+90     	; 0x350c <OmniSet+0x10c>
    34b2:	48 01       	movw	r8, r16
    34b4:	88 0c       	add	r8, r8
    34b6:	99 1c       	adc	r9, r9
    34b8:	88 0c       	add	r8, r8
    34ba:	99 1c       	adc	r9, r9
    34bc:	f4 01       	movw	r30, r8
    34be:	e9 5c       	subi	r30, 0xC9	; 201
    34c0:	fc 4f       	sbci	r31, 0xFC	; 252
    34c2:	a0 80       	ld	r10, Z
    34c4:	b1 80       	ldd	r11, Z+1	; 0x01
    34c6:	c2 80       	ldd	r12, Z+2	; 0x02
    34c8:	d3 80       	ldd	r13, Z+3	; 0x03
    34ca:	6b 81       	ldd	r22, Y+3	; 0x03
    34cc:	7c 81       	ldd	r23, Y+4	; 0x04
    34ce:	8d 81       	ldd	r24, Y+5	; 0x05
    34d0:	9e 81       	ldd	r25, Y+6	; 0x06
    34d2:	0e 94 6a 41 	call	0x82d4	; 0x82d4 <__floatsisf>
    34d6:	9b 01       	movw	r18, r22
    34d8:	ac 01       	movw	r20, r24
    34da:	c6 01       	movw	r24, r12
    34dc:	b5 01       	movw	r22, r10
    34de:	0e 94 2e 43 	call	0x865c	; 0x865c <__mulsf3>
    34e2:	5b 01       	movw	r10, r22
    34e4:	6c 01       	movw	r12, r24
    34e6:	c2 01       	movw	r24, r4
    34e8:	b1 01       	movw	r22, r2
    34ea:	0e 94 6a 41 	call	0x82d4	; 0x82d4 <__floatsisf>
    34ee:	9b 01       	movw	r18, r22
    34f0:	ac 01       	movw	r20, r24
    34f2:	c6 01       	movw	r24, r12
    34f4:	b5 01       	movw	r22, r10
    34f6:	0e 94 cf 40 	call	0x819e	; 0x819e <__divsf3>
    34fa:	9b 01       	movw	r18, r22
    34fc:	ac 01       	movw	r20, r24
    34fe:	f4 01       	movw	r30, r8
    3500:	e7 5b       	subi	r30, 0xB7	; 183
    3502:	fc 4f       	sbci	r31, 0xFC	; 252
    3504:	20 83       	st	Z, r18
    3506:	31 83       	std	Z+1, r19	; 0x01
    3508:	42 83       	std	Z+2, r20	; 0x02
    350a:	53 83       	std	Z+3, r21	; 0x03
		if(oc>=ac2 || (ac<0))	gsp[i] = msp[i];
    350c:	e6 14       	cp	r14, r6
    350e:	f7 04       	cpc	r15, r7
    3510:	24 f4       	brge	.+8      	; 0x351a <OmniSet+0x11a>
    3512:	ed 85       	ldd	r30, Y+13	; 0x0d
    3514:	fe 85       	ldd	r31, Y+14	; 0x0e
    3516:	f7 ff       	sbrs	r31, 7
    3518:	13 c0       	rjmp	.+38     	; 0x3540 <OmniSet+0x140>
    351a:	98 01       	movw	r18, r16
    351c:	22 0f       	add	r18, r18
    351e:	33 1f       	adc	r19, r19
    3520:	22 0f       	add	r18, r18
    3522:	33 1f       	adc	r19, r19
    3524:	f9 01       	movw	r30, r18
    3526:	e9 5c       	subi	r30, 0xC9	; 201
    3528:	fc 4f       	sbci	r31, 0xFC	; 252
    352a:	80 81       	ld	r24, Z
    352c:	91 81       	ldd	r25, Z+1	; 0x01
    352e:	a2 81       	ldd	r26, Z+2	; 0x02
    3530:	b3 81       	ldd	r27, Z+3	; 0x03
    3532:	27 5b       	subi	r18, 0xB7	; 183
    3534:	3c 4f       	sbci	r19, 0xFC	; 252
    3536:	f9 01       	movw	r30, r18
    3538:	80 83       	st	Z, r24
    353a:	91 83       	std	Z+1, r25	; 0x01
    353c:	a2 83       	std	Z+2, r26	; 0x02
    353e:	b3 83       	std	Z+3, r27	; 0x03
		if(oc>=tot-ac2+1 &&m)	gsp[i] = (double)(msp[i] * (tot-oc)/ac2);
    3540:	af 80       	ldd	r10, Y+7	; 0x07
    3542:	b8 84       	ldd	r11, Y+8	; 0x08
    3544:	ae 14       	cp	r10, r14
    3546:	bf 04       	cpc	r11, r15
    3548:	94 f5       	brge	.+100    	; 0x35ae <OmniSet+0x1ae>
    354a:	49 81       	ldd	r20, Y+1	; 0x01
    354c:	5a 81       	ldd	r21, Y+2	; 0x02
    354e:	45 36       	cpi	r20, 0x65	; 101
    3550:	51 05       	cpc	r21, r1
    3552:	68 f1       	brcs	.+90     	; 0x35ae <OmniSet+0x1ae>
    3554:	48 01       	movw	r8, r16
    3556:	88 0c       	add	r8, r8
    3558:	99 1c       	adc	r9, r9
    355a:	88 0c       	add	r8, r8
    355c:	99 1c       	adc	r9, r9
    355e:	f4 01       	movw	r30, r8
    3560:	e9 5c       	subi	r30, 0xC9	; 201
    3562:	fc 4f       	sbci	r31, 0xFC	; 252
    3564:	a0 80       	ld	r10, Z
    3566:	b1 80       	ldd	r11, Z+1	; 0x01
    3568:	c2 80       	ldd	r12, Z+2	; 0x02
    356a:	d3 80       	ldd	r13, Z+3	; 0x03
    356c:	69 85       	ldd	r22, Y+9	; 0x09
    356e:	7a 85       	ldd	r23, Y+10	; 0x0a
    3570:	8b 85       	ldd	r24, Y+11	; 0x0b
    3572:	9c 85       	ldd	r25, Y+12	; 0x0c
    3574:	0e 94 6a 41 	call	0x82d4	; 0x82d4 <__floatsisf>
    3578:	9b 01       	movw	r18, r22
    357a:	ac 01       	movw	r20, r24
    357c:	c6 01       	movw	r24, r12
    357e:	b5 01       	movw	r22, r10
    3580:	0e 94 2e 43 	call	0x865c	; 0x865c <__mulsf3>
    3584:	5b 01       	movw	r10, r22
    3586:	6c 01       	movw	r12, r24
    3588:	c2 01       	movw	r24, r4
    358a:	b1 01       	movw	r22, r2
    358c:	0e 94 6a 41 	call	0x82d4	; 0x82d4 <__floatsisf>
    3590:	9b 01       	movw	r18, r22
    3592:	ac 01       	movw	r20, r24
    3594:	c6 01       	movw	r24, r12
    3596:	b5 01       	movw	r22, r10
    3598:	0e 94 cf 40 	call	0x819e	; 0x819e <__divsf3>
    359c:	9b 01       	movw	r18, r22
    359e:	ac 01       	movw	r20, r24
    35a0:	f4 01       	movw	r30, r8
    35a2:	e7 5b       	subi	r30, 0xB7	; 183
    35a4:	fc 4f       	sbci	r31, 0xFC	; 252
    35a6:	20 83       	st	Z, r18
    35a8:	31 83       	std	Z+1, r19	; 0x01
    35aa:	42 83       	std	Z+2, r20	; 0x02
    35ac:	53 83       	std	Z+3, r21	; 0x03
{
	int m=(ac>100 || ac<0)?1:0,ac2;
	if(ac>100) ac-=100;
	ac2 = abs(ac);

	for(int i=0; i<4; i++)
    35ae:	0f 5f       	subi	r16, 0xFF	; 255
    35b0:	1f 4f       	sbci	r17, 0xFF	; 255
    35b2:	04 30       	cpi	r16, 0x04	; 4
    35b4:	11 05       	cpc	r17, r1
    35b6:	09 f0       	breq	.+2      	; 0x35ba <OmniSet+0x1ba>
    35b8:	76 cf       	rjmp	.-276    	; 0x34a6 <OmniSet+0xa6>
	{
		if(oc>=0 && !(ac<0))	gsp[i] = (double)(msp[i] * (oc+1)/ac2);
		if(oc>=ac2 || (ac<0))	gsp[i] = msp[i];
		if(oc>=tot-ac2+1 &&m)	gsp[i] = (double)(msp[i] * (tot-oc)/ac2);
	}
}
    35ba:	2e 96       	adiw	r28, 0x0e	; 14
    35bc:	0f b6       	in	r0, 0x3f	; 63
    35be:	f8 94       	cli
    35c0:	de bf       	out	0x3e, r29	; 62
    35c2:	0f be       	out	0x3f, r0	; 63
    35c4:	cd bf       	out	0x3d, r28	; 61
    35c6:	cf 91       	pop	r28
    35c8:	df 91       	pop	r29
    35ca:	1f 91       	pop	r17
    35cc:	0f 91       	pop	r16
    35ce:	ff 90       	pop	r15
    35d0:	ef 90       	pop	r14
    35d2:	df 90       	pop	r13
    35d4:	cf 90       	pop	r12
    35d6:	bf 90       	pop	r11
    35d8:	af 90       	pop	r10
    35da:	9f 90       	pop	r9
    35dc:	8f 90       	pop	r8
    35de:	7f 90       	pop	r7
    35e0:	6f 90       	pop	r6
    35e2:	5f 90       	pop	r5
    35e4:	4f 90       	pop	r4
    35e6:	3f 90       	pop	r3
    35e8:	2f 90       	pop	r2
    35ea:	08 95       	ret

000035ec <IR>:

	wrcm(sgy,sgx,sga);
}

void IR(){
	IR_1 = (PINE&4)? 0 : 1;
    35ec:	81 e0       	ldi	r24, 0x01	; 1
    35ee:	90 e0       	ldi	r25, 0x00	; 0
    35f0:	0a 9b       	sbis	0x01, 2	; 1
    35f2:	02 c0       	rjmp	.+4      	; 0x35f8 <IR+0xc>
    35f4:	80 e0       	ldi	r24, 0x00	; 0
    35f6:	90 e0       	ldi	r25, 0x00	; 0
    35f8:	90 93 92 02 	sts	0x0292, r25
    35fc:	80 93 91 02 	sts	0x0291, r24
	IR_2 = (PINE&8)? 0 : 1;
    3600:	81 e0       	ldi	r24, 0x01	; 1
    3602:	90 e0       	ldi	r25, 0x00	; 0
    3604:	0b 9b       	sbis	0x01, 3	; 1
    3606:	02 c0       	rjmp	.+4      	; 0x360c <IR+0x20>
    3608:	80 e0       	ldi	r24, 0x00	; 0
    360a:	90 e0       	ldi	r25, 0x00	; 0
    360c:	90 93 8e 02 	sts	0x028E, r25
    3610:	80 93 8d 02 	sts	0x028D, r24
	IR_3 = (PINE&16)? 0 : 1;
    3614:	81 e0       	ldi	r24, 0x01	; 1
    3616:	90 e0       	ldi	r25, 0x00	; 0
    3618:	0c 9b       	sbis	0x01, 4	; 1
    361a:	02 c0       	rjmp	.+4      	; 0x3620 <IR+0x34>
    361c:	80 e0       	ldi	r24, 0x00	; 0
    361e:	90 e0       	ldi	r25, 0x00	; 0
    3620:	90 93 48 03 	sts	0x0348, r25
    3624:	80 93 47 03 	sts	0x0347, r24
	IR_4 = (PIND&16)? 0 : 1;
    3628:	81 e0       	ldi	r24, 0x01	; 1
    362a:	90 e0       	ldi	r25, 0x00	; 0
    362c:	84 9b       	sbis	0x10, 4	; 16
    362e:	02 c0       	rjmp	.+4      	; 0x3634 <IR+0x48>
    3630:	80 e0       	ldi	r24, 0x00	; 0
    3632:	90 e0       	ldi	r25, 0x00	; 0
    3634:	90 93 90 02 	sts	0x0290, r25
    3638:	80 93 8f 02 	sts	0x028F, r24
	IR_5 = (PIND&64)? 0 : 1;
    363c:	81 e0       	ldi	r24, 0x01	; 1
    363e:	90 e0       	ldi	r25, 0x00	; 0
    3640:	86 9b       	sbis	0x10, 6	; 16
    3642:	02 c0       	rjmp	.+4      	; 0x3648 <IR+0x5c>
    3644:	80 e0       	ldi	r24, 0x00	; 0
    3646:	90 e0       	ldi	r25, 0x00	; 0
    3648:	90 93 1c 03 	sts	0x031C, r25
    364c:	80 93 1b 03 	sts	0x031B, r24

	IND_1 = (~PING&8)? 1: 0;
    3650:	20 91 63 00 	lds	r18, 0x0063
    3654:	81 e0       	ldi	r24, 0x01	; 1
    3656:	90 e0       	ldi	r25, 0x00	; 0
    3658:	23 ff       	sbrs	r18, 3
    365a:	02 c0       	rjmp	.+4      	; 0x3660 <IR+0x74>
    365c:	80 e0       	ldi	r24, 0x00	; 0
    365e:	90 e0       	ldi	r25, 0x00	; 0
    3660:	90 93 98 02 	sts	0x0298, r25
    3664:	80 93 97 02 	sts	0x0297, r24
	IND_2 = (~PING&16)? 1: 0;
    3668:	20 91 63 00 	lds	r18, 0x0063
    366c:	81 e0       	ldi	r24, 0x01	; 1
    366e:	90 e0       	ldi	r25, 0x00	; 0
    3670:	24 ff       	sbrs	r18, 4
    3672:	02 c0       	rjmp	.+4      	; 0x3678 <IR+0x8c>
    3674:	80 e0       	ldi	r24, 0x00	; 0
    3676:	90 e0       	ldi	r25, 0x00	; 0
    3678:	90 93 8c 02 	sts	0x028C, r25
    367c:	80 93 8b 02 	sts	0x028B, r24
}
    3680:	08 95       	ret

00003682 <__vector_14>:
		if(oc>=tot-ac2+1 &&m)	gsp[i] = (double)(msp[i] * (tot-oc)/ac2);
	}
}

ISR(TIMER1_OVF_vect)
{
    3682:	1f 92       	push	r1
    3684:	0f 92       	push	r0
    3686:	0f b6       	in	r0, 0x3f	; 63
    3688:	0f 92       	push	r0
    368a:	0b b6       	in	r0, 0x3b	; 59
    368c:	0f 92       	push	r0
    368e:	11 24       	eor	r1, r1
    3690:	ef 92       	push	r14
    3692:	ff 92       	push	r15
    3694:	0f 93       	push	r16
    3696:	1f 93       	push	r17
    3698:	2f 93       	push	r18
    369a:	3f 93       	push	r19
    369c:	4f 93       	push	r20
    369e:	5f 93       	push	r21
    36a0:	6f 93       	push	r22
    36a2:	7f 93       	push	r23
    36a4:	8f 93       	push	r24
    36a6:	9f 93       	push	r25
    36a8:	af 93       	push	r26
    36aa:	bf 93       	push	r27
    36ac:	ef 93       	push	r30
    36ae:	ff 93       	push	r31
	TCNT1H=0xFF; TCNT1L=0x70; //0.01초
    36b0:	8f ef       	ldi	r24, 0xFF	; 255
    36b2:	8d bd       	out	0x2d, r24	; 45
    36b4:	80 e7       	ldi	r24, 0x70	; 112
    36b6:	8c bd       	out	0x2c, r24	; 44

	/// 아래 추가 
	acf +=0.02;
    36b8:	60 91 22 02 	lds	r22, 0x0222
    36bc:	70 91 23 02 	lds	r23, 0x0223
    36c0:	80 91 24 02 	lds	r24, 0x0224
    36c4:	90 91 25 02 	lds	r25, 0x0225
    36c8:	2a e0       	ldi	r18, 0x0A	; 10
    36ca:	37 ed       	ldi	r19, 0xD7	; 215
    36cc:	43 ea       	ldi	r20, 0xA3	; 163
    36ce:	5c e3       	ldi	r21, 0x3C	; 60
    36d0:	0e 94 51 40 	call	0x80a2	; 0x80a2 <__addsf3>
    36d4:	7b 01       	movw	r14, r22
    36d6:	8c 01       	movw	r16, r24
	acf = acf > 1? 1: acf;
    36d8:	7f 2d       	mov	r23, r15
    36da:	91 2f       	mov	r25, r17
    36dc:	20 e0       	ldi	r18, 0x00	; 0
    36de:	30 e0       	ldi	r19, 0x00	; 0
    36e0:	40 e8       	ldi	r20, 0x80	; 128
    36e2:	5f e3       	ldi	r21, 0x3F	; 63
    36e4:	0e 94 93 42 	call	0x8526	; 0x8526 <__gesf2>
    36e8:	18 16       	cp	r1, r24
    36ea:	24 f4       	brge	.+8      	; 0x36f4 <__vector_14+0x72>
    36ec:	ee 24       	eor	r14, r14
    36ee:	ff 24       	eor	r15, r15
    36f0:	00 e8       	ldi	r16, 0x80	; 128
    36f2:	1f e3       	ldi	r17, 0x3F	; 63
    36f4:	8e 2d       	mov	r24, r14
    36f6:	9f 2d       	mov	r25, r15
    36f8:	a0 2f       	mov	r26, r16
    36fa:	b1 2f       	mov	r27, r17
    36fc:	80 93 22 02 	sts	0x0222, r24
    3700:	90 93 23 02 	sts	0x0223, r25
    3704:	a0 93 24 02 	sts	0x0224, r26
    3708:	b0 93 25 02 	sts	0x0225, r27
	cacf +=0.02;
    370c:	60 91 3c 02 	lds	r22, 0x023C
    3710:	70 91 3d 02 	lds	r23, 0x023D
    3714:	80 91 3e 02 	lds	r24, 0x023E
    3718:	90 91 3f 02 	lds	r25, 0x023F
    371c:	2a e0       	ldi	r18, 0x0A	; 10
    371e:	37 ed       	ldi	r19, 0xD7	; 215
    3720:	43 ea       	ldi	r20, 0xA3	; 163
    3722:	5c e3       	ldi	r21, 0x3C	; 60
    3724:	0e 94 51 40 	call	0x80a2	; 0x80a2 <__addsf3>
    3728:	7b 01       	movw	r14, r22
    372a:	8c 01       	movw	r16, r24
	cacf = cacf > 1? 1: cacf;
    372c:	7f 2d       	mov	r23, r15
    372e:	91 2f       	mov	r25, r17
    3730:	20 e0       	ldi	r18, 0x00	; 0
    3732:	30 e0       	ldi	r19, 0x00	; 0
    3734:	40 e8       	ldi	r20, 0x80	; 128
    3736:	5f e3       	ldi	r21, 0x3F	; 63
    3738:	0e 94 93 42 	call	0x8526	; 0x8526 <__gesf2>
    373c:	18 16       	cp	r1, r24
    373e:	24 f4       	brge	.+8      	; 0x3748 <__vector_14+0xc6>
    3740:	ee 24       	eor	r14, r14
    3742:	ff 24       	eor	r15, r15
    3744:	00 e8       	ldi	r16, 0x80	; 128
    3746:	1f e3       	ldi	r17, 0x3F	; 63
    3748:	8e 2d       	mov	r24, r14
    374a:	9f 2d       	mov	r25, r15
    374c:	a0 2f       	mov	r26, r16
    374e:	b1 2f       	mov	r27, r17
    3750:	80 93 3c 02 	sts	0x023C, r24
    3754:	90 93 3d 02 	sts	0x023D, r25
    3758:	a0 93 3e 02 	sts	0x023E, r26
    375c:	b0 93 3f 02 	sts	0x023F, r27
	zacf +=0.05;
    3760:	60 91 26 02 	lds	r22, 0x0226
    3764:	70 91 27 02 	lds	r23, 0x0227
    3768:	80 91 28 02 	lds	r24, 0x0228
    376c:	90 91 29 02 	lds	r25, 0x0229
    3770:	2d ec       	ldi	r18, 0xCD	; 205
    3772:	3c ec       	ldi	r19, 0xCC	; 204
    3774:	4c e4       	ldi	r20, 0x4C	; 76
    3776:	5d e3       	ldi	r21, 0x3D	; 61
    3778:	0e 94 51 40 	call	0x80a2	; 0x80a2 <__addsf3>
    377c:	f6 2e       	mov	r15, r22
    377e:	e7 2e       	mov	r14, r23
    3780:	8c 01       	movw	r16, r24
	zacf = zacf > 1? 1: zacf;
    3782:	a7 01       	movw	r20, r14
    3784:	65 2f       	mov	r22, r21
    3786:	74 2f       	mov	r23, r20
    3788:	91 2f       	mov	r25, r17
    378a:	20 e0       	ldi	r18, 0x00	; 0
    378c:	30 e0       	ldi	r19, 0x00	; 0
    378e:	40 e8       	ldi	r20, 0x80	; 128
    3790:	5f e3       	ldi	r21, 0x3F	; 63
    3792:	0e 94 93 42 	call	0x8526	; 0x8526 <__gesf2>
    3796:	18 16       	cp	r1, r24
    3798:	24 f4       	brge	.+8      	; 0x37a2 <__vector_14+0x120>
    379a:	ff 24       	eor	r15, r15
    379c:	ee 24       	eor	r14, r14
    379e:	00 e8       	ldi	r16, 0x80	; 128
    37a0:	1f e3       	ldi	r17, 0x3F	; 63
    37a2:	a7 01       	movw	r20, r14
    37a4:	85 2f       	mov	r24, r21
    37a6:	9e 2d       	mov	r25, r14
    37a8:	a0 2f       	mov	r26, r16
    37aa:	b1 2f       	mov	r27, r17
    37ac:	80 93 26 02 	sts	0x0226, r24
    37b0:	90 93 27 02 	sts	0x0227, r25
    37b4:	a0 93 28 02 	sts	0x0228, r26
    37b8:	b0 93 29 02 	sts	0x0229, r27

	IR();
    37bc:	0e 94 f6 1a 	call	0x35ec	; 0x35ec <IR>
	
	if(IR_1  && !ba1)	bar_1++,ba1 = 1;
    37c0:	80 91 91 02 	lds	r24, 0x0291
    37c4:	90 91 92 02 	lds	r25, 0x0292
    37c8:	00 97       	sbiw	r24, 0x00	; 0
    37ca:	b1 f0       	breq	.+44     	; 0x37f8 <__vector_14+0x176>
    37cc:	80 91 20 02 	lds	r24, 0x0220
    37d0:	90 91 21 02 	lds	r25, 0x0221
    37d4:	00 97       	sbiw	r24, 0x00	; 0
    37d6:	81 f4       	brne	.+32     	; 0x37f8 <__vector_14+0x176>
    37d8:	80 91 2a 02 	lds	r24, 0x022A
    37dc:	90 91 2b 02 	lds	r25, 0x022B
    37e0:	01 96       	adiw	r24, 0x01	; 1
    37e2:	90 93 2b 02 	sts	0x022B, r25
    37e6:	80 93 2a 02 	sts	0x022A, r24
    37ea:	81 e0       	ldi	r24, 0x01	; 1
    37ec:	90 e0       	ldi	r25, 0x00	; 0
    37ee:	90 93 21 02 	sts	0x0221, r25
    37f2:	80 93 20 02 	sts	0x0220, r24
    37f6:	10 c0       	rjmp	.+32     	; 0x3818 <__vector_14+0x196>
	else if(!IR_1 && ba1)	ba1 = 0;
    37f8:	80 91 91 02 	lds	r24, 0x0291
    37fc:	90 91 92 02 	lds	r25, 0x0292
    3800:	00 97       	sbiw	r24, 0x00	; 0
    3802:	51 f4       	brne	.+20     	; 0x3818 <__vector_14+0x196>
    3804:	80 91 20 02 	lds	r24, 0x0220
    3808:	90 91 21 02 	lds	r25, 0x0221
    380c:	00 97       	sbiw	r24, 0x00	; 0
    380e:	21 f0       	breq	.+8      	; 0x3818 <__vector_14+0x196>
    3810:	10 92 21 02 	sts	0x0221, r1
    3814:	10 92 20 02 	sts	0x0220, r1
	if(IR_2  && !ba2)	bar_2++,ba2 = 1,co[code++] = 1;
    3818:	80 91 8d 02 	lds	r24, 0x028D
    381c:	90 91 8e 02 	lds	r25, 0x028E
    3820:	00 97       	sbiw	r24, 0x00	; 0
    3822:	31 f1       	breq	.+76     	; 0x3870 <__vector_14+0x1ee>
    3824:	80 91 56 02 	lds	r24, 0x0256
    3828:	90 91 57 02 	lds	r25, 0x0257
    382c:	00 97       	sbiw	r24, 0x00	; 0
    382e:	01 f5       	brne	.+64     	; 0x3870 <__vector_14+0x1ee>
    3830:	80 91 60 02 	lds	r24, 0x0260
    3834:	90 91 61 02 	lds	r25, 0x0261
    3838:	01 96       	adiw	r24, 0x01	; 1
    383a:	90 93 61 02 	sts	0x0261, r25
    383e:	80 93 60 02 	sts	0x0260, r24
    3842:	21 e0       	ldi	r18, 0x01	; 1
    3844:	30 e0       	ldi	r19, 0x00	; 0
    3846:	30 93 57 02 	sts	0x0257, r19
    384a:	20 93 56 02 	sts	0x0256, r18
    384e:	80 91 35 03 	lds	r24, 0x0335
    3852:	90 91 36 03 	lds	r25, 0x0336
    3856:	fc 01       	movw	r30, r24
    3858:	ee 0f       	add	r30, r30
    385a:	ff 1f       	adc	r31, r31
    385c:	ed 50       	subi	r30, 0x0D	; 13
    385e:	fd 4f       	sbci	r31, 0xFD	; 253
    3860:	31 83       	std	Z+1, r19	; 0x01
    3862:	20 83       	st	Z, r18
    3864:	01 96       	adiw	r24, 0x01	; 1
    3866:	90 93 36 03 	sts	0x0336, r25
    386a:	80 93 35 03 	sts	0x0335, r24
    386e:	10 c0       	rjmp	.+32     	; 0x3890 <__vector_14+0x20e>
	else if(!IR_2 && ba2)	ba2 = 0;
    3870:	80 91 8d 02 	lds	r24, 0x028D
    3874:	90 91 8e 02 	lds	r25, 0x028E
    3878:	00 97       	sbiw	r24, 0x00	; 0
    387a:	51 f4       	brne	.+20     	; 0x3890 <__vector_14+0x20e>
    387c:	80 91 56 02 	lds	r24, 0x0256
    3880:	90 91 57 02 	lds	r25, 0x0257
    3884:	00 97       	sbiw	r24, 0x00	; 0
    3886:	21 f0       	breq	.+8      	; 0x3890 <__vector_14+0x20e>
    3888:	10 92 57 02 	sts	0x0257, r1
    388c:	10 92 56 02 	sts	0x0256, r1
	if(IR_3  && !ba3)	bar_3++,ba3 = 1;
    3890:	80 91 47 03 	lds	r24, 0x0347
    3894:	90 91 48 03 	lds	r25, 0x0348
    3898:	00 97       	sbiw	r24, 0x00	; 0
    389a:	b1 f0       	breq	.+44     	; 0x38c8 <__vector_14+0x246>
    389c:	80 91 52 02 	lds	r24, 0x0252
    38a0:	90 91 53 02 	lds	r25, 0x0253
    38a4:	00 97       	sbiw	r24, 0x00	; 0
    38a6:	81 f4       	brne	.+32     	; 0x38c8 <__vector_14+0x246>
    38a8:	80 91 50 02 	lds	r24, 0x0250
    38ac:	90 91 51 02 	lds	r25, 0x0251
    38b0:	01 96       	adiw	r24, 0x01	; 1
    38b2:	90 93 51 02 	sts	0x0251, r25
    38b6:	80 93 50 02 	sts	0x0250, r24
    38ba:	81 e0       	ldi	r24, 0x01	; 1
    38bc:	90 e0       	ldi	r25, 0x00	; 0
    38be:	90 93 53 02 	sts	0x0253, r25
    38c2:	80 93 52 02 	sts	0x0252, r24
    38c6:	10 c0       	rjmp	.+32     	; 0x38e8 <__vector_14+0x266>
	else if(!IR_3 && ba3)	ba3 = 0;
    38c8:	80 91 47 03 	lds	r24, 0x0347
    38cc:	90 91 48 03 	lds	r25, 0x0348
    38d0:	00 97       	sbiw	r24, 0x00	; 0
    38d2:	51 f4       	brne	.+20     	; 0x38e8 <__vector_14+0x266>
    38d4:	80 91 52 02 	lds	r24, 0x0252
    38d8:	90 91 53 02 	lds	r25, 0x0253
    38dc:	00 97       	sbiw	r24, 0x00	; 0
    38de:	21 f0       	breq	.+8      	; 0x38e8 <__vector_14+0x266>
    38e0:	10 92 53 02 	sts	0x0253, r1
    38e4:	10 92 52 02 	sts	0x0252, r1
	if(IR_4  && !ba4)	bar_4++,ba4 = 1;
    38e8:	80 91 8f 02 	lds	r24, 0x028F
    38ec:	90 91 90 02 	lds	r25, 0x0290
    38f0:	00 97       	sbiw	r24, 0x00	; 0
    38f2:	b1 f0       	breq	.+44     	; 0x3920 <__vector_14+0x29e>
    38f4:	80 91 4e 02 	lds	r24, 0x024E
    38f8:	90 91 4f 02 	lds	r25, 0x024F
    38fc:	00 97       	sbiw	r24, 0x00	; 0
    38fe:	81 f4       	brne	.+32     	; 0x3920 <__vector_14+0x29e>
    3900:	80 91 58 02 	lds	r24, 0x0258
    3904:	90 91 59 02 	lds	r25, 0x0259
    3908:	01 96       	adiw	r24, 0x01	; 1
    390a:	90 93 59 02 	sts	0x0259, r25
    390e:	80 93 58 02 	sts	0x0258, r24
    3912:	81 e0       	ldi	r24, 0x01	; 1
    3914:	90 e0       	ldi	r25, 0x00	; 0
    3916:	90 93 4f 02 	sts	0x024F, r25
    391a:	80 93 4e 02 	sts	0x024E, r24
    391e:	10 c0       	rjmp	.+32     	; 0x3940 <__vector_14+0x2be>
	else if(!IR_4 && ba4)	ba4 = 0;
    3920:	80 91 8f 02 	lds	r24, 0x028F
    3924:	90 91 90 02 	lds	r25, 0x0290
    3928:	00 97       	sbiw	r24, 0x00	; 0
    392a:	51 f4       	brne	.+20     	; 0x3940 <__vector_14+0x2be>
    392c:	80 91 4e 02 	lds	r24, 0x024E
    3930:	90 91 4f 02 	lds	r25, 0x024F
    3934:	00 97       	sbiw	r24, 0x00	; 0
    3936:	21 f0       	breq	.+8      	; 0x3940 <__vector_14+0x2be>
    3938:	10 92 4f 02 	sts	0x024F, r1
    393c:	10 92 4e 02 	sts	0x024E, r1
	if(IR_5  && !ba5)	bar_5++,ba5 = 1;
    3940:	80 91 1b 03 	lds	r24, 0x031B
    3944:	90 91 1c 03 	lds	r25, 0x031C
    3948:	00 97       	sbiw	r24, 0x00	; 0
    394a:	b1 f0       	breq	.+44     	; 0x3978 <__vector_14+0x2f6>
    394c:	80 91 3a 02 	lds	r24, 0x023A
    3950:	90 91 3b 02 	lds	r25, 0x023B
    3954:	00 97       	sbiw	r24, 0x00	; 0
    3956:	81 f4       	brne	.+32     	; 0x3978 <__vector_14+0x2f6>
    3958:	80 91 5a 02 	lds	r24, 0x025A
    395c:	90 91 5b 02 	lds	r25, 0x025B
    3960:	01 96       	adiw	r24, 0x01	; 1
    3962:	90 93 5b 02 	sts	0x025B, r25
    3966:	80 93 5a 02 	sts	0x025A, r24
    396a:	81 e0       	ldi	r24, 0x01	; 1
    396c:	90 e0       	ldi	r25, 0x00	; 0
    396e:	90 93 3b 02 	sts	0x023B, r25
    3972:	80 93 3a 02 	sts	0x023A, r24
    3976:	10 c0       	rjmp	.+32     	; 0x3998 <__vector_14+0x316>
	else if(!IR_5 && ba5)	ba5 = 0;
    3978:	80 91 1b 03 	lds	r24, 0x031B
    397c:	90 91 1c 03 	lds	r25, 0x031C
    3980:	00 97       	sbiw	r24, 0x00	; 0
    3982:	51 f4       	brne	.+20     	; 0x3998 <__vector_14+0x316>
    3984:	80 91 3a 02 	lds	r24, 0x023A
    3988:	90 91 3b 02 	lds	r25, 0x023B
    398c:	00 97       	sbiw	r24, 0x00	; 0
    398e:	21 f0       	breq	.+8      	; 0x3998 <__vector_14+0x316>
    3990:	10 92 3b 02 	sts	0x023B, r1
    3994:	10 92 3a 02 	sts	0x023A, r1


	if(IND_1  && !sba1)	sbar_1++,sba1 = 1,co[code++] = 2;
    3998:	80 91 97 02 	lds	r24, 0x0297
    399c:	90 91 98 02 	lds	r25, 0x0298
    39a0:	00 97       	sbiw	r24, 0x00	; 0
    39a2:	41 f1       	breq	.+80     	; 0x39f4 <__vector_14+0x372>
    39a4:	80 91 54 02 	lds	r24, 0x0254
    39a8:	90 91 55 02 	lds	r25, 0x0255
    39ac:	00 97       	sbiw	r24, 0x00	; 0
    39ae:	11 f5       	brne	.+68     	; 0x39f4 <__vector_14+0x372>
    39b0:	80 91 4c 02 	lds	r24, 0x024C
    39b4:	90 91 4d 02 	lds	r25, 0x024D
    39b8:	01 96       	adiw	r24, 0x01	; 1
    39ba:	90 93 4d 02 	sts	0x024D, r25
    39be:	80 93 4c 02 	sts	0x024C, r24
    39c2:	81 e0       	ldi	r24, 0x01	; 1
    39c4:	90 e0       	ldi	r25, 0x00	; 0
    39c6:	90 93 55 02 	sts	0x0255, r25
    39ca:	80 93 54 02 	sts	0x0254, r24
    39ce:	80 91 35 03 	lds	r24, 0x0335
    39d2:	90 91 36 03 	lds	r25, 0x0336
    39d6:	fc 01       	movw	r30, r24
    39d8:	ee 0f       	add	r30, r30
    39da:	ff 1f       	adc	r31, r31
    39dc:	ed 50       	subi	r30, 0x0D	; 13
    39de:	fd 4f       	sbci	r31, 0xFD	; 253
    39e0:	22 e0       	ldi	r18, 0x02	; 2
    39e2:	30 e0       	ldi	r19, 0x00	; 0
    39e4:	31 83       	std	Z+1, r19	; 0x01
    39e6:	20 83       	st	Z, r18
    39e8:	01 96       	adiw	r24, 0x01	; 1
    39ea:	90 93 36 03 	sts	0x0336, r25
    39ee:	80 93 35 03 	sts	0x0335, r24
    39f2:	10 c0       	rjmp	.+32     	; 0x3a14 <__vector_14+0x392>
	else if(!IND_1 && sba1)	sba1 = 0;
    39f4:	80 91 97 02 	lds	r24, 0x0297
    39f8:	90 91 98 02 	lds	r25, 0x0298
    39fc:	00 97       	sbiw	r24, 0x00	; 0
    39fe:	51 f4       	brne	.+20     	; 0x3a14 <__vector_14+0x392>
    3a00:	80 91 54 02 	lds	r24, 0x0254
    3a04:	90 91 55 02 	lds	r25, 0x0255
    3a08:	00 97       	sbiw	r24, 0x00	; 0
    3a0a:	21 f0       	breq	.+8      	; 0x3a14 <__vector_14+0x392>
    3a0c:	10 92 55 02 	sts	0x0255, r1
    3a10:	10 92 54 02 	sts	0x0254, r1
	if(IND_2  && !sba2)	sbar_2++,sba2 = 1;
    3a14:	80 91 8b 02 	lds	r24, 0x028B
    3a18:	90 91 8c 02 	lds	r25, 0x028C
    3a1c:	00 97       	sbiw	r24, 0x00	; 0
    3a1e:	b1 f0       	breq	.+44     	; 0x3a4c <__vector_14+0x3ca>
    3a20:	80 91 36 02 	lds	r24, 0x0236
    3a24:	90 91 37 02 	lds	r25, 0x0237
    3a28:	00 97       	sbiw	r24, 0x00	; 0
    3a2a:	81 f4       	brne	.+32     	; 0x3a4c <__vector_14+0x3ca>
    3a2c:	80 91 62 02 	lds	r24, 0x0262
    3a30:	90 91 63 02 	lds	r25, 0x0263
    3a34:	01 96       	adiw	r24, 0x01	; 1
    3a36:	90 93 63 02 	sts	0x0263, r25
    3a3a:	80 93 62 02 	sts	0x0262, r24
    3a3e:	81 e0       	ldi	r24, 0x01	; 1
    3a40:	90 e0       	ldi	r25, 0x00	; 0
    3a42:	90 93 37 02 	sts	0x0237, r25
    3a46:	80 93 36 02 	sts	0x0236, r24
    3a4a:	10 c0       	rjmp	.+32     	; 0x3a6c <__vector_14+0x3ea>
	else if(!IND_2 && sba2)	sba2 = 0;
    3a4c:	80 91 8b 02 	lds	r24, 0x028B
    3a50:	90 91 8c 02 	lds	r25, 0x028C
    3a54:	00 97       	sbiw	r24, 0x00	; 0
    3a56:	51 f4       	brne	.+20     	; 0x3a6c <__vector_14+0x3ea>
    3a58:	80 91 36 02 	lds	r24, 0x0236
    3a5c:	90 91 37 02 	lds	r25, 0x0237
    3a60:	00 97       	sbiw	r24, 0x00	; 0
    3a62:	21 f0       	breq	.+8      	; 0x3a6c <__vector_14+0x3ea>
    3a64:	10 92 37 02 	sts	0x0237, r1
    3a68:	10 92 36 02 	sts	0x0236, r1

	if(oc)oc++;
    3a6c:	80 91 38 02 	lds	r24, 0x0238
    3a70:	90 91 39 02 	lds	r25, 0x0239
    3a74:	00 97       	sbiw	r24, 0x00	; 0
    3a76:	29 f0       	breq	.+10     	; 0x3a82 <__vector_14+0x400>
    3a78:	01 96       	adiw	r24, 0x01	; 1
    3a7a:	90 93 39 02 	sts	0x0239, r25
    3a7e:	80 93 38 02 	sts	0x0238, r24
	if(gtc)gtc--;
    3a82:	80 91 10 02 	lds	r24, 0x0210
    3a86:	90 91 11 02 	lds	r25, 0x0211
    3a8a:	00 97       	sbiw	r24, 0x00	; 0
    3a8c:	49 f0       	breq	.+18     	; 0x3aa0 <__vector_14+0x41e>
    3a8e:	80 91 10 02 	lds	r24, 0x0210
    3a92:	90 91 11 02 	lds	r25, 0x0211
    3a96:	01 97       	sbiw	r24, 0x01	; 1
    3a98:	90 93 11 02 	sts	0x0211, r25
    3a9c:	80 93 10 02 	sts	0x0210, r24
	if(pc)pc++;
    3aa0:	80 91 5c 02 	lds	r24, 0x025C
    3aa4:	90 91 5d 02 	lds	r25, 0x025D
    3aa8:	00 97       	sbiw	r24, 0x00	; 0
    3aaa:	49 f0       	breq	.+18     	; 0x3abe <__vector_14+0x43c>
    3aac:	80 91 5c 02 	lds	r24, 0x025C
    3ab0:	90 91 5d 02 	lds	r25, 0x025D
    3ab4:	01 96       	adiw	r24, 0x01	; 1
    3ab6:	90 93 5d 02 	sts	0x025D, r25
    3aba:	80 93 5c 02 	sts	0x025C, r24
	if(psdTimer)psdTimer++;
    3abe:	80 91 4a 02 	lds	r24, 0x024A
    3ac2:	90 91 4b 02 	lds	r25, 0x024B
    3ac6:	00 97       	sbiw	r24, 0x00	; 0
    3ac8:	29 f0       	breq	.+10     	; 0x3ad4 <__vector_14+0x452>
    3aca:	01 96       	adiw	r24, 0x01	; 1
    3acc:	90 93 4b 02 	sts	0x024B, r25
    3ad0:	80 93 4a 02 	sts	0x024A, r24
	if(code > 19) code = 0;
    3ad4:	80 91 35 03 	lds	r24, 0x0335
    3ad8:	90 91 36 03 	lds	r25, 0x0336
    3adc:	84 31       	cpi	r24, 0x14	; 20
    3ade:	91 05       	cpc	r25, r1
    3ae0:	24 f0       	brlt	.+8      	; 0x3aea <__vector_14+0x468>
    3ae2:	10 92 36 03 	sts	0x0336, r1
    3ae6:	10 92 35 03 	sts	0x0335, r1

	wrcm(sgy,sgx,sga);
    3aea:	60 91 1d 03 	lds	r22, 0x031D
    3aee:	70 91 1e 03 	lds	r23, 0x031E
    3af2:	80 91 1f 03 	lds	r24, 0x031F
    3af6:	90 91 20 03 	lds	r25, 0x0320
    3afa:	20 91 87 02 	lds	r18, 0x0287
    3afe:	30 91 88 02 	lds	r19, 0x0288
    3b02:	40 91 89 02 	lds	r20, 0x0289
    3b06:	50 91 8a 02 	lds	r21, 0x028A
    3b0a:	e0 90 93 02 	lds	r14, 0x0293
    3b0e:	f0 90 94 02 	lds	r15, 0x0294
    3b12:	00 91 95 02 	lds	r16, 0x0295
    3b16:	10 91 96 02 	lds	r17, 0x0296
    3b1a:	0e 94 b9 17 	call	0x2f72	; 0x2f72 <wrcm>
}
    3b1e:	ff 91       	pop	r31
    3b20:	ef 91       	pop	r30
    3b22:	bf 91       	pop	r27
    3b24:	af 91       	pop	r26
    3b26:	9f 91       	pop	r25
    3b28:	8f 91       	pop	r24
    3b2a:	7f 91       	pop	r23
    3b2c:	6f 91       	pop	r22
    3b2e:	5f 91       	pop	r21
    3b30:	4f 91       	pop	r20
    3b32:	3f 91       	pop	r19
    3b34:	2f 91       	pop	r18
    3b36:	1f 91       	pop	r17
    3b38:	0f 91       	pop	r16
    3b3a:	ff 90       	pop	r15
    3b3c:	ef 90       	pop	r14
    3b3e:	0f 90       	pop	r0
    3b40:	0b be       	out	0x3b, r0	; 59
    3b42:	0f 90       	pop	r0
    3b44:	0f be       	out	0x3f, r0	; 63
    3b46:	0f 90       	pop	r0
    3b48:	1f 90       	pop	r1
    3b4a:	18 95       	reti

00003b4c <SS>:

	IND_1 = (~PING&8)? 1: 0;
	IND_2 = (~PING&16)? 1: 0;
}

void SS(){
    3b4c:	af 92       	push	r10
    3b4e:	bf 92       	push	r11
    3b50:	cf 92       	push	r12
    3b52:	df 92       	push	r13
    3b54:	ef 92       	push	r14
    3b56:	ff 92       	push	r15
    3b58:	0f 93       	push	r16
    3b5a:	1f 93       	push	r17
	speed(0,0,0,0);
    3b5c:	60 e0       	ldi	r22, 0x00	; 0
    3b5e:	70 e0       	ldi	r23, 0x00	; 0
    3b60:	cb 01       	movw	r24, r22
    3b62:	9b 01       	movw	r18, r22
    3b64:	ac 01       	movw	r20, r24
    3b66:	7b 01       	movw	r14, r22
    3b68:	8c 01       	movw	r16, r24
    3b6a:	5b 01       	movw	r10, r22
    3b6c:	6c 01       	movw	r12, r24
    3b6e:	0e 94 93 16 	call	0x2d26	; 0x2d26 <speed>
}
    3b72:	1f 91       	pop	r17
    3b74:	0f 91       	pop	r16
    3b76:	ff 90       	pop	r15
    3b78:	ef 90       	pop	r14
    3b7a:	df 90       	pop	r13
    3b7c:	cf 90       	pop	r12
    3b7e:	bf 90       	pop	r11
    3b80:	af 90       	pop	r10
    3b82:	08 95       	ret

00003b84 <SensorIn>:

int SensorIn(int n, int d)
{
	if(g_psd[n] <= d) { if(!psdTimer) psdTimer = 1; }
    3b84:	fc 01       	movw	r30, r24
    3b86:	e4 5d       	subi	r30, 0xD4	; 212
    3b88:	fd 4f       	sbci	r31, 0xFD	; 253
    3b8a:	80 81       	ld	r24, Z
    3b8c:	90 e0       	ldi	r25, 0x00	; 0
    3b8e:	68 17       	cp	r22, r24
    3b90:	79 07       	cpc	r23, r25
    3b92:	6c f0       	brlt	.+26     	; 0x3bae <SensorIn+0x2a>
    3b94:	80 91 4a 02 	lds	r24, 0x024A
    3b98:	90 91 4b 02 	lds	r25, 0x024B
    3b9c:	00 97       	sbiw	r24, 0x00	; 0
    3b9e:	59 f4       	brne	.+22     	; 0x3bb6 <SensorIn+0x32>
    3ba0:	81 e0       	ldi	r24, 0x01	; 1
    3ba2:	90 e0       	ldi	r25, 0x00	; 0
    3ba4:	90 93 4b 02 	sts	0x024B, r25
    3ba8:	80 93 4a 02 	sts	0x024A, r24
    3bac:	04 c0       	rjmp	.+8      	; 0x3bb6 <SensorIn+0x32>
	else psdTimer = 0;
    3bae:	10 92 4b 02 	sts	0x024B, r1
    3bb2:	10 92 4a 02 	sts	0x024A, r1
	
	return psdTimer >= 5;
    3bb6:	21 e0       	ldi	r18, 0x01	; 1
    3bb8:	30 e0       	ldi	r19, 0x00	; 0
    3bba:	80 91 4a 02 	lds	r24, 0x024A
    3bbe:	90 91 4b 02 	lds	r25, 0x024B
    3bc2:	85 30       	cpi	r24, 0x05	; 5
    3bc4:	91 05       	cpc	r25, r1
    3bc6:	14 f4       	brge	.+4      	; 0x3bcc <SensorIn+0x48>
    3bc8:	20 e0       	ldi	r18, 0x00	; 0
    3bca:	30 e0       	ldi	r19, 0x00	; 0
}
    3bcc:	c9 01       	movw	r24, r18
    3bce:	08 95       	ret

00003bd0 <TM>:

void TM(unsigned char wm){
    3bd0:	1f 93       	push	r17
    3bd2:	18 2f       	mov	r17, r24
	unsigned char buff= 0;

	while(1){
		putchar1(17);
    3bd4:	81 e1       	ldi	r24, 0x11	; 17
    3bd6:	0e 94 3e 01 	call	0x27c	; 0x27c <putchar1>
		putchar1(wm);
    3bda:	81 2f       	mov	r24, r17
    3bdc:	0e 94 3e 01 	call	0x27c	; 0x27c <putchar1>

		while(!rx1_flg);
    3be0:	80 91 04 02 	lds	r24, 0x0204
    3be4:	88 23       	and	r24, r24
    3be6:	e1 f3       	breq	.-8      	; 0x3be0 <TM+0x10>

		buff = getchar1();
    3be8:	0e 94 2b 01 	call	0x256	; 0x256 <getchar1>

		if(buff) break;
    3bec:	88 23       	and	r24, r24
    3bee:	91 f3       	breq	.-28     	; 0x3bd4 <TM+0x4>
	}
}
    3bf0:	1f 91       	pop	r17
    3bf2:	08 95       	ret

00003bf4 <T>:

int T(int data, int ci){
    3bf4:	4f 92       	push	r4
    3bf6:	5f 92       	push	r5
    3bf8:	6f 92       	push	r6
    3bfa:	7f 92       	push	r7
    3bfc:	8f 92       	push	r8
    3bfe:	9f 92       	push	r9
    3c00:	af 92       	push	r10
    3c02:	bf 92       	push	r11
    3c04:	cf 92       	push	r12
    3c06:	df 92       	push	r13
    3c08:	ef 92       	push	r14
    3c0a:	ff 92       	push	r15
    3c0c:	0f 93       	push	r16
    3c0e:	1f 93       	push	r17
    3c10:	cf 93       	push	r28
    3c12:	df 93       	push	r29
    3c14:	8c 01       	movw	r16, r24
    3c16:	3b 01       	movw	r6, r22
	int puck[5], col = 0, col2 = 0, min = 255, max = 0;

	for(int i = 1 ; i <= ci;  i++){
    3c18:	c1 e0       	ldi	r28, 0x01	; 1
    3c1a:	d0 e0       	ldi	r29, 0x00	; 0
		if(buff) break;
	}
}

int T(int data, int ci){
	int puck[5], col = 0, col2 = 0, min = 255, max = 0;
    3c1c:	cc 24       	eor	r12, r12
    3c1e:	dd 24       	eor	r13, r13
    3c20:	8f ef       	ldi	r24, 0xFF	; 255
    3c22:	a8 2e       	mov	r10, r24
    3c24:	b1 2c       	mov	r11, r1
    3c26:	88 24       	eor	r8, r8
    3c28:	99 24       	eor	r9, r9
    3c2a:	ee 24       	eor	r14, r14
    3c2c:	ff 24       	eor	r15, r15

	for(int i = 1 ; i <= ci;  i++){
		puck[i] = Cmd(i,abs(data));
    3c2e:	44 24       	eor	r4, r4
    3c30:	55 24       	eor	r5, r5
    3c32:	40 1a       	sub	r4, r16
    3c34:	51 0a       	sbc	r5, r17
}

int T(int data, int ci){
	int puck[5], col = 0, col2 = 0, min = 255, max = 0;

	for(int i = 1 ; i <= ci;  i++){
    3c36:	14 c0       	rjmp	.+40     	; 0x3c60 <T+0x6c>
		puck[i] = Cmd(i,abs(data));
    3c38:	60 2f       	mov	r22, r16
    3c3a:	17 fd       	sbrc	r17, 7
    3c3c:	64 2d       	mov	r22, r4
    3c3e:	8c 2f       	mov	r24, r28
    3c40:	0e 94 26 3f 	call	0x7e4c	; 0x7e4c <Cmd>
    3c44:	90 e0       	ldi	r25, 0x00	; 0
		if(max < puck[i]) max = puck[i], col = i;
    3c46:	c8 16       	cp	r12, r24
    3c48:	d9 06       	cpc	r13, r25
    3c4a:	14 f4       	brge	.+4      	; 0x3c50 <T+0x5c>
    3c4c:	6c 01       	movw	r12, r24
    3c4e:	7e 01       	movw	r14, r28
		if(min > puck[i] && puck[i]) min = puck[i], col2 = i;
    3c50:	8a 15       	cp	r24, r10
    3c52:	9b 05       	cpc	r25, r11
    3c54:	24 f4       	brge	.+8      	; 0x3c5e <T+0x6a>
    3c56:	00 97       	sbiw	r24, 0x00	; 0
    3c58:	11 f0       	breq	.+4      	; 0x3c5e <T+0x6a>
    3c5a:	5c 01       	movw	r10, r24
    3c5c:	4e 01       	movw	r8, r28
}

int T(int data, int ci){
	int puck[5], col = 0, col2 = 0, min = 255, max = 0;

	for(int i = 1 ; i <= ci;  i++){
    3c5e:	21 96       	adiw	r28, 0x01	; 1
    3c60:	6c 16       	cp	r6, r28
    3c62:	7d 06       	cpc	r7, r29
    3c64:	4c f7       	brge	.-46     	; 0x3c38 <T+0x44>
		puck[i] = Cmd(i,abs(data));
		if(max < puck[i]) max = puck[i], col = i;
		if(min > puck[i] && puck[i]) min = puck[i], col2 = i;
	}
	return (data > 0)? col : col2;
    3c66:	10 16       	cp	r1, r16
    3c68:	11 06       	cpc	r1, r17
    3c6a:	0c f0       	brlt	.+2      	; 0x3c6e <T+0x7a>
    3c6c:	74 01       	movw	r14, r8
}
    3c6e:	c7 01       	movw	r24, r14
    3c70:	df 91       	pop	r29
    3c72:	cf 91       	pop	r28
    3c74:	1f 91       	pop	r17
    3c76:	0f 91       	pop	r16
    3c78:	ff 90       	pop	r15
    3c7a:	ef 90       	pop	r14
    3c7c:	df 90       	pop	r13
    3c7e:	cf 90       	pop	r12
    3c80:	bf 90       	pop	r11
    3c82:	af 90       	pop	r10
    3c84:	9f 90       	pop	r9
    3c86:	8f 90       	pop	r8
    3c88:	7f 90       	pop	r7
    3c8a:	6f 90       	pop	r6
    3c8c:	5f 90       	pop	r5
    3c8e:	4f 90       	pop	r4
    3c90:	08 95       	ret

00003c92 <LF>:
		}
	}
}

double LF(double max, double min ,double v)
{
    3c92:	6f 92       	push	r6
    3c94:	7f 92       	push	r7
    3c96:	8f 92       	push	r8
    3c98:	9f 92       	push	r9
    3c9a:	af 92       	push	r10
    3c9c:	bf 92       	push	r11
    3c9e:	cf 92       	push	r12
    3ca0:	df 92       	push	r13
    3ca2:	ef 92       	push	r14
    3ca4:	ff 92       	push	r15
    3ca6:	0f 93       	push	r16
    3ca8:	1f 93       	push	r17
    3caa:	d6 2e       	mov	r13, r22
    3cac:	c7 2e       	mov	r12, r23
    3cae:	b8 2e       	mov	r11, r24
    3cb0:	a9 2e       	mov	r10, r25
    3cb2:	92 2e       	mov	r9, r18
    3cb4:	83 2e       	mov	r8, r19
    3cb6:	74 2e       	mov	r7, r20
    3cb8:	65 2e       	mov	r6, r21
	if(v>max) return max;
    3cba:	6e 2d       	mov	r22, r14
    3cbc:	7f 2d       	mov	r23, r15
    3cbe:	80 2f       	mov	r24, r16
    3cc0:	91 2f       	mov	r25, r17
    3cc2:	d6 01       	movw	r26, r12
    3cc4:	f5 01       	movw	r30, r10
    3cc6:	2b 2f       	mov	r18, r27
    3cc8:	3a 2f       	mov	r19, r26
    3cca:	4f 2f       	mov	r20, r31
    3ccc:	5e 2f       	mov	r21, r30
    3cce:	0e 94 93 42 	call	0x8526	; 0x8526 <__gesf2>
    3cd2:	18 16       	cp	r1, r24
    3cd4:	ac f0       	brlt	.+42     	; 0x3d00 <LF+0x6e>
	if(v<min) return min;
    3cd6:	6e 2d       	mov	r22, r14
    3cd8:	7f 2d       	mov	r23, r15
    3cda:	80 2f       	mov	r24, r16
    3cdc:	91 2f       	mov	r25, r17
    3cde:	d4 01       	movw	r26, r8
    3ce0:	f3 01       	movw	r30, r6
    3ce2:	2b 2f       	mov	r18, r27
    3ce4:	3a 2f       	mov	r19, r26
    3ce6:	4f 2f       	mov	r20, r31
    3ce8:	5e 2f       	mov	r21, r30
    3cea:	0e 94 c8 40 	call	0x8190	; 0x8190 <__cmpsf2>
    3cee:	87 ff       	sbrs	r24, 7
    3cf0:	03 c0       	rjmp	.+6      	; 0x3cf8 <LF+0x66>
    3cf2:	64 01       	movw	r12, r8
    3cf4:	53 01       	movw	r10, r6
    3cf6:	04 c0       	rjmp	.+8      	; 0x3d00 <LF+0x6e>
	return v;
    3cf8:	de 2c       	mov	r13, r14
    3cfa:	cf 2c       	mov	r12, r15
    3cfc:	b0 2e       	mov	r11, r16
    3cfe:	a1 2e       	mov	r10, r17
}
    3d00:	a6 01       	movw	r20, r12
    3d02:	95 01       	movw	r18, r10
    3d04:	65 2f       	mov	r22, r21
    3d06:	7c 2d       	mov	r23, r12
    3d08:	83 2f       	mov	r24, r19
    3d0a:	9a 2d       	mov	r25, r10
    3d0c:	1f 91       	pop	r17
    3d0e:	0f 91       	pop	r16
    3d10:	ff 90       	pop	r15
    3d12:	ef 90       	pop	r14
    3d14:	df 90       	pop	r13
    3d16:	cf 90       	pop	r12
    3d18:	bf 90       	pop	r11
    3d1a:	af 90       	pop	r10
    3d1c:	9f 90       	pop	r9
    3d1e:	8f 90       	pop	r8
    3d20:	7f 90       	pop	r7
    3d22:	6f 90       	pop	r6
    3d24:	08 95       	ret

00003d26 <TB2>:
			if(oc > 350 ) {LE return;}
			if(abs(x) <= 0 && abs(y) <= 1 && abs(z) <= 0) {LE return;}
		}
	}
}
void TB2(int col, int xp, int yp){
    3d26:	2f 92       	push	r2
    3d28:	3f 92       	push	r3
    3d2a:	5f 92       	push	r5
    3d2c:	6f 92       	push	r6
    3d2e:	7f 92       	push	r7
    3d30:	8f 92       	push	r8
    3d32:	9f 92       	push	r9
    3d34:	af 92       	push	r10
    3d36:	bf 92       	push	r11
    3d38:	cf 92       	push	r12
    3d3a:	df 92       	push	r13
    3d3c:	ef 92       	push	r14
    3d3e:	ff 92       	push	r15
    3d40:	0f 93       	push	r16
    3d42:	1f 93       	push	r17
    3d44:	df 93       	push	r29
    3d46:	cf 93       	push	r28
    3d48:	cd b7       	in	r28, 0x3d	; 61
    3d4a:	de b7       	in	r29, 0x3e	; 62
    3d4c:	28 97       	sbiw	r28, 0x08	; 8
    3d4e:	0f b6       	in	r0, 0x3f	; 63
    3d50:	f8 94       	cli
    3d52:	de bf       	out	0x3e, r29	; 62
    3d54:	0f be       	out	0x3f, r0	; 63
    3d56:	cd bf       	out	0x3d, r28	; 61
    3d58:	58 2e       	mov	r5, r24
    3d5a:	4b 01       	movw	r8, r22
    3d5c:	5a 83       	std	Y+2, r21	; 0x02
    3d5e:	49 83       	std	Y+1, r20	; 0x01
	ginit("TB2");
    3d60:	10 92 4b 02 	sts	0x024B, r1
    3d64:	10 92 4a 02 	sts	0x024A, r1
    3d68:	10 92 11 02 	sts	0x0211, r1
    3d6c:	10 92 10 02 	sts	0x0210, r1
    3d70:	80 91 10 02 	lds	r24, 0x0210
    3d74:	90 91 11 02 	lds	r25, 0x0211
    3d78:	90 93 5a 03 	sts	0x035A, r25
    3d7c:	80 93 59 03 	sts	0x0359, r24
    3d80:	80 91 59 03 	lds	r24, 0x0359
    3d84:	90 91 5a 03 	lds	r25, 0x035A
    3d88:	90 93 39 02 	sts	0x0239, r25
    3d8c:	80 93 38 02 	sts	0x0238, r24
    3d90:	60 e0       	ldi	r22, 0x00	; 0
    3d92:	70 e0       	ldi	r23, 0x00	; 0
    3d94:	80 e0       	ldi	r24, 0x00	; 0
    3d96:	90 e0       	ldi	r25, 0x00	; 0
    3d98:	dc 01       	movw	r26, r24
    3d9a:	8b 01       	movw	r16, r22
    3d9c:	00 0f       	add	r16, r16
    3d9e:	11 1f       	adc	r17, r17
    3da0:	00 0f       	add	r16, r16
    3da2:	11 1f       	adc	r17, r17
    3da4:	98 01       	movw	r18, r16
    3da6:	27 5b       	subi	r18, 0xB7	; 183
    3da8:	3c 4f       	sbci	r19, 0xFC	; 252
    3daa:	f9 01       	movw	r30, r18
    3dac:	80 83       	st	Z, r24
    3dae:	91 83       	std	Z+1, r25	; 0x01
    3db0:	a2 83       	std	Z+2, r26	; 0x02
    3db2:	b3 83       	std	Z+3, r27	; 0x03
    3db4:	20 81       	ld	r18, Z
    3db6:	31 81       	ldd	r19, Z+1	; 0x01
    3db8:	42 81       	ldd	r20, Z+2	; 0x02
    3dba:	53 81       	ldd	r21, Z+3	; 0x03
    3dbc:	f8 01       	movw	r30, r16
    3dbe:	e9 5c       	subi	r30, 0xC9	; 201
    3dc0:	fc 4f       	sbci	r31, 0xFC	; 252
    3dc2:	20 83       	st	Z, r18
    3dc4:	31 83       	std	Z+1, r19	; 0x01
    3dc6:	42 83       	std	Z+2, r20	; 0x02
    3dc8:	53 83       	std	Z+3, r21	; 0x03
    3dca:	6f 5f       	subi	r22, 0xFF	; 255
    3dcc:	7f 4f       	sbci	r23, 0xFF	; 255
    3dce:	64 30       	cpi	r22, 0x04	; 4
    3dd0:	71 05       	cpc	r23, r1
    3dd2:	19 f7       	brne	.-58     	; 0x3d9a <TB2+0x74>
    3dd4:	00 d0       	rcall	.+0      	; 0x3dd6 <TB2+0xb0>
    3dd6:	00 d0       	rcall	.+0      	; 0x3dd8 <TB2+0xb2>
    3dd8:	00 d0       	rcall	.+0      	; 0x3dda <TB2+0xb4>
    3dda:	ed b7       	in	r30, 0x3d	; 61
    3ddc:	fe b7       	in	r31, 0x3e	; 62
    3dde:	31 96       	adiw	r30, 0x01	; 1
    3de0:	01 e2       	ldi	r16, 0x21	; 33
    3de2:	13 e0       	ldi	r17, 0x03	; 3
    3de4:	ad b7       	in	r26, 0x3d	; 61
    3de6:	be b7       	in	r27, 0x3e	; 62
    3de8:	12 96       	adiw	r26, 0x02	; 2
    3dea:	1c 93       	st	X, r17
    3dec:	0e 93       	st	-X, r16
    3dee:	11 97       	sbiw	r26, 0x01	; 1
    3df0:	84 eb       	ldi	r24, 0xB4	; 180
    3df2:	91 e0       	ldi	r25, 0x01	; 1
    3df4:	93 83       	std	Z+3, r25	; 0x03
    3df6:	82 83       	std	Z+2, r24	; 0x02
    3df8:	89 eb       	ldi	r24, 0xB9	; 185
    3dfa:	91 e0       	ldi	r25, 0x01	; 1
    3dfc:	95 83       	std	Z+5, r25	; 0x05
    3dfe:	84 83       	std	Z+4, r24	; 0x04
    3e00:	0e 94 20 40 	call	0x8040	; 0x8040 <sprintf>
    3e04:	ed b7       	in	r30, 0x3d	; 61
    3e06:	fe b7       	in	r31, 0x3e	; 62
    3e08:	36 96       	adiw	r30, 0x06	; 6
    3e0a:	0f b6       	in	r0, 0x3f	; 63
    3e0c:	f8 94       	cli
    3e0e:	fe bf       	out	0x3e, r31	; 62
    3e10:	0f be       	out	0x3f, r0	; 63
    3e12:	ed bf       	out	0x3d, r30	; 61
    3e14:	80 e0       	ldi	r24, 0x00	; 0
    3e16:	67 e0       	ldi	r22, 0x07	; 7
    3e18:	a8 01       	movw	r20, r16
    3e1a:	0e 94 67 01 	call	0x2ce	; 0x2ce <LCD>

	int xpp=  0, ypp = 0;
	int x= 0, y=  0;
	
	pc= 0;
    3e1e:	10 92 5d 02 	sts	0x025D, r1
    3e22:	10 92 5c 02 	sts	0x025C, r1
	xpp = Cmd(col,102);
    3e26:	85 2d       	mov	r24, r5
    3e28:	66 e6       	ldi	r22, 0x66	; 102
    3e2a:	0e 94 26 3f 	call	0x7e4c	; 0x7e4c <Cmd>
    3e2e:	a8 2e       	mov	r10, r24
	xp += pos[2];
    3e30:	e0 90 76 02 	lds	r14, 0x0276
    3e34:	f0 90 77 02 	lds	r15, 0x0277
    3e38:	00 91 78 02 	lds	r16, 0x0278
    3e3c:	10 91 79 02 	lds	r17, 0x0279
    3e40:	b4 01       	movw	r22, r8
    3e42:	88 27       	eor	r24, r24
    3e44:	77 fd       	sbrc	r23, 7
    3e46:	80 95       	com	r24
    3e48:	98 2f       	mov	r25, r24
    3e4a:	0e 94 6a 41 	call	0x82d4	; 0x82d4 <__floatsisf>
    3e4e:	a8 01       	movw	r20, r16
    3e50:	97 01       	movw	r18, r14
    3e52:	0e 94 51 40 	call	0x80a2	; 0x80a2 <__addsf3>
    3e56:	0e 94 37 41 	call	0x826e	; 0x826e <__fixsfsi>
	xp += (xp - xpp) * ((xp - xpp)/ 600 + 0.24);
    3e5a:	4b 01       	movw	r8, r22
    3e5c:	8a 18       	sub	r8, r10
    3e5e:	91 08       	sbc	r9, r1
    3e60:	88 27       	eor	r24, r24
    3e62:	77 fd       	sbrc	r23, 7
    3e64:	80 95       	com	r24
    3e66:	98 2f       	mov	r25, r24
    3e68:	0e 94 6a 41 	call	0x82d4	; 0x82d4 <__floatsisf>
    3e6c:	5b 01       	movw	r10, r22
    3e6e:	6c 01       	movw	r12, r24
    3e70:	b4 01       	movw	r22, r8
    3e72:	88 27       	eor	r24, r24
    3e74:	77 fd       	sbrc	r23, 7
    3e76:	80 95       	com	r24
    3e78:	98 2f       	mov	r25, r24
    3e7a:	0e 94 6a 41 	call	0x82d4	; 0x82d4 <__floatsisf>
    3e7e:	7b 01       	movw	r14, r22
    3e80:	8c 01       	movw	r16, r24
    3e82:	c4 01       	movw	r24, r8
    3e84:	68 e5       	ldi	r22, 0x58	; 88
    3e86:	72 e0       	ldi	r23, 0x02	; 2
    3e88:	0e 94 cc 46 	call	0x8d98	; 0x8d98 <__divmodhi4>
    3e8c:	88 27       	eor	r24, r24
    3e8e:	77 fd       	sbrc	r23, 7
    3e90:	80 95       	com	r24
    3e92:	98 2f       	mov	r25, r24
    3e94:	0e 94 6a 41 	call	0x82d4	; 0x82d4 <__floatsisf>
    3e98:	2f e8       	ldi	r18, 0x8F	; 143
    3e9a:	32 ec       	ldi	r19, 0xC2	; 194
    3e9c:	45 e7       	ldi	r20, 0x75	; 117
    3e9e:	5e e3       	ldi	r21, 0x3E	; 62
    3ea0:	0e 94 51 40 	call	0x80a2	; 0x80a2 <__addsf3>
    3ea4:	9b 01       	movw	r18, r22
    3ea6:	ac 01       	movw	r20, r24
    3ea8:	c8 01       	movw	r24, r16
    3eaa:	b7 01       	movw	r22, r14
    3eac:	0e 94 2e 43 	call	0x865c	; 0x865c <__mulsf3>
    3eb0:	9b 01       	movw	r18, r22
    3eb2:	ac 01       	movw	r20, r24
    3eb4:	c6 01       	movw	r24, r12
    3eb6:	b5 01       	movw	r22, r10
    3eb8:	0e 94 51 40 	call	0x80a2	; 0x80a2 <__addsf3>
    3ebc:	0e 94 37 41 	call	0x826e	; 0x826e <__fixsfsi>
    3ec0:	1b 01       	movw	r2, r22
}
void TB2(int col, int xp, int yp){
	ginit("TB2");

	int xpp=  0, ypp = 0;
	int x= 0, y=  0;
    3ec2:	88 24       	eor	r8, r8
    3ec4:	99 24       	eor	r9, r9
	xp += (xp - xpp) * ((xp - xpp)/ 600 + 0.24);

	while(1){
		if(!gtc)
		{
			gtc = 1;
    3ec6:	91 e0       	ldi	r25, 0x01	; 1
    3ec8:	69 2e       	mov	r6, r25
    3eca:	71 2c       	mov	r7, r1
			
				if(!pc) pc = 1;
				if(pc > 350) {SS(); return;}
			
				if(xpp)
				 acf =cacf = 0;
    3ecc:	3c 82       	std	Y+4, r3	; 0x04
    3ece:	2b 82       	std	Y+3, r2	; 0x03
    3ed0:	14 01       	movw	r2, r8
	xpp = Cmd(col,102);
	xp += pos[2];
	xp += (xp - xpp) * ((xp - xpp)/ 600 + 0.24);

	while(1){
		if(!gtc)
    3ed2:	80 91 10 02 	lds	r24, 0x0210
    3ed6:	90 91 11 02 	lds	r25, 0x0211
    3eda:	00 97       	sbiw	r24, 0x00	; 0
    3edc:	d1 f7       	brne	.-12     	; 0x3ed2 <TB2+0x1ac>
		{
			gtc = 1;
    3ede:	70 92 11 02 	sts	0x0211, r7
    3ee2:	60 92 10 02 	sts	0x0210, r6
			xpp = Cmd(col,102);
    3ee6:	85 2d       	mov	r24, r5
    3ee8:	66 e6       	ldi	r22, 0x66	; 102
    3eea:	0e 94 26 3f 	call	0x7e4c	; 0x7e4c <Cmd>
    3eee:	e8 2e       	mov	r14, r24
    3ef0:	ff 24       	eor	r15, r15
			ypp = Cmd(col,103);
    3ef2:	85 2d       	mov	r24, r5
    3ef4:	67 e6       	ldi	r22, 0x67	; 103
    3ef6:	0e 94 26 3f 	call	0x7e4c	; 0x7e4c <Cmd>
    3efa:	38 c0       	rjmp	.+112    	; 0x3f6c <TB2+0x246>

			while(!xpp && !ypp){
				SS();
    3efc:	0e 94 a6 1d 	call	0x3b4c	; 0x3b4c <SS>
				xpp =  Cmd(col,102);
    3f00:	85 2d       	mov	r24, r5
    3f02:	66 e6       	ldi	r22, 0x66	; 102
    3f04:	0e 94 26 3f 	call	0x7e4c	; 0x7e4c <Cmd>
    3f08:	e8 2e       	mov	r14, r24
				ypp = Cmd(col,103);
    3f0a:	85 2d       	mov	r24, r5
    3f0c:	67 e6       	ldi	r22, 0x67	; 103
    3f0e:	0e 94 26 3f 	call	0x7e4c	; 0x7e4c <Cmd>
			
				if(!pc) pc = 1;
    3f12:	20 91 5c 02 	lds	r18, 0x025C
    3f16:	30 91 5d 02 	lds	r19, 0x025D
    3f1a:	21 15       	cp	r18, r1
    3f1c:	31 05       	cpc	r19, r1
    3f1e:	21 f4       	brne	.+8      	; 0x3f28 <TB2+0x202>
    3f20:	70 92 5d 02 	sts	0x025D, r7
    3f24:	60 92 5c 02 	sts	0x025C, r6
				if(pc > 350) {SS(); return;}
    3f28:	20 91 5c 02 	lds	r18, 0x025C
    3f2c:	30 91 5d 02 	lds	r19, 0x025D
    3f30:	f1 e0       	ldi	r31, 0x01	; 1
    3f32:	2f 35       	cpi	r18, 0x5F	; 95
    3f34:	3f 07       	cpc	r19, r31
    3f36:	1c f0       	brlt	.+6      	; 0x3f3e <TB2+0x218>
    3f38:	0e 94 a6 1d 	call	0x3b4c	; 0x3b4c <SS>
    3f3c:	12 c1       	rjmp	.+548    	; 0x4162 <TB2+0x43c>
			xpp = Cmd(col,102);
			ypp = Cmd(col,103);

			while(!xpp && !ypp){
				SS();
				xpp =  Cmd(col,102);
    3f3e:	ff 24       	eor	r15, r15
				ypp = Cmd(col,103);
			
				if(!pc) pc = 1;
				if(pc > 350) {SS(); return;}
			
				if(xpp)
    3f40:	e1 14       	cp	r14, r1
    3f42:	f1 04       	cpc	r15, r1
    3f44:	99 f0       	breq	.+38     	; 0x3f6c <TB2+0x246>
				 acf =cacf = 0;
    3f46:	20 e0       	ldi	r18, 0x00	; 0
    3f48:	30 e0       	ldi	r19, 0x00	; 0
    3f4a:	a9 01       	movw	r20, r18
    3f4c:	20 93 3c 02 	sts	0x023C, r18
    3f50:	30 93 3d 02 	sts	0x023D, r19
    3f54:	40 93 3e 02 	sts	0x023E, r20
    3f58:	50 93 3f 02 	sts	0x023F, r21
    3f5c:	20 93 22 02 	sts	0x0222, r18
    3f60:	30 93 23 02 	sts	0x0223, r19
    3f64:	40 93 24 02 	sts	0x0224, r20
    3f68:	50 93 25 02 	sts	0x0225, r21
			ypp = Cmd(col,103);

			while(!xpp && !ypp){
				SS();
				xpp =  Cmd(col,102);
				ypp = Cmd(col,103);
    3f6c:	08 2f       	mov	r16, r24
    3f6e:	10 e0       	ldi	r17, 0x00	; 0
		{
			gtc = 1;
			xpp = Cmd(col,102);
			ypp = Cmd(col,103);

			while(!xpp && !ypp){
    3f70:	e1 14       	cp	r14, r1
    3f72:	f1 04       	cpc	r15, r1
    3f74:	21 f4       	brne	.+8      	; 0x3f7e <TB2+0x258>
    3f76:	01 15       	cp	r16, r1
    3f78:	11 05       	cpc	r17, r1
    3f7a:	09 f4       	brne	.+2      	; 0x3f7e <TB2+0x258>
    3f7c:	bf cf       	rjmp	.-130    	; 0x3efc <TB2+0x1d6>
			
				if(xpp)
				 acf =cacf = 0;
			}

			if(xp)x = (xpp - xp) * 0.8;
    3f7e:	4b 81       	ldd	r20, Y+3	; 0x03
    3f80:	5c 81       	ldd	r21, Y+4	; 0x04
    3f82:	41 15       	cp	r20, r1
    3f84:	51 05       	cpc	r21, r1
    3f86:	91 f0       	breq	.+36     	; 0x3fac <TB2+0x286>
    3f88:	e4 1a       	sub	r14, r20
    3f8a:	f5 0a       	sbc	r15, r21
    3f8c:	b7 01       	movw	r22, r14
    3f8e:	88 27       	eor	r24, r24
    3f90:	77 fd       	sbrc	r23, 7
    3f92:	80 95       	com	r24
    3f94:	98 2f       	mov	r25, r24
    3f96:	0e 94 6a 41 	call	0x82d4	; 0x82d4 <__floatsisf>
    3f9a:	2d ec       	ldi	r18, 0xCD	; 205
    3f9c:	3c ec       	ldi	r19, 0xCC	; 204
    3f9e:	4c e4       	ldi	r20, 0x4C	; 76
    3fa0:	5f e3       	ldi	r21, 0x3F	; 63
    3fa2:	0e 94 2e 43 	call	0x865c	; 0x865c <__mulsf3>
    3fa6:	0e 94 37 41 	call	0x826e	; 0x826e <__fixsfsi>
    3faa:	1b 01       	movw	r2, r22
			if(yp)y = (yp - ypp);
    3fac:	89 81       	ldd	r24, Y+1	; 0x01
    3fae:	9a 81       	ldd	r25, Y+2	; 0x02
    3fb0:	00 97       	sbiw	r24, 0x00	; 0
    3fb2:	19 f0       	breq	.+6      	; 0x3fba <TB2+0x294>
    3fb4:	4c 01       	movw	r8, r24
    3fb6:	80 1a       	sub	r8, r16
    3fb8:	91 0a       	sbc	r9, r17
		

			x = LF(50,-50,x);
    3fba:	b1 01       	movw	r22, r2
    3fbc:	88 27       	eor	r24, r24
    3fbe:	77 fd       	sbrc	r23, 7
    3fc0:	80 95       	com	r24
    3fc2:	98 2f       	mov	r25, r24
    3fc4:	0e 94 6a 41 	call	0x82d4	; 0x82d4 <__floatsisf>
    3fc8:	7b 01       	movw	r14, r22
    3fca:	8c 01       	movw	r16, r24
    3fcc:	60 e0       	ldi	r22, 0x00	; 0
    3fce:	70 e0       	ldi	r23, 0x00	; 0
    3fd0:	88 e4       	ldi	r24, 0x48	; 72
    3fd2:	92 e4       	ldi	r25, 0x42	; 66
    3fd4:	20 e0       	ldi	r18, 0x00	; 0
    3fd6:	30 e0       	ldi	r19, 0x00	; 0
    3fd8:	48 e4       	ldi	r20, 0x48	; 72
    3fda:	52 ec       	ldi	r21, 0xC2	; 194
    3fdc:	0e 94 49 1e 	call	0x3c92	; 0x3c92 <LF>
    3fe0:	0e 94 37 41 	call	0x826e	; 0x826e <__fixsfsi>
    3fe4:	1b 01       	movw	r2, r22
			y = LF(60,-60,y);
    3fe6:	b4 01       	movw	r22, r8
    3fe8:	88 27       	eor	r24, r24
    3fea:	77 fd       	sbrc	r23, 7
    3fec:	80 95       	com	r24
    3fee:	98 2f       	mov	r25, r24
    3ff0:	0e 94 6a 41 	call	0x82d4	; 0x82d4 <__floatsisf>
    3ff4:	7b 01       	movw	r14, r22
    3ff6:	8c 01       	movw	r16, r24
    3ff8:	60 e0       	ldi	r22, 0x00	; 0
    3ffa:	70 e0       	ldi	r23, 0x00	; 0
    3ffc:	80 e7       	ldi	r24, 0x70	; 112
    3ffe:	92 e4       	ldi	r25, 0x42	; 66
    4000:	20 e0       	ldi	r18, 0x00	; 0
    4002:	30 e0       	ldi	r19, 0x00	; 0
    4004:	40 e7       	ldi	r20, 0x70	; 112
    4006:	52 ec       	ldi	r21, 0xC2	; 194
    4008:	0e 94 49 1e 	call	0x3c92	; 0x3c92 <LF>
    400c:	0e 94 37 41 	call	0x826e	; 0x826e <__fixsfsi>
    4010:	4b 01       	movw	r8, r22

			speed(0, y*cacf*0.8 ,x*acf,wa + pos[2]);
    4012:	a0 90 76 02 	lds	r10, 0x0276
    4016:	b0 90 77 02 	lds	r11, 0x0277
    401a:	c0 90 78 02 	lds	r12, 0x0278
    401e:	d0 90 79 02 	lds	r13, 0x0279
    4022:	b4 01       	movw	r22, r8
    4024:	88 27       	eor	r24, r24
    4026:	77 fd       	sbrc	r23, 7
    4028:	80 95       	com	r24
    402a:	98 2f       	mov	r25, r24
    402c:	0e 94 6a 41 	call	0x82d4	; 0x82d4 <__floatsisf>
    4030:	20 91 3c 02 	lds	r18, 0x023C
    4034:	30 91 3d 02 	lds	r19, 0x023D
    4038:	40 91 3e 02 	lds	r20, 0x023E
    403c:	50 91 3f 02 	lds	r21, 0x023F
    4040:	0e 94 2e 43 	call	0x865c	; 0x865c <__mulsf3>
    4044:	2d ec       	ldi	r18, 0xCD	; 205
    4046:	3c ec       	ldi	r19, 0xCC	; 204
    4048:	4c e4       	ldi	r20, 0x4C	; 76
    404a:	5f e3       	ldi	r21, 0x3F	; 63
    404c:	0e 94 2e 43 	call	0x865c	; 0x865c <__mulsf3>
    4050:	6d 83       	std	Y+5, r22	; 0x05
    4052:	7e 83       	std	Y+6, r23	; 0x06
    4054:	8f 83       	std	Y+7, r24	; 0x07
    4056:	98 87       	std	Y+8, r25	; 0x08
    4058:	b1 01       	movw	r22, r2
    405a:	88 27       	eor	r24, r24
    405c:	77 fd       	sbrc	r23, 7
    405e:	80 95       	com	r24
    4060:	98 2f       	mov	r25, r24
    4062:	0e 94 6a 41 	call	0x82d4	; 0x82d4 <__floatsisf>
    4066:	20 91 22 02 	lds	r18, 0x0222
    406a:	30 91 23 02 	lds	r19, 0x0223
    406e:	40 91 24 02 	lds	r20, 0x0224
    4072:	50 91 25 02 	lds	r21, 0x0225
    4076:	0e 94 2e 43 	call	0x865c	; 0x865c <__mulsf3>
    407a:	7b 01       	movw	r14, r22
    407c:	8c 01       	movw	r16, r24
    407e:	60 91 5e 02 	lds	r22, 0x025E
    4082:	70 91 5f 02 	lds	r23, 0x025F
    4086:	88 27       	eor	r24, r24
    4088:	77 fd       	sbrc	r23, 7
    408a:	80 95       	com	r24
    408c:	98 2f       	mov	r25, r24
    408e:	0e 94 6a 41 	call	0x82d4	; 0x82d4 <__floatsisf>
    4092:	a6 01       	movw	r20, r12
    4094:	95 01       	movw	r18, r10
    4096:	0e 94 51 40 	call	0x80a2	; 0x80a2 <__addsf3>
    409a:	5b 01       	movw	r10, r22
    409c:	6c 01       	movw	r12, r24
    409e:	60 e0       	ldi	r22, 0x00	; 0
    40a0:	70 e0       	ldi	r23, 0x00	; 0
    40a2:	cb 01       	movw	r24, r22
    40a4:	2d 81       	ldd	r18, Y+5	; 0x05
    40a6:	3e 81       	ldd	r19, Y+6	; 0x06
    40a8:	4f 81       	ldd	r20, Y+7	; 0x07
    40aa:	58 85       	ldd	r21, Y+8	; 0x08
    40ac:	0e 94 93 16 	call	0x2d26	; 0x2d26 <speed>
		
			if(!oc) oc = 1;
    40b0:	80 91 38 02 	lds	r24, 0x0238
    40b4:	90 91 39 02 	lds	r25, 0x0239
    40b8:	00 97       	sbiw	r24, 0x00	; 0
    40ba:	21 f4       	brne	.+8      	; 0x40c4 <TB2+0x39e>
    40bc:	70 92 39 02 	sts	0x0239, r7
    40c0:	60 92 38 02 	sts	0x0238, r6
			if(oc > 350 ) {LE return;}
    40c4:	80 91 38 02 	lds	r24, 0x0238
    40c8:	90 91 39 02 	lds	r25, 0x0239
    40cc:	a1 e0       	ldi	r26, 0x01	; 1
    40ce:	8f 35       	cpi	r24, 0x5F	; 95
    40d0:	9a 07       	cpc	r25, r26
    40d2:	54 f4       	brge	.+20     	; 0x40e8 <TB2+0x3c2>
			if(abs(x) <= 0 && abs(y) <= 1) {LE return;}
    40d4:	21 14       	cp	r2, r1
    40d6:	31 04       	cpc	r3, r1
    40d8:	09 f0       	breq	.+2      	; 0x40dc <TB2+0x3b6>
    40da:	fb ce       	rjmp	.-522    	; 0x3ed2 <TB2+0x1ac>
    40dc:	c4 01       	movw	r24, r8
    40de:	01 96       	adiw	r24, 0x01	; 1
    40e0:	83 30       	cpi	r24, 0x03	; 3
    40e2:	91 05       	cpc	r25, r1
    40e4:	08 f0       	brcs	.+2      	; 0x40e8 <TB2+0x3c2>
    40e6:	f5 ce       	rjmp	.-534    	; 0x3ed2 <TB2+0x1ac>
    40e8:	10 92 4b 02 	sts	0x024B, r1
    40ec:	10 92 4a 02 	sts	0x024A, r1
    40f0:	80 e0       	ldi	r24, 0x00	; 0
    40f2:	90 e0       	ldi	r25, 0x00	; 0
    40f4:	dc 01       	movw	r26, r24
    40f6:	80 93 93 02 	sts	0x0293, r24
    40fa:	90 93 94 02 	sts	0x0294, r25
    40fe:	a0 93 95 02 	sts	0x0295, r26
    4102:	b0 93 96 02 	sts	0x0296, r27
    4106:	80 91 93 02 	lds	r24, 0x0293
    410a:	90 91 94 02 	lds	r25, 0x0294
    410e:	a0 91 95 02 	lds	r26, 0x0295
    4112:	b0 91 96 02 	lds	r27, 0x0296
    4116:	80 93 1d 03 	sts	0x031D, r24
    411a:	90 93 1e 03 	sts	0x031E, r25
    411e:	a0 93 1f 03 	sts	0x031F, r26
    4122:	b0 93 20 03 	sts	0x0320, r27
    4126:	80 91 1d 03 	lds	r24, 0x031D
    412a:	90 91 1e 03 	lds	r25, 0x031E
    412e:	a0 91 1f 03 	lds	r26, 0x031F
    4132:	b0 91 20 03 	lds	r27, 0x0320
    4136:	80 93 87 02 	sts	0x0287, r24
    413a:	90 93 88 02 	sts	0x0288, r25
    413e:	a0 93 89 02 	sts	0x0289, r26
    4142:	b0 93 8a 02 	sts	0x028A, r27
    4146:	60 91 87 02 	lds	r22, 0x0287
    414a:	70 91 88 02 	lds	r23, 0x0288
    414e:	80 91 89 02 	lds	r24, 0x0289
    4152:	90 91 8a 02 	lds	r25, 0x028A
    4156:	0e 94 37 41 	call	0x826e	; 0x826e <__fixsfsi>
    415a:	70 93 39 02 	sts	0x0239, r23
    415e:	60 93 38 02 	sts	0x0238, r22
		}
	}
}
    4162:	28 96       	adiw	r28, 0x08	; 8
    4164:	0f b6       	in	r0, 0x3f	; 63
    4166:	f8 94       	cli
    4168:	de bf       	out	0x3e, r29	; 62
    416a:	0f be       	out	0x3f, r0	; 63
    416c:	cd bf       	out	0x3d, r28	; 61
    416e:	cf 91       	pop	r28
    4170:	df 91       	pop	r29
    4172:	1f 91       	pop	r17
    4174:	0f 91       	pop	r16
    4176:	ff 90       	pop	r15
    4178:	ef 90       	pop	r14
    417a:	df 90       	pop	r13
    417c:	cf 90       	pop	r12
    417e:	bf 90       	pop	r11
    4180:	af 90       	pop	r10
    4182:	9f 90       	pop	r9
    4184:	8f 90       	pop	r8
    4186:	7f 90       	pop	r7
    4188:	6f 90       	pop	r6
    418a:	5f 90       	pop	r5
    418c:	3f 90       	pop	r3
    418e:	2f 90       	pop	r2
    4190:	08 95       	ret

00004192 <TB>:
		if(abs(x) <= 3 && abs(y) <= 3 && abs(z) <= 0) {LE return;}
	}
}

*/
void TB(int col, int zp, int xp, int yp){
    4192:	2f 92       	push	r2
    4194:	3f 92       	push	r3
    4196:	5f 92       	push	r5
    4198:	6f 92       	push	r6
    419a:	7f 92       	push	r7
    419c:	8f 92       	push	r8
    419e:	9f 92       	push	r9
    41a0:	af 92       	push	r10
    41a2:	bf 92       	push	r11
    41a4:	cf 92       	push	r12
    41a6:	df 92       	push	r13
    41a8:	ef 92       	push	r14
    41aa:	ff 92       	push	r15
    41ac:	0f 93       	push	r16
    41ae:	1f 93       	push	r17
    41b0:	df 93       	push	r29
    41b2:	cf 93       	push	r28
    41b4:	cd b7       	in	r28, 0x3d	; 61
    41b6:	de b7       	in	r29, 0x3e	; 62
    41b8:	60 97       	sbiw	r28, 0x10	; 16
    41ba:	0f b6       	in	r0, 0x3f	; 63
    41bc:	f8 94       	cli
    41be:	de bf       	out	0x3e, r29	; 62
    41c0:	0f be       	out	0x3f, r0	; 63
    41c2:	cd bf       	out	0x3d, r28	; 61
    41c4:	58 2e       	mov	r5, r24
    41c6:	7a 83       	std	Y+2, r23	; 0x02
    41c8:	69 83       	std	Y+1, r22	; 0x01
    41ca:	5c 83       	std	Y+4, r21	; 0x04
    41cc:	4b 83       	std	Y+3, r20	; 0x03
    41ce:	3e 83       	std	Y+6, r19	; 0x06
    41d0:	2d 83       	std	Y+5, r18	; 0x05
	ginit("TB");
    41d2:	10 92 4b 02 	sts	0x024B, r1
    41d6:	10 92 4a 02 	sts	0x024A, r1
    41da:	10 92 11 02 	sts	0x0211, r1
    41de:	10 92 10 02 	sts	0x0210, r1
    41e2:	80 91 10 02 	lds	r24, 0x0210
    41e6:	90 91 11 02 	lds	r25, 0x0211
    41ea:	90 93 5a 03 	sts	0x035A, r25
    41ee:	80 93 59 03 	sts	0x0359, r24
    41f2:	80 91 59 03 	lds	r24, 0x0359
    41f6:	90 91 5a 03 	lds	r25, 0x035A
    41fa:	90 93 39 02 	sts	0x0239, r25
    41fe:	80 93 38 02 	sts	0x0238, r24
    4202:	60 e0       	ldi	r22, 0x00	; 0
    4204:	70 e0       	ldi	r23, 0x00	; 0
    4206:	80 e0       	ldi	r24, 0x00	; 0
    4208:	90 e0       	ldi	r25, 0x00	; 0
    420a:	dc 01       	movw	r26, r24
    420c:	8b 01       	movw	r16, r22
    420e:	00 0f       	add	r16, r16
    4210:	11 1f       	adc	r17, r17
    4212:	00 0f       	add	r16, r16
    4214:	11 1f       	adc	r17, r17
    4216:	98 01       	movw	r18, r16
    4218:	27 5b       	subi	r18, 0xB7	; 183
    421a:	3c 4f       	sbci	r19, 0xFC	; 252
    421c:	f9 01       	movw	r30, r18
    421e:	80 83       	st	Z, r24
    4220:	91 83       	std	Z+1, r25	; 0x01
    4222:	a2 83       	std	Z+2, r26	; 0x02
    4224:	b3 83       	std	Z+3, r27	; 0x03
    4226:	20 81       	ld	r18, Z
    4228:	31 81       	ldd	r19, Z+1	; 0x01
    422a:	42 81       	ldd	r20, Z+2	; 0x02
    422c:	53 81       	ldd	r21, Z+3	; 0x03
    422e:	f8 01       	movw	r30, r16
    4230:	e9 5c       	subi	r30, 0xC9	; 201
    4232:	fc 4f       	sbci	r31, 0xFC	; 252
    4234:	20 83       	st	Z, r18
    4236:	31 83       	std	Z+1, r19	; 0x01
    4238:	42 83       	std	Z+2, r20	; 0x02
    423a:	53 83       	std	Z+3, r21	; 0x03
    423c:	6f 5f       	subi	r22, 0xFF	; 255
    423e:	7f 4f       	sbci	r23, 0xFF	; 255
    4240:	64 30       	cpi	r22, 0x04	; 4
    4242:	71 05       	cpc	r23, r1
    4244:	19 f7       	brne	.-58     	; 0x420c <TB+0x7a>
    4246:	00 d0       	rcall	.+0      	; 0x4248 <TB+0xb6>
    4248:	00 d0       	rcall	.+0      	; 0x424a <TB+0xb8>
    424a:	00 d0       	rcall	.+0      	; 0x424c <TB+0xba>
    424c:	ed b7       	in	r30, 0x3d	; 61
    424e:	fe b7       	in	r31, 0x3e	; 62
    4250:	31 96       	adiw	r30, 0x01	; 1
    4252:	01 e2       	ldi	r16, 0x21	; 33
    4254:	13 e0       	ldi	r17, 0x03	; 3
    4256:	ad b7       	in	r26, 0x3d	; 61
    4258:	be b7       	in	r27, 0x3e	; 62
    425a:	12 96       	adiw	r26, 0x02	; 2
    425c:	1c 93       	st	X, r17
    425e:	0e 93       	st	-X, r16
    4260:	11 97       	sbiw	r26, 0x01	; 1
    4262:	84 eb       	ldi	r24, 0xB4	; 180
    4264:	91 e0       	ldi	r25, 0x01	; 1
    4266:	93 83       	std	Z+3, r25	; 0x03
    4268:	82 83       	std	Z+2, r24	; 0x02
    426a:	8d eb       	ldi	r24, 0xBD	; 189
    426c:	91 e0       	ldi	r25, 0x01	; 1
    426e:	95 83       	std	Z+5, r25	; 0x05
    4270:	84 83       	std	Z+4, r24	; 0x04
    4272:	0e 94 20 40 	call	0x8040	; 0x8040 <sprintf>
    4276:	ed b7       	in	r30, 0x3d	; 61
    4278:	fe b7       	in	r31, 0x3e	; 62
    427a:	36 96       	adiw	r30, 0x06	; 6
    427c:	0f b6       	in	r0, 0x3f	; 63
    427e:	f8 94       	cli
    4280:	fe bf       	out	0x3e, r31	; 62
    4282:	0f be       	out	0x3f, r0	; 63
    4284:	ed bf       	out	0x3d, r30	; 61
    4286:	80 e0       	ldi	r24, 0x00	; 0
    4288:	67 e0       	ldi	r22, 0x07	; 7
    428a:	a8 01       	movw	r20, r16
    428c:	0e 94 67 01 	call	0x2ce	; 0x2ce <LCD>

	int xpp=  0, ypp = 0, zpp= 0;
	int x= 0, y=  0, z= 0;
	
	pc= 0;
    4290:	10 92 5d 02 	sts	0x025D, r1
    4294:	10 92 5c 02 	sts	0x025C, r1
*/
void TB(int col, int zp, int xp, int yp){
	ginit("TB");

	int xpp=  0, ypp = 0, zpp= 0;
	int x= 0, y=  0, z= 0;
    4298:	88 24       	eor	r8, r8
    429a:	99 24       	eor	r9, r9
    429c:	80 e0       	ldi	r24, 0x00	; 0
    429e:	90 e0       	ldi	r25, 0x00	; 0
    42a0:	66 24       	eor	r6, r6
    42a2:	77 24       	eor	r7, r7
	
	pc= 0;
	while(1){
		if(!gtc)
		{
			gtc = 1;
    42a4:	31 e0       	ldi	r19, 0x01	; 1
    42a6:	23 2e       	mov	r2, r19
    42a8:	31 2c       	mov	r3, r1
			
				if(!pc) pc = 1;
				if(pc > 350) {SS(); return;}
			
				if(xpp)
				 acf =cacf = 0;
    42aa:	98 8b       	std	Y+16, r25	; 0x10
    42ac:	8f 87       	std	Y+15, r24	; 0x0f
	int xpp=  0, ypp = 0, zpp= 0;
	int x= 0, y=  0, z= 0;
	
	pc= 0;
	while(1){
		if(!gtc)
    42ae:	80 91 10 02 	lds	r24, 0x0210
    42b2:	90 91 11 02 	lds	r25, 0x0211
    42b6:	00 97       	sbiw	r24, 0x00	; 0
    42b8:	d1 f7       	brne	.-12     	; 0x42ae <TB+0x11c>
		{
			gtc = 1;
    42ba:	30 92 11 02 	sts	0x0211, r3
    42be:	20 92 10 02 	sts	0x0210, r2
			xpp = zpp = Cmd(col,102);
    42c2:	85 2d       	mov	r24, r5
    42c4:	66 e6       	ldi	r22, 0x66	; 102
    42c6:	0e 94 26 3f 	call	0x7e4c	; 0x7e4c <Cmd>
    42ca:	e8 2e       	mov	r14, r24
    42cc:	ff 24       	eor	r15, r15
			ypp = Cmd(col,103);
    42ce:	85 2d       	mov	r24, r5
    42d0:	67 e6       	ldi	r22, 0x67	; 103
    42d2:	0e 94 26 3f 	call	0x7e4c	; 0x7e4c <Cmd>
    42d6:	08 2f       	mov	r16, r24
    42d8:	10 e0       	ldi	r17, 0x00	; 0
	pc= 0;
	while(1){
		if(!gtc)
		{
			gtc = 1;
			xpp = zpp = Cmd(col,102);
    42da:	b7 01       	movw	r22, r14
    42dc:	cf 84       	ldd	r12, Y+15	; 0x0f
    42de:	d8 88       	ldd	r13, Y+16	; 0x10
			ypp = Cmd(col,103);

			while(!xpp && !ypp){
    42e0:	3b c0       	rjmp	.+118    	; 0x4358 <TB+0x1c6>
				SS();
    42e2:	0e 94 a6 1d 	call	0x3b4c	; 0x3b4c <SS>
				xpp =  Cmd(col,102);
    42e6:	85 2d       	mov	r24, r5
    42e8:	66 e6       	ldi	r22, 0x66	; 102
    42ea:	0e 94 26 3f 	call	0x7e4c	; 0x7e4c <Cmd>
    42ee:	a8 2e       	mov	r10, r24
				ypp = Cmd(col,103);
    42f0:	85 2d       	mov	r24, r5
    42f2:	67 e6       	ldi	r22, 0x67	; 103
    42f4:	0e 94 26 3f 	call	0x7e4c	; 0x7e4c <Cmd>
			
				if(!pc) pc = 1;
    42f8:	20 91 5c 02 	lds	r18, 0x025C
    42fc:	30 91 5d 02 	lds	r19, 0x025D
    4300:	21 15       	cp	r18, r1
    4302:	31 05       	cpc	r19, r1
    4304:	21 f4       	brne	.+8      	; 0x430e <TB+0x17c>
    4306:	30 92 5d 02 	sts	0x025D, r3
    430a:	20 92 5c 02 	sts	0x025C, r2
				if(pc > 350) {SS(); return;}
    430e:	20 91 5c 02 	lds	r18, 0x025C
    4312:	30 91 5d 02 	lds	r19, 0x025D
    4316:	f1 e0       	ldi	r31, 0x01	; 1
    4318:	2f 35       	cpi	r18, 0x5F	; 95
    431a:	3f 07       	cpc	r19, r31
    431c:	1c f0       	brlt	.+6      	; 0x4324 <TB+0x192>
    431e:	0e 94 a6 1d 	call	0x3b4c	; 0x3b4c <SS>
    4322:	57 c1       	rjmp	.+686    	; 0x45d2 <TB+0x440>
			xpp = zpp = Cmd(col,102);
			ypp = Cmd(col,103);

			while(!xpp && !ypp){
				SS();
				xpp =  Cmd(col,102);
    4324:	6a 2d       	mov	r22, r10
    4326:	70 e0       	ldi	r23, 0x00	; 0
				ypp = Cmd(col,103);
			
				if(!pc) pc = 1;
				if(pc > 350) {SS(); return;}
			
				if(xpp)
    4328:	61 15       	cp	r22, r1
    432a:	71 05       	cpc	r23, r1
    432c:	99 f0       	breq	.+38     	; 0x4354 <TB+0x1c2>
				 acf =cacf = 0;
    432e:	20 e0       	ldi	r18, 0x00	; 0
    4330:	30 e0       	ldi	r19, 0x00	; 0
    4332:	a9 01       	movw	r20, r18
    4334:	20 93 3c 02 	sts	0x023C, r18
    4338:	30 93 3d 02 	sts	0x023D, r19
    433c:	40 93 3e 02 	sts	0x023E, r20
    4340:	50 93 3f 02 	sts	0x023F, r21
    4344:	20 93 22 02 	sts	0x0222, r18
    4348:	30 93 23 02 	sts	0x0223, r19
    434c:	40 93 24 02 	sts	0x0224, r20
    4350:	50 93 25 02 	sts	0x0225, r21
			ypp = Cmd(col,103);

			while(!xpp && !ypp){
				SS();
				xpp =  Cmd(col,102);
				ypp = Cmd(col,103);
    4354:	08 2f       	mov	r16, r24
    4356:	10 e0       	ldi	r17, 0x00	; 0
		{
			gtc = 1;
			xpp = zpp = Cmd(col,102);
			ypp = Cmd(col,103);

			while(!xpp && !ypp){
    4358:	61 15       	cp	r22, r1
    435a:	71 05       	cpc	r23, r1
    435c:	21 f4       	brne	.+8      	; 0x4366 <TB+0x1d4>
    435e:	01 15       	cp	r16, r1
    4360:	11 05       	cpc	r17, r1
    4362:	09 f4       	brne	.+2      	; 0x4366 <TB+0x1d4>
    4364:	be cf       	rjmp	.-132    	; 0x42e2 <TB+0x150>
    4366:	d8 8a       	std	Y+16, r13	; 0x10
    4368:	cf 86       	std	Y+15, r12	; 0x0f
				if(pc > 350) {SS(); return;}
			
				if(xpp)
				 acf =cacf = 0;
			}
			if(xp) x = (xpp -xp) * 0.8;
    436a:	4b 81       	ldd	r20, Y+3	; 0x03
    436c:	5c 81       	ldd	r21, Y+4	; 0x04
    436e:	41 15       	cp	r20, r1
    4370:	51 05       	cpc	r21, r1
    4372:	89 f0       	breq	.+34     	; 0x4396 <TB+0x204>
    4374:	64 1b       	sub	r22, r20
    4376:	75 0b       	sbc	r23, r21
    4378:	88 27       	eor	r24, r24
    437a:	77 fd       	sbrc	r23, 7
    437c:	80 95       	com	r24
    437e:	98 2f       	mov	r25, r24
    4380:	0e 94 6a 41 	call	0x82d4	; 0x82d4 <__floatsisf>
    4384:	2d ec       	ldi	r18, 0xCD	; 205
    4386:	3c ec       	ldi	r19, 0xCC	; 204
    4388:	4c e4       	ldi	r20, 0x4C	; 76
    438a:	5f e3       	ldi	r21, 0x3F	; 63
    438c:	0e 94 2e 43 	call	0x865c	; 0x865c <__mulsf3>
    4390:	0e 94 37 41 	call	0x826e	; 0x826e <__fixsfsi>
    4394:	3b 01       	movw	r6, r22
			if(zp) z = (zpp -zp) * 0.6;
    4396:	89 81       	ldd	r24, Y+1	; 0x01
    4398:	9a 81       	ldd	r25, Y+2	; 0x02
    439a:	00 97       	sbiw	r24, 0x00	; 0
    439c:	91 f0       	breq	.+36     	; 0x43c2 <TB+0x230>
    439e:	e8 1a       	sub	r14, r24
    43a0:	f9 0a       	sbc	r15, r25
    43a2:	b7 01       	movw	r22, r14
    43a4:	88 27       	eor	r24, r24
    43a6:	77 fd       	sbrc	r23, 7
    43a8:	80 95       	com	r24
    43aa:	98 2f       	mov	r25, r24
    43ac:	0e 94 6a 41 	call	0x82d4	; 0x82d4 <__floatsisf>
    43b0:	2a e9       	ldi	r18, 0x9A	; 154
    43b2:	39 e9       	ldi	r19, 0x99	; 153
    43b4:	49 e1       	ldi	r20, 0x19	; 25
    43b6:	5f e3       	ldi	r21, 0x3F	; 63
    43b8:	0e 94 2e 43 	call	0x865c	; 0x865c <__mulsf3>
    43bc:	0e 94 37 41 	call	0x826e	; 0x826e <__fixsfsi>
    43c0:	4b 01       	movw	r8, r22
			if(yp) y = (yp -ypp);
    43c2:	ad 81       	ldd	r26, Y+5	; 0x05
    43c4:	be 81       	ldd	r27, Y+6	; 0x06
    43c6:	10 97       	sbiw	r26, 0x00	; 0
    43c8:	21 f0       	breq	.+8      	; 0x43d2 <TB+0x240>
    43ca:	a0 1b       	sub	r26, r16
    43cc:	b1 0b       	sbc	r27, r17
    43ce:	b8 8b       	std	Y+16, r27	; 0x10
    43d0:	af 87       	std	Y+15, r26	; 0x0f
		

			x = LF(30,-30,x);
    43d2:	b3 01       	movw	r22, r6
    43d4:	88 27       	eor	r24, r24
    43d6:	77 fd       	sbrc	r23, 7
    43d8:	80 95       	com	r24
    43da:	98 2f       	mov	r25, r24
    43dc:	0e 94 6a 41 	call	0x82d4	; 0x82d4 <__floatsisf>
    43e0:	7b 01       	movw	r14, r22
    43e2:	8c 01       	movw	r16, r24
    43e4:	60 e0       	ldi	r22, 0x00	; 0
    43e6:	70 e0       	ldi	r23, 0x00	; 0
    43e8:	80 ef       	ldi	r24, 0xF0	; 240
    43ea:	91 e4       	ldi	r25, 0x41	; 65
    43ec:	20 e0       	ldi	r18, 0x00	; 0
    43ee:	30 e0       	ldi	r19, 0x00	; 0
    43f0:	40 ef       	ldi	r20, 0xF0	; 240
    43f2:	51 ec       	ldi	r21, 0xC1	; 193
    43f4:	0e 94 49 1e 	call	0x3c92	; 0x3c92 <LF>
    43f8:	0e 94 37 41 	call	0x826e	; 0x826e <__fixsfsi>
    43fc:	3b 01       	movw	r6, r22
			y = LF(55,-55,y);
    43fe:	ef 85       	ldd	r30, Y+15	; 0x0f
    4400:	f8 89       	ldd	r31, Y+16	; 0x10
    4402:	bf 01       	movw	r22, r30
    4404:	88 27       	eor	r24, r24
    4406:	77 fd       	sbrc	r23, 7
    4408:	80 95       	com	r24
    440a:	98 2f       	mov	r25, r24
    440c:	0e 94 6a 41 	call	0x82d4	; 0x82d4 <__floatsisf>
    4410:	7b 01       	movw	r14, r22
    4412:	8c 01       	movw	r16, r24
    4414:	60 e0       	ldi	r22, 0x00	; 0
    4416:	70 e0       	ldi	r23, 0x00	; 0
    4418:	8c e5       	ldi	r24, 0x5C	; 92
    441a:	92 e4       	ldi	r25, 0x42	; 66
    441c:	20 e0       	ldi	r18, 0x00	; 0
    441e:	30 e0       	ldi	r19, 0x00	; 0
    4420:	4c e5       	ldi	r20, 0x5C	; 92
    4422:	52 ec       	ldi	r21, 0xC2	; 194
    4424:	0e 94 49 1e 	call	0x3c92	; 0x3c92 <LF>
    4428:	0e 94 37 41 	call	0x826e	; 0x826e <__fixsfsi>
    442c:	78 8b       	std	Y+16, r23	; 0x10
    442e:	6f 87       	std	Y+15, r22	; 0x0f
			z = LF(50,-50,z);
    4430:	b4 01       	movw	r22, r8
    4432:	88 27       	eor	r24, r24
    4434:	77 fd       	sbrc	r23, 7
    4436:	80 95       	com	r24
    4438:	98 2f       	mov	r25, r24
    443a:	0e 94 6a 41 	call	0x82d4	; 0x82d4 <__floatsisf>
    443e:	7b 01       	movw	r14, r22
    4440:	8c 01       	movw	r16, r24
    4442:	60 e0       	ldi	r22, 0x00	; 0
    4444:	70 e0       	ldi	r23, 0x00	; 0
    4446:	88 e4       	ldi	r24, 0x48	; 72
    4448:	92 e4       	ldi	r25, 0x42	; 66
    444a:	20 e0       	ldi	r18, 0x00	; 0
    444c:	30 e0       	ldi	r19, 0x00	; 0
    444e:	48 e4       	ldi	r20, 0x48	; 72
    4450:	52 ec       	ldi	r21, 0xC2	; 194
    4452:	0e 94 49 1e 	call	0x3c92	; 0x3c92 <LF>
    4456:	0e 94 37 41 	call	0x826e	; 0x826e <__fixsfsi>
    445a:	4b 01       	movw	r8, r22
		

			speed(x*acf*0.8, y*cacf*0.8 ,z*acf,wa);
    445c:	e0 90 22 02 	lds	r14, 0x0222
    4460:	f0 90 23 02 	lds	r15, 0x0223
    4464:	00 91 24 02 	lds	r16, 0x0224
    4468:	10 91 25 02 	lds	r17, 0x0225
    446c:	b3 01       	movw	r22, r6
    446e:	88 27       	eor	r24, r24
    4470:	77 fd       	sbrc	r23, 7
    4472:	80 95       	com	r24
    4474:	98 2f       	mov	r25, r24
    4476:	0e 94 6a 41 	call	0x82d4	; 0x82d4 <__floatsisf>
    447a:	a8 01       	movw	r20, r16
    447c:	97 01       	movw	r18, r14
    447e:	0e 94 2e 43 	call	0x865c	; 0x865c <__mulsf3>
    4482:	2d ec       	ldi	r18, 0xCD	; 205
    4484:	3c ec       	ldi	r19, 0xCC	; 204
    4486:	4c e4       	ldi	r20, 0x4C	; 76
    4488:	5f e3       	ldi	r21, 0x3F	; 63
    448a:	0e 94 2e 43 	call	0x865c	; 0x865c <__mulsf3>
    448e:	6f 83       	std	Y+7, r22	; 0x07
    4490:	78 87       	std	Y+8, r23	; 0x08
    4492:	89 87       	std	Y+9, r24	; 0x09
    4494:	9a 87       	std	Y+10, r25	; 0x0a
    4496:	2f 85       	ldd	r18, Y+15	; 0x0f
    4498:	38 89       	ldd	r19, Y+16	; 0x10
    449a:	b9 01       	movw	r22, r18
    449c:	88 27       	eor	r24, r24
    449e:	77 fd       	sbrc	r23, 7
    44a0:	80 95       	com	r24
    44a2:	98 2f       	mov	r25, r24
    44a4:	0e 94 6a 41 	call	0x82d4	; 0x82d4 <__floatsisf>
    44a8:	20 91 3c 02 	lds	r18, 0x023C
    44ac:	30 91 3d 02 	lds	r19, 0x023D
    44b0:	40 91 3e 02 	lds	r20, 0x023E
    44b4:	50 91 3f 02 	lds	r21, 0x023F
    44b8:	0e 94 2e 43 	call	0x865c	; 0x865c <__mulsf3>
    44bc:	2d ec       	ldi	r18, 0xCD	; 205
    44be:	3c ec       	ldi	r19, 0xCC	; 204
    44c0:	4c e4       	ldi	r20, 0x4C	; 76
    44c2:	5f e3       	ldi	r21, 0x3F	; 63
    44c4:	0e 94 2e 43 	call	0x865c	; 0x865c <__mulsf3>
    44c8:	6b 87       	std	Y+11, r22	; 0x0b
    44ca:	7c 87       	std	Y+12, r23	; 0x0c
    44cc:	8d 87       	std	Y+13, r24	; 0x0d
    44ce:	9e 87       	std	Y+14, r25	; 0x0e
    44d0:	b4 01       	movw	r22, r8
    44d2:	88 27       	eor	r24, r24
    44d4:	77 fd       	sbrc	r23, 7
    44d6:	80 95       	com	r24
    44d8:	98 2f       	mov	r25, r24
    44da:	0e 94 6a 41 	call	0x82d4	; 0x82d4 <__floatsisf>
    44de:	a8 01       	movw	r20, r16
    44e0:	97 01       	movw	r18, r14
    44e2:	0e 94 2e 43 	call	0x865c	; 0x865c <__mulsf3>
    44e6:	7b 01       	movw	r14, r22
    44e8:	8c 01       	movw	r16, r24
    44ea:	60 91 5e 02 	lds	r22, 0x025E
    44ee:	70 91 5f 02 	lds	r23, 0x025F
    44f2:	88 27       	eor	r24, r24
    44f4:	77 fd       	sbrc	r23, 7
    44f6:	80 95       	com	r24
    44f8:	98 2f       	mov	r25, r24
    44fa:	0e 94 6a 41 	call	0x82d4	; 0x82d4 <__floatsisf>
    44fe:	5b 01       	movw	r10, r22
    4500:	6c 01       	movw	r12, r24
    4502:	6f 81       	ldd	r22, Y+7	; 0x07
    4504:	78 85       	ldd	r23, Y+8	; 0x08
    4506:	89 85       	ldd	r24, Y+9	; 0x09
    4508:	9a 85       	ldd	r25, Y+10	; 0x0a
    450a:	2b 85       	ldd	r18, Y+11	; 0x0b
    450c:	3c 85       	ldd	r19, Y+12	; 0x0c
    450e:	4d 85       	ldd	r20, Y+13	; 0x0d
    4510:	5e 85       	ldd	r21, Y+14	; 0x0e
    4512:	0e 94 93 16 	call	0x2d26	; 0x2d26 <speed>
		
			if(!oc) oc = 1;
    4516:	80 91 38 02 	lds	r24, 0x0238
    451a:	90 91 39 02 	lds	r25, 0x0239
    451e:	00 97       	sbiw	r24, 0x00	; 0
    4520:	21 f4       	brne	.+8      	; 0x452a <TB+0x398>
    4522:	30 92 39 02 	sts	0x0239, r3
    4526:	20 92 38 02 	sts	0x0238, r2
			if(oc > 350 ) {LE return;}
    452a:	80 91 38 02 	lds	r24, 0x0238
    452e:	90 91 39 02 	lds	r25, 0x0239
    4532:	31 e0       	ldi	r19, 0x01	; 1
    4534:	8f 35       	cpi	r24, 0x5F	; 95
    4536:	93 07       	cpc	r25, r19
    4538:	7c f4       	brge	.+30     	; 0x4558 <TB+0x3c6>
			if(abs(x) <= 0 && abs(y) <= 1 && abs(z) <= 0) {LE return;}
    453a:	61 14       	cp	r6, r1
    453c:	71 04       	cpc	r7, r1
    453e:	09 f0       	breq	.+2      	; 0x4542 <TB+0x3b0>
    4540:	b6 ce       	rjmp	.-660    	; 0x42ae <TB+0x11c>
    4542:	8f 85       	ldd	r24, Y+15	; 0x0f
    4544:	98 89       	ldd	r25, Y+16	; 0x10
    4546:	01 96       	adiw	r24, 0x01	; 1
    4548:	83 30       	cpi	r24, 0x03	; 3
    454a:	91 05       	cpc	r25, r1
    454c:	08 f0       	brcs	.+2      	; 0x4550 <TB+0x3be>
    454e:	af ce       	rjmp	.-674    	; 0x42ae <TB+0x11c>
    4550:	81 14       	cp	r8, r1
    4552:	91 04       	cpc	r9, r1
    4554:	09 f0       	breq	.+2      	; 0x4558 <TB+0x3c6>
    4556:	ab ce       	rjmp	.-682    	; 0x42ae <TB+0x11c>
    4558:	10 92 4b 02 	sts	0x024B, r1
    455c:	10 92 4a 02 	sts	0x024A, r1
    4560:	80 e0       	ldi	r24, 0x00	; 0
    4562:	90 e0       	ldi	r25, 0x00	; 0
    4564:	dc 01       	movw	r26, r24
    4566:	80 93 93 02 	sts	0x0293, r24
    456a:	90 93 94 02 	sts	0x0294, r25
    456e:	a0 93 95 02 	sts	0x0295, r26
    4572:	b0 93 96 02 	sts	0x0296, r27
    4576:	80 91 93 02 	lds	r24, 0x0293
    457a:	90 91 94 02 	lds	r25, 0x0294
    457e:	a0 91 95 02 	lds	r26, 0x0295
    4582:	b0 91 96 02 	lds	r27, 0x0296
    4586:	80 93 1d 03 	sts	0x031D, r24
    458a:	90 93 1e 03 	sts	0x031E, r25
    458e:	a0 93 1f 03 	sts	0x031F, r26
    4592:	b0 93 20 03 	sts	0x0320, r27
    4596:	80 91 1d 03 	lds	r24, 0x031D
    459a:	90 91 1e 03 	lds	r25, 0x031E
    459e:	a0 91 1f 03 	lds	r26, 0x031F
    45a2:	b0 91 20 03 	lds	r27, 0x0320
    45a6:	80 93 87 02 	sts	0x0287, r24
    45aa:	90 93 88 02 	sts	0x0288, r25
    45ae:	a0 93 89 02 	sts	0x0289, r26
    45b2:	b0 93 8a 02 	sts	0x028A, r27
    45b6:	60 91 87 02 	lds	r22, 0x0287
    45ba:	70 91 88 02 	lds	r23, 0x0288
    45be:	80 91 89 02 	lds	r24, 0x0289
    45c2:	90 91 8a 02 	lds	r25, 0x028A
    45c6:	0e 94 37 41 	call	0x826e	; 0x826e <__fixsfsi>
    45ca:	70 93 39 02 	sts	0x0239, r23
    45ce:	60 93 38 02 	sts	0x0238, r22
		}
	}
}
    45d2:	60 96       	adiw	r28, 0x10	; 16
    45d4:	0f b6       	in	r0, 0x3f	; 63
    45d6:	f8 94       	cli
    45d8:	de bf       	out	0x3e, r29	; 62
    45da:	0f be       	out	0x3f, r0	; 63
    45dc:	cd bf       	out	0x3d, r28	; 61
    45de:	cf 91       	pop	r28
    45e0:	df 91       	pop	r29
    45e2:	1f 91       	pop	r17
    45e4:	0f 91       	pop	r16
    45e6:	ff 90       	pop	r15
    45e8:	ef 90       	pop	r14
    45ea:	df 90       	pop	r13
    45ec:	cf 90       	pop	r12
    45ee:	bf 90       	pop	r11
    45f0:	af 90       	pop	r10
    45f2:	9f 90       	pop	r9
    45f4:	8f 90       	pop	r8
    45f6:	7f 90       	pop	r7
    45f8:	6f 90       	pop	r6
    45fa:	5f 90       	pop	r5
    45fc:	3f 90       	pop	r3
    45fe:	2f 90       	pop	r2
    4600:	08 95       	ret

00004602 <Axis>:
}



void Axis(int x, int y ,int z, int sp, int ac)
{
    4602:	2f 92       	push	r2
    4604:	3f 92       	push	r3
    4606:	4f 92       	push	r4
    4608:	5f 92       	push	r5
    460a:	6f 92       	push	r6
    460c:	7f 92       	push	r7
    460e:	8f 92       	push	r8
    4610:	9f 92       	push	r9
    4612:	af 92       	push	r10
    4614:	bf 92       	push	r11
    4616:	cf 92       	push	r12
    4618:	df 92       	push	r13
    461a:	ef 92       	push	r14
    461c:	ff 92       	push	r15
    461e:	0f 93       	push	r16
    4620:	1f 93       	push	r17
    4622:	df 93       	push	r29
    4624:	cf 93       	push	r28
    4626:	cd b7       	in	r28, 0x3d	; 61
    4628:	de b7       	in	r29, 0x3e	; 62
    462a:	2c 97       	sbiw	r28, 0x0c	; 12
    462c:	0f b6       	in	r0, 0x3f	; 63
    462e:	f8 94       	cli
    4630:	de bf       	out	0x3e, r29	; 62
    4632:	0f be       	out	0x3f, r0	; 63
    4634:	cd bf       	out	0x3d, r28	; 61
    4636:	5c 01       	movw	r10, r24
    4638:	3b 01       	movw	r6, r22
    463a:	5c 83       	std	Y+4, r21	; 0x04
    463c:	4b 83       	std	Y+3, r20	; 0x03
    463e:	19 01       	movw	r2, r18
    4640:	1a 83       	std	Y+2, r17	; 0x02
    4642:	09 83       	std	Y+1, r16	; 0x01
	ginit("Axis");	
    4644:	10 92 4b 02 	sts	0x024B, r1
    4648:	10 92 4a 02 	sts	0x024A, r1
    464c:	10 92 11 02 	sts	0x0211, r1
    4650:	10 92 10 02 	sts	0x0210, r1
    4654:	80 91 10 02 	lds	r24, 0x0210
    4658:	90 91 11 02 	lds	r25, 0x0211
    465c:	90 93 5a 03 	sts	0x035A, r25
    4660:	80 93 59 03 	sts	0x0359, r24
    4664:	80 91 59 03 	lds	r24, 0x0359
    4668:	90 91 5a 03 	lds	r25, 0x035A
    466c:	90 93 39 02 	sts	0x0239, r25
    4670:	80 93 38 02 	sts	0x0238, r24
    4674:	60 e0       	ldi	r22, 0x00	; 0
    4676:	70 e0       	ldi	r23, 0x00	; 0
    4678:	80 e0       	ldi	r24, 0x00	; 0
    467a:	90 e0       	ldi	r25, 0x00	; 0
    467c:	dc 01       	movw	r26, r24
    467e:	8b 01       	movw	r16, r22
    4680:	00 0f       	add	r16, r16
    4682:	11 1f       	adc	r17, r17
    4684:	00 0f       	add	r16, r16
    4686:	11 1f       	adc	r17, r17
    4688:	98 01       	movw	r18, r16
    468a:	27 5b       	subi	r18, 0xB7	; 183
    468c:	3c 4f       	sbci	r19, 0xFC	; 252
    468e:	f9 01       	movw	r30, r18
    4690:	80 83       	st	Z, r24
    4692:	91 83       	std	Z+1, r25	; 0x01
    4694:	a2 83       	std	Z+2, r26	; 0x02
    4696:	b3 83       	std	Z+3, r27	; 0x03
    4698:	20 81       	ld	r18, Z
    469a:	31 81       	ldd	r19, Z+1	; 0x01
    469c:	42 81       	ldd	r20, Z+2	; 0x02
    469e:	53 81       	ldd	r21, Z+3	; 0x03
    46a0:	f8 01       	movw	r30, r16
    46a2:	e9 5c       	subi	r30, 0xC9	; 201
    46a4:	fc 4f       	sbci	r31, 0xFC	; 252
    46a6:	20 83       	st	Z, r18
    46a8:	31 83       	std	Z+1, r19	; 0x01
    46aa:	42 83       	std	Z+2, r20	; 0x02
    46ac:	53 83       	std	Z+3, r21	; 0x03
    46ae:	6f 5f       	subi	r22, 0xFF	; 255
    46b0:	7f 4f       	sbci	r23, 0xFF	; 255
    46b2:	64 30       	cpi	r22, 0x04	; 4
    46b4:	71 05       	cpc	r23, r1
    46b6:	19 f7       	brne	.-58     	; 0x467e <Axis+0x7c>
    46b8:	00 d0       	rcall	.+0      	; 0x46ba <Axis+0xb8>
    46ba:	00 d0       	rcall	.+0      	; 0x46bc <Axis+0xba>
    46bc:	00 d0       	rcall	.+0      	; 0x46be <Axis+0xbc>
    46be:	ed b7       	in	r30, 0x3d	; 61
    46c0:	fe b7       	in	r31, 0x3e	; 62
    46c2:	31 96       	adiw	r30, 0x01	; 1
    46c4:	01 e2       	ldi	r16, 0x21	; 33
    46c6:	13 e0       	ldi	r17, 0x03	; 3
    46c8:	ad b7       	in	r26, 0x3d	; 61
    46ca:	be b7       	in	r27, 0x3e	; 62
    46cc:	12 96       	adiw	r26, 0x02	; 2
    46ce:	1c 93       	st	X, r17
    46d0:	0e 93       	st	-X, r16
    46d2:	11 97       	sbiw	r26, 0x01	; 1
    46d4:	84 eb       	ldi	r24, 0xB4	; 180
    46d6:	91 e0       	ldi	r25, 0x01	; 1
    46d8:	93 83       	std	Z+3, r25	; 0x03
    46da:	82 83       	std	Z+2, r24	; 0x02
    46dc:	80 ec       	ldi	r24, 0xC0	; 192
    46de:	91 e0       	ldi	r25, 0x01	; 1
    46e0:	95 83       	std	Z+5, r25	; 0x05
    46e2:	84 83       	std	Z+4, r24	; 0x04
    46e4:	0e 94 20 40 	call	0x8040	; 0x8040 <sprintf>
    46e8:	ed b7       	in	r30, 0x3d	; 61
    46ea:	fe b7       	in	r31, 0x3e	; 62
    46ec:	36 96       	adiw	r30, 0x06	; 6
    46ee:	0f b6       	in	r0, 0x3f	; 63
    46f0:	f8 94       	cli
    46f2:	fe bf       	out	0x3e, r31	; 62
    46f4:	0f be       	out	0x3f, r0	; 63
    46f6:	ed bf       	out	0x3d, r30	; 61
    46f8:	80 e0       	ldi	r24, 0x00	; 0
    46fa:	67 e0       	ldi	r22, 0x07	; 7
    46fc:	a8 01       	movw	r20, r16
    46fe:	0e 94 67 01 	call	0x2ce	; 0x2ce <LCD>
	double s = gyro, e;
    4702:	80 91 7e 02 	lds	r24, 0x027E
    4706:	90 91 7f 02 	lds	r25, 0x027F
    470a:	a0 91 80 02 	lds	r26, 0x0280
    470e:	b0 91 81 02 	lds	r27, 0x0281
    4712:	8d 83       	std	Y+5, r24	; 0x05
    4714:	9e 83       	std	Y+6, r25	; 0x06
    4716:	af 83       	std	Y+7, r26	; 0x07
    4718:	b8 87       	std	Y+8, r27	; 0x08
	O(x,y,0,0);
    471a:	c5 01       	movw	r24, r10
    471c:	b3 01       	movw	r22, r6
    471e:	40 e0       	ldi	r20, 0x00	; 0
    4720:	50 e0       	ldi	r21, 0x00	; 0
    4722:	20 e0       	ldi	r18, 0x00	; 0
    4724:	30 e0       	ldi	r19, 0x00	; 0
    4726:	81 01       	movw	r16, r2
    4728:	e9 80       	ldd	r14, Y+1	; 0x01
    472a:	fa 80       	ldd	r15, Y+2	; 0x02
    472c:	0e 94 11 19 	call	0x3222	; 0x3222 <Omni>
	if(x && y)
    4730:	a1 14       	cp	r10, r1
    4732:	b1 04       	cpc	r11, r1
    4734:	71 f1       	breq	.+92     	; 0x4792 <Axis+0x190>
    4736:	61 14       	cp	r6, r1
    4738:	71 04       	cpc	r7, r1
    473a:	59 f1       	breq	.+86     	; 0x4792 <Axis+0x190>
		sp *= fabs(sp/hypot(msp[0],msp[1]));
    473c:	b1 01       	movw	r22, r2
    473e:	88 27       	eor	r24, r24
    4740:	77 fd       	sbrc	r23, 7
    4742:	80 95       	com	r24
    4744:	98 2f       	mov	r25, r24
    4746:	0e 94 6a 41 	call	0x82d4	; 0x82d4 <__floatsisf>
    474a:	7b 01       	movw	r14, r22
    474c:	8c 01       	movw	r16, r24
    474e:	60 91 37 03 	lds	r22, 0x0337
    4752:	70 91 38 03 	lds	r23, 0x0338
    4756:	80 91 39 03 	lds	r24, 0x0339
    475a:	90 91 3a 03 	lds	r25, 0x033A
    475e:	20 91 3b 03 	lds	r18, 0x033B
    4762:	30 91 3c 03 	lds	r19, 0x033C
    4766:	40 91 3d 03 	lds	r20, 0x033D
    476a:	50 91 3e 03 	lds	r21, 0x033E
    476e:	0e 94 a0 42 	call	0x8540	; 0x8540 <hypot>
    4772:	9b 01       	movw	r18, r22
    4774:	ac 01       	movw	r20, r24
    4776:	c8 01       	movw	r24, r16
    4778:	b7 01       	movw	r22, r14
    477a:	0e 94 cf 40 	call	0x819e	; 0x819e <__divsf3>
    477e:	9b 01       	movw	r18, r22
    4780:	ac 01       	movw	r20, r24
    4782:	5f 77       	andi	r21, 0x7F	; 127
    4784:	c8 01       	movw	r24, r16
    4786:	b7 01       	movw	r22, r14
    4788:	0e 94 2e 43 	call	0x865c	; 0x865c <__mulsf3>
    478c:	0e 94 37 41 	call	0x826e	; 0x826e <__fixsfsi>
    4790:	1b 01       	movw	r2, r22

	tot = O(x,y,z,0);
    4792:	c5 01       	movw	r24, r10
    4794:	b3 01       	movw	r22, r6
    4796:	4b 81       	ldd	r20, Y+3	; 0x03
    4798:	5c 81       	ldd	r21, Y+4	; 0x04
    479a:	20 e0       	ldi	r18, 0x00	; 0
    479c:	30 e0       	ldi	r19, 0x00	; 0
    479e:	81 01       	movw	r16, r2
    47a0:	e9 80       	ldd	r14, Y+1	; 0x01
    47a2:	fa 80       	ldd	r15, Y+2	; 0x02
    47a4:	0e 94 11 19 	call	0x3222	; 0x3222 <Omni>
    47a8:	90 93 5a 03 	sts	0x035A, r25
    47ac:	80 93 59 03 	sts	0x0359, r24
			OS

			if(!z)
			{				
				e = s-gyro;
				e *= (sp+10)/10;
    47b0:	c1 01       	movw	r24, r2
    47b2:	0a 96       	adiw	r24, 0x0a	; 10
    47b4:	6a e0       	ldi	r22, 0x0A	; 10
    47b6:	70 e0       	ldi	r23, 0x00	; 0
    47b8:	0e 94 cc 46 	call	0x8d98	; 0x8d98 <__divmodhi4>
    47bc:	cb 01       	movw	r24, r22
    47be:	aa 27       	eor	r26, r26
    47c0:	97 fd       	sbrc	r25, 7
    47c2:	a0 95       	com	r26
    47c4:	ba 2f       	mov	r27, r26
    47c6:	89 87       	std	Y+9, r24	; 0x09
    47c8:	9a 87       	std	Y+10, r25	; 0x0a
    47ca:	ab 87       	std	Y+11, r26	; 0x0b
    47cc:	bc 87       	std	Y+12, r27	; 0x0c
		sp *= fabs(sp/hypot(msp[0],msp[1]));

	tot = O(x,y,z,0);
	while(1)
	{
		if(!gtc)
    47ce:	80 91 10 02 	lds	r24, 0x0210
    47d2:	90 91 11 02 	lds	r25, 0x0211
    47d6:	00 97       	sbiw	r24, 0x00	; 0
    47d8:	d1 f7       	brne	.-12     	; 0x47ce <Axis+0x1cc>
		{
			gtc = 1;
    47da:	a1 e0       	ldi	r26, 0x01	; 1
    47dc:	b0 e0       	ldi	r27, 0x00	; 0
    47de:	b0 93 11 02 	sts	0x0211, r27
    47e2:	a0 93 10 02 	sts	0x0210, r26
			OS
    47e6:	80 91 59 03 	lds	r24, 0x0359
    47ea:	90 91 5a 03 	lds	r25, 0x035A
    47ee:	69 81       	ldd	r22, Y+1	; 0x01
    47f0:	7a 81       	ldd	r23, Y+2	; 0x02
    47f2:	0e 94 00 1a 	call	0x3400	; 0x3400 <OmniSet>

			if(!z)
    47f6:	eb 81       	ldd	r30, Y+3	; 0x03
    47f8:	fc 81       	ldd	r31, Y+4	; 0x04
    47fa:	30 97       	sbiw	r30, 0x00	; 0
    47fc:	09 f0       	breq	.+2      	; 0x4800 <Axis+0x1fe>
    47fe:	41 c0       	rjmp	.+130    	; 0x4882 <Axis+0x280>
			{				
				e = s-gyro;
    4800:	20 91 7e 02 	lds	r18, 0x027E
    4804:	30 91 7f 02 	lds	r19, 0x027F
    4808:	40 91 80 02 	lds	r20, 0x0280
    480c:	50 91 81 02 	lds	r21, 0x0281
    4810:	6d 81       	ldd	r22, Y+5	; 0x05
    4812:	7e 81       	ldd	r23, Y+6	; 0x06
    4814:	8f 81       	ldd	r24, Y+7	; 0x07
    4816:	98 85       	ldd	r25, Y+8	; 0x08
    4818:	0e 94 50 40 	call	0x80a0	; 0x80a0 <__subsf3>
    481c:	66 2e       	mov	r6, r22
    481e:	a7 2e       	mov	r10, r23
    4820:	e8 2e       	mov	r14, r24
    4822:	09 2f       	mov	r16, r25
				e *= (sp+10)/10;
    4824:	69 85       	ldd	r22, Y+9	; 0x09
    4826:	7a 85       	ldd	r23, Y+10	; 0x0a
    4828:	8b 85       	ldd	r24, Y+11	; 0x0b
    482a:	9c 85       	ldd	r25, Y+12	; 0x0c
    482c:	0e 94 6a 41 	call	0x82d4	; 0x82d4 <__floatsisf>
    4830:	9b 01       	movw	r18, r22
    4832:	ac 01       	movw	r20, r24
    4834:	66 2d       	mov	r22, r6
    4836:	7a 2d       	mov	r23, r10
    4838:	8e 2d       	mov	r24, r14
    483a:	90 2f       	mov	r25, r16
    483c:	0e 94 2e 43 	call	0x865c	; 0x865c <__mulsf3>
    4840:	e6 2e       	mov	r14, r22
    4842:	f7 2e       	mov	r15, r23
    4844:	08 2f       	mov	r16, r24
    4846:	19 2f       	mov	r17, r25
				if(fabs(e) > 30) e= 0;
    4848:	c8 01       	movw	r24, r16
    484a:	b7 01       	movw	r22, r14
    484c:	9f 77       	andi	r25, 0x7F	; 127
    484e:	20 e0       	ldi	r18, 0x00	; 0
    4850:	30 e0       	ldi	r19, 0x00	; 0
    4852:	40 ef       	ldi	r20, 0xF0	; 240
    4854:	51 e4       	ldi	r21, 0x41	; 65
    4856:	0e 94 93 42 	call	0x8526	; 0x8526 <__gesf2>
    485a:	18 16       	cp	r1, r24
    485c:	54 f4       	brge	.+20     	; 0x4872 <Axis+0x270>
    485e:	0f 2e       	mov	r0, r31
    4860:	f0 e0       	ldi	r31, 0x00	; 0
    4862:	ef 2e       	mov	r14, r31
    4864:	f0 e0       	ldi	r31, 0x00	; 0
    4866:	ff 2e       	mov	r15, r31
    4868:	f0 e0       	ldi	r31, 0x00	; 0
    486a:	0f 2f       	mov	r16, r31
    486c:	f0 e0       	ldi	r31, 0x00	; 0
    486e:	1f 2f       	mov	r17, r31
    4870:	f0 2d       	mov	r31, r0
				gsp[2] = e;
    4872:	e0 92 51 03 	sts	0x0351, r14
    4876:	f0 92 52 03 	sts	0x0352, r15
    487a:	00 93 53 03 	sts	0x0353, r16
    487e:	10 93 54 03 	sts	0x0354, r17
			}

			if(!oc) oc = 1;
    4882:	80 91 38 02 	lds	r24, 0x0238
    4886:	90 91 39 02 	lds	r25, 0x0239
    488a:	00 97       	sbiw	r24, 0x00	; 0
    488c:	31 f4       	brne	.+12     	; 0x489a <Axis+0x298>
    488e:	81 e0       	ldi	r24, 0x01	; 1
    4890:	90 e0       	ldi	r25, 0x00	; 0
    4892:	90 93 39 02 	sts	0x0239, r25
    4896:	80 93 38 02 	sts	0x0238, r24
			if(oc > tot) {LE return;}			
    489a:	80 91 59 03 	lds	r24, 0x0359
    489e:	90 91 5a 03 	lds	r25, 0x035A
    48a2:	20 91 38 02 	lds	r18, 0x0238
    48a6:	30 91 39 02 	lds	r19, 0x0239
    48aa:	82 17       	cp	r24, r18
    48ac:	93 07       	cpc	r25, r19
    48ae:	0c f0       	brlt	.+2      	; 0x48b2 <Axis+0x2b0>
    48b0:	56 c0       	rjmp	.+172    	; 0x495e <Axis+0x35c>
    48b2:	10 92 4b 02 	sts	0x024B, r1
    48b6:	10 92 4a 02 	sts	0x024A, r1
    48ba:	80 e0       	ldi	r24, 0x00	; 0
    48bc:	90 e0       	ldi	r25, 0x00	; 0
    48be:	dc 01       	movw	r26, r24
    48c0:	80 93 93 02 	sts	0x0293, r24
    48c4:	90 93 94 02 	sts	0x0294, r25
    48c8:	a0 93 95 02 	sts	0x0295, r26
    48cc:	b0 93 96 02 	sts	0x0296, r27
    48d0:	80 91 93 02 	lds	r24, 0x0293
    48d4:	90 91 94 02 	lds	r25, 0x0294
    48d8:	a0 91 95 02 	lds	r26, 0x0295
    48dc:	b0 91 96 02 	lds	r27, 0x0296
    48e0:	80 93 1d 03 	sts	0x031D, r24
    48e4:	90 93 1e 03 	sts	0x031E, r25
    48e8:	a0 93 1f 03 	sts	0x031F, r26
    48ec:	b0 93 20 03 	sts	0x0320, r27
    48f0:	80 91 1d 03 	lds	r24, 0x031D
    48f4:	90 91 1e 03 	lds	r25, 0x031E
    48f8:	a0 91 1f 03 	lds	r26, 0x031F
    48fc:	b0 91 20 03 	lds	r27, 0x0320
    4900:	80 93 87 02 	sts	0x0287, r24
    4904:	90 93 88 02 	sts	0x0288, r25
    4908:	a0 93 89 02 	sts	0x0289, r26
    490c:	b0 93 8a 02 	sts	0x028A, r27
    4910:	60 91 87 02 	lds	r22, 0x0287
    4914:	70 91 88 02 	lds	r23, 0x0288
    4918:	80 91 89 02 	lds	r24, 0x0289
    491c:	90 91 8a 02 	lds	r25, 0x028A
    4920:	0e 94 37 41 	call	0x826e	; 0x826e <__fixsfsi>
    4924:	70 93 39 02 	sts	0x0239, r23
    4928:	60 93 38 02 	sts	0x0238, r22
			speed(gsp[0],gsp[1],gsp[2],wa);
		}
	}
}
    492c:	2c 96       	adiw	r28, 0x0c	; 12
    492e:	0f b6       	in	r0, 0x3f	; 63
    4930:	f8 94       	cli
    4932:	de bf       	out	0x3e, r29	; 62
    4934:	0f be       	out	0x3f, r0	; 63
    4936:	cd bf       	out	0x3d, r28	; 61
    4938:	cf 91       	pop	r28
    493a:	df 91       	pop	r29
    493c:	1f 91       	pop	r17
    493e:	0f 91       	pop	r16
    4940:	ff 90       	pop	r15
    4942:	ef 90       	pop	r14
    4944:	df 90       	pop	r13
    4946:	cf 90       	pop	r12
    4948:	bf 90       	pop	r11
    494a:	af 90       	pop	r10
    494c:	9f 90       	pop	r9
    494e:	8f 90       	pop	r8
    4950:	7f 90       	pop	r7
    4952:	6f 90       	pop	r6
    4954:	5f 90       	pop	r5
    4956:	4f 90       	pop	r4
    4958:	3f 90       	pop	r3
    495a:	2f 90       	pop	r2
    495c:	08 95       	ret
				gsp[2] = e;
			}

			if(!oc) oc = 1;
			if(oc > tot) {LE return;}			
			speed(gsp[0],gsp[1],gsp[2],wa);
    495e:	60 90 49 03 	lds	r6, 0x0349
    4962:	70 90 4a 03 	lds	r7, 0x034A
    4966:	80 90 4b 03 	lds	r8, 0x034B
    496a:	90 90 4c 03 	lds	r9, 0x034C
    496e:	20 90 4d 03 	lds	r2, 0x034D
    4972:	30 90 4e 03 	lds	r3, 0x034E
    4976:	40 90 4f 03 	lds	r4, 0x034F
    497a:	50 90 50 03 	lds	r5, 0x0350
    497e:	e0 90 51 03 	lds	r14, 0x0351
    4982:	f0 90 52 03 	lds	r15, 0x0352
    4986:	00 91 53 03 	lds	r16, 0x0353
    498a:	10 91 54 03 	lds	r17, 0x0354
    498e:	60 91 5e 02 	lds	r22, 0x025E
    4992:	70 91 5f 02 	lds	r23, 0x025F
    4996:	88 27       	eor	r24, r24
    4998:	77 fd       	sbrc	r23, 7
    499a:	80 95       	com	r24
    499c:	98 2f       	mov	r25, r24
    499e:	0e 94 6a 41 	call	0x82d4	; 0x82d4 <__floatsisf>
    49a2:	5b 01       	movw	r10, r22
    49a4:	6c 01       	movw	r12, r24
    49a6:	c4 01       	movw	r24, r8
    49a8:	b3 01       	movw	r22, r6
    49aa:	a2 01       	movw	r20, r4
    49ac:	91 01       	movw	r18, r2
    49ae:	0e 94 93 16 	call	0x2d26	; 0x2d26 <speed>
    49b2:	0d cf       	rjmp	.-486    	; 0x47ce <Axis+0x1cc>

000049b4 <MovePsd>:
		}
	}
}

void MovePsd(int check, int ps, int x, int y ,int z, int pc,int sp, int ac)
{
    49b4:	2f 92       	push	r2
    49b6:	3f 92       	push	r3
    49b8:	4f 92       	push	r4
    49ba:	5f 92       	push	r5
    49bc:	6f 92       	push	r6
    49be:	7f 92       	push	r7
    49c0:	8f 92       	push	r8
    49c2:	9f 92       	push	r9
    49c4:	af 92       	push	r10
    49c6:	bf 92       	push	r11
    49c8:	cf 92       	push	r12
    49ca:	df 92       	push	r13
    49cc:	ef 92       	push	r14
    49ce:	ff 92       	push	r15
    49d0:	0f 93       	push	r16
    49d2:	1f 93       	push	r17
    49d4:	df 93       	push	r29
    49d6:	cf 93       	push	r28
    49d8:	cd b7       	in	r28, 0x3d	; 61
    49da:	de b7       	in	r29, 0x3e	; 62
    49dc:	62 97       	sbiw	r28, 0x12	; 18
    49de:	0f b6       	in	r0, 0x3f	; 63
    49e0:	f8 94       	cli
    49e2:	de bf       	out	0x3e, r29	; 62
    49e4:	0f be       	out	0x3f, r0	; 63
    49e6:	cd bf       	out	0x3d, r28	; 61
    49e8:	9a 87       	std	Y+10, r25	; 0x0a
    49ea:	89 87       	std	Y+9, r24	; 0x09
    49ec:	7c 87       	std	Y+12, r23	; 0x0c
    49ee:	6b 87       	std	Y+11, r22	; 0x0b
    49f0:	3a 01       	movw	r6, r20
    49f2:	19 01       	movw	r2, r18
    49f4:	1c 83       	std	Y+4, r17	; 0x04
    49f6:	0b 83       	std	Y+3, r16	; 0x03
    49f8:	fe 86       	std	Y+14, r15	; 0x0e
    49fa:	ed 86       	std	Y+13, r14	; 0x0d
    49fc:	ba 82       	std	Y+2, r11	; 0x02
    49fe:	a9 82       	std	Y+1, r10	; 0x01
	ginit("MovPsd");	
    4a00:	10 92 4b 02 	sts	0x024B, r1
    4a04:	10 92 4a 02 	sts	0x024A, r1
    4a08:	10 92 11 02 	sts	0x0211, r1
    4a0c:	10 92 10 02 	sts	0x0210, r1
    4a10:	80 91 10 02 	lds	r24, 0x0210
    4a14:	90 91 11 02 	lds	r25, 0x0211
    4a18:	90 93 5a 03 	sts	0x035A, r25
    4a1c:	80 93 59 03 	sts	0x0359, r24
    4a20:	80 91 59 03 	lds	r24, 0x0359
    4a24:	90 91 5a 03 	lds	r25, 0x035A
    4a28:	90 93 39 02 	sts	0x0239, r25
    4a2c:	80 93 38 02 	sts	0x0238, r24
    4a30:	60 e0       	ldi	r22, 0x00	; 0
    4a32:	70 e0       	ldi	r23, 0x00	; 0
    4a34:	80 e0       	ldi	r24, 0x00	; 0
    4a36:	90 e0       	ldi	r25, 0x00	; 0
    4a38:	dc 01       	movw	r26, r24
    4a3a:	9b 01       	movw	r18, r22
    4a3c:	22 0f       	add	r18, r18
    4a3e:	33 1f       	adc	r19, r19
    4a40:	22 0f       	add	r18, r18
    4a42:	33 1f       	adc	r19, r19
    4a44:	f9 01       	movw	r30, r18
    4a46:	e7 5b       	subi	r30, 0xB7	; 183
    4a48:	fc 4f       	sbci	r31, 0xFC	; 252
    4a4a:	80 83       	st	Z, r24
    4a4c:	91 83       	std	Z+1, r25	; 0x01
    4a4e:	a2 83       	std	Z+2, r26	; 0x02
    4a50:	b3 83       	std	Z+3, r27	; 0x03
    4a52:	e0 80       	ld	r14, Z
    4a54:	f1 80       	ldd	r15, Z+1	; 0x01
    4a56:	02 81       	ldd	r16, Z+2	; 0x02
    4a58:	13 81       	ldd	r17, Z+3	; 0x03
    4a5a:	29 5c       	subi	r18, 0xC9	; 201
    4a5c:	3c 4f       	sbci	r19, 0xFC	; 252
    4a5e:	f9 01       	movw	r30, r18
    4a60:	e0 82       	st	Z, r14
    4a62:	f1 82       	std	Z+1, r15	; 0x01
    4a64:	02 83       	std	Z+2, r16	; 0x02
    4a66:	13 83       	std	Z+3, r17	; 0x03
    4a68:	6f 5f       	subi	r22, 0xFF	; 255
    4a6a:	7f 4f       	sbci	r23, 0xFF	; 255
    4a6c:	64 30       	cpi	r22, 0x04	; 4
    4a6e:	71 05       	cpc	r23, r1
    4a70:	21 f7       	brne	.-56     	; 0x4a3a <MovePsd+0x86>
    4a72:	00 d0       	rcall	.+0      	; 0x4a74 <MovePsd+0xc0>
    4a74:	00 d0       	rcall	.+0      	; 0x4a76 <MovePsd+0xc2>
    4a76:	00 d0       	rcall	.+0      	; 0x4a78 <MovePsd+0xc4>
    4a78:	ed b7       	in	r30, 0x3d	; 61
    4a7a:	fe b7       	in	r31, 0x3e	; 62
    4a7c:	31 96       	adiw	r30, 0x01	; 1
    4a7e:	01 e2       	ldi	r16, 0x21	; 33
    4a80:	13 e0       	ldi	r17, 0x03	; 3
    4a82:	ad b7       	in	r26, 0x3d	; 61
    4a84:	be b7       	in	r27, 0x3e	; 62
    4a86:	12 96       	adiw	r26, 0x02	; 2
    4a88:	1c 93       	st	X, r17
    4a8a:	0e 93       	st	-X, r16
    4a8c:	11 97       	sbiw	r26, 0x01	; 1
    4a8e:	84 eb       	ldi	r24, 0xB4	; 180
    4a90:	91 e0       	ldi	r25, 0x01	; 1
    4a92:	93 83       	std	Z+3, r25	; 0x03
    4a94:	82 83       	std	Z+2, r24	; 0x02
    4a96:	85 ec       	ldi	r24, 0xC5	; 197
    4a98:	91 e0       	ldi	r25, 0x01	; 1
    4a9a:	95 83       	std	Z+5, r25	; 0x05
    4a9c:	84 83       	std	Z+4, r24	; 0x04
    4a9e:	0e 94 20 40 	call	0x8040	; 0x8040 <sprintf>
    4aa2:	ed b7       	in	r30, 0x3d	; 61
    4aa4:	fe b7       	in	r31, 0x3e	; 62
    4aa6:	36 96       	adiw	r30, 0x06	; 6
    4aa8:	0f b6       	in	r0, 0x3f	; 63
    4aaa:	f8 94       	cli
    4aac:	fe bf       	out	0x3e, r31	; 62
    4aae:	0f be       	out	0x3f, r0	; 63
    4ab0:	ed bf       	out	0x3d, r30	; 61
    4ab2:	80 e0       	ldi	r24, 0x00	; 0
    4ab4:	67 e0       	ldi	r22, 0x07	; 7
    4ab6:	a8 01       	movw	r20, r16
    4ab8:	0e 94 67 01 	call	0x2ce	; 0x2ce <LCD>
	double s = gyro, e;
    4abc:	80 91 7e 02 	lds	r24, 0x027E
    4ac0:	90 91 7f 02 	lds	r25, 0x027F
    4ac4:	a0 91 80 02 	lds	r26, 0x0280
    4ac8:	b0 91 81 02 	lds	r27, 0x0281
    4acc:	8d 83       	std	Y+5, r24	; 0x05
    4ace:	9e 83       	std	Y+6, r25	; 0x06
    4ad0:	af 83       	std	Y+7, r26	; 0x07
    4ad2:	b8 87       	std	Y+8, r27	; 0x08
	O(x,y,0,0);
    4ad4:	c3 01       	movw	r24, r6
    4ad6:	b1 01       	movw	r22, r2
    4ad8:	40 e0       	ldi	r20, 0x00	; 0
    4ada:	50 e0       	ldi	r21, 0x00	; 0
    4adc:	20 e0       	ldi	r18, 0x00	; 0
    4ade:	30 e0       	ldi	r19, 0x00	; 0
    4ae0:	86 01       	movw	r16, r12
    4ae2:	e9 80       	ldd	r14, Y+1	; 0x01
    4ae4:	fa 80       	ldd	r15, Y+2	; 0x02
    4ae6:	0e 94 11 19 	call	0x3222	; 0x3222 <Omni>
	if(x && y)
    4aea:	61 14       	cp	r6, r1
    4aec:	71 04       	cpc	r7, r1
    4aee:	71 f1       	breq	.+92     	; 0x4b4c <MovePsd+0x198>
    4af0:	21 14       	cp	r2, r1
    4af2:	31 04       	cpc	r3, r1
    4af4:	59 f1       	breq	.+86     	; 0x4b4c <MovePsd+0x198>
		sp *= fabs(sp/hypot(msp[0],msp[1]));
    4af6:	b6 01       	movw	r22, r12
    4af8:	88 27       	eor	r24, r24
    4afa:	77 fd       	sbrc	r23, 7
    4afc:	80 95       	com	r24
    4afe:	98 2f       	mov	r25, r24
    4b00:	0e 94 6a 41 	call	0x82d4	; 0x82d4 <__floatsisf>
    4b04:	7b 01       	movw	r14, r22
    4b06:	8c 01       	movw	r16, r24
    4b08:	60 91 37 03 	lds	r22, 0x0337
    4b0c:	70 91 38 03 	lds	r23, 0x0338
    4b10:	80 91 39 03 	lds	r24, 0x0339
    4b14:	90 91 3a 03 	lds	r25, 0x033A
    4b18:	20 91 3b 03 	lds	r18, 0x033B
    4b1c:	30 91 3c 03 	lds	r19, 0x033C
    4b20:	40 91 3d 03 	lds	r20, 0x033D
    4b24:	50 91 3e 03 	lds	r21, 0x033E
    4b28:	0e 94 a0 42 	call	0x8540	; 0x8540 <hypot>
    4b2c:	9b 01       	movw	r18, r22
    4b2e:	ac 01       	movw	r20, r24
    4b30:	c8 01       	movw	r24, r16
    4b32:	b7 01       	movw	r22, r14
    4b34:	0e 94 cf 40 	call	0x819e	; 0x819e <__divsf3>
    4b38:	9b 01       	movw	r18, r22
    4b3a:	ac 01       	movw	r20, r24
    4b3c:	5f 77       	andi	r21, 0x7F	; 127
    4b3e:	c8 01       	movw	r24, r16
    4b40:	b7 01       	movw	r22, r14
    4b42:	0e 94 2e 43 	call	0x865c	; 0x865c <__mulsf3>
    4b46:	0e 94 37 41 	call	0x826e	; 0x826e <__fixsfsi>
    4b4a:	6b 01       	movw	r12, r22
	tot = O(x,y,z,0);
    4b4c:	c3 01       	movw	r24, r6
    4b4e:	b1 01       	movw	r22, r2
    4b50:	4b 81       	ldd	r20, Y+3	; 0x03
    4b52:	5c 81       	ldd	r21, Y+4	; 0x04
    4b54:	20 e0       	ldi	r18, 0x00	; 0
    4b56:	30 e0       	ldi	r19, 0x00	; 0
    4b58:	86 01       	movw	r16, r12
    4b5a:	e9 80       	ldd	r14, Y+1	; 0x01
    4b5c:	fa 80       	ldd	r15, Y+2	; 0x02
    4b5e:	0e 94 11 19 	call	0x3222	; 0x3222 <Omni>
    4b62:	90 93 5a 03 	sts	0x035A, r25
    4b66:	80 93 59 03 	sts	0x0359, r24
			OS

			if(!z)
			{				
				e = s-gyro;
				e *= (sp+10)/10;
    4b6a:	c6 01       	movw	r24, r12
    4b6c:	0a 96       	adiw	r24, 0x0a	; 10
    4b6e:	6a e0       	ldi	r22, 0x0A	; 10
    4b70:	70 e0       	ldi	r23, 0x00	; 0
    4b72:	0e 94 cc 46 	call	0x8d98	; 0x8d98 <__divmodhi4>
    4b76:	cb 01       	movw	r24, r22
    4b78:	aa 27       	eor	r26, r26
    4b7a:	97 fd       	sbrc	r25, 7
    4b7c:	a0 95       	com	r26
    4b7e:	ba 2f       	mov	r27, r26
    4b80:	8f 87       	std	Y+15, r24	; 0x0f
    4b82:	98 8b       	std	Y+16, r25	; 0x10
    4b84:	a9 8b       	std	Y+17, r26	; 0x11
    4b86:	ba 8b       	std	Y+18, r27	; 0x12
	if(x && y)
		sp *= fabs(sp/hypot(msp[0],msp[1]));
	tot = O(x,y,z,0);
	while(1)
	{
		if(!gtc)
    4b88:	80 91 10 02 	lds	r24, 0x0210
    4b8c:	90 91 11 02 	lds	r25, 0x0211
    4b90:	00 97       	sbiw	r24, 0x00	; 0
    4b92:	d1 f7       	brne	.-12     	; 0x4b88 <MovePsd+0x1d4>
		{
			gtc = 1;
    4b94:	a1 e0       	ldi	r26, 0x01	; 1
    4b96:	b0 e0       	ldi	r27, 0x00	; 0
    4b98:	b0 93 11 02 	sts	0x0211, r27
    4b9c:	a0 93 10 02 	sts	0x0210, r26
			OS
    4ba0:	80 91 59 03 	lds	r24, 0x0359
    4ba4:	90 91 5a 03 	lds	r25, 0x035A
    4ba8:	69 81       	ldd	r22, Y+1	; 0x01
    4baa:	7a 81       	ldd	r23, Y+2	; 0x02
    4bac:	0e 94 00 1a 	call	0x3400	; 0x3400 <OmniSet>

			if(!z)
    4bb0:	eb 81       	ldd	r30, Y+3	; 0x03
    4bb2:	fc 81       	ldd	r31, Y+4	; 0x04
    4bb4:	30 97       	sbiw	r30, 0x00	; 0
    4bb6:	09 f0       	breq	.+2      	; 0x4bba <MovePsd+0x206>
    4bb8:	41 c0       	rjmp	.+130    	; 0x4c3c <MovePsd+0x288>
			{				
				e = s-gyro;
    4bba:	20 91 7e 02 	lds	r18, 0x027E
    4bbe:	30 91 7f 02 	lds	r19, 0x027F
    4bc2:	40 91 80 02 	lds	r20, 0x0280
    4bc6:	50 91 81 02 	lds	r21, 0x0281
    4bca:	6d 81       	ldd	r22, Y+5	; 0x05
    4bcc:	7e 81       	ldd	r23, Y+6	; 0x06
    4bce:	8f 81       	ldd	r24, Y+7	; 0x07
    4bd0:	98 85       	ldd	r25, Y+8	; 0x08
    4bd2:	0e 94 50 40 	call	0x80a0	; 0x80a0 <__subsf3>
    4bd6:	66 2e       	mov	r6, r22
    4bd8:	a7 2e       	mov	r10, r23
    4bda:	e8 2e       	mov	r14, r24
    4bdc:	09 2f       	mov	r16, r25
				e *= (sp+10)/10;
    4bde:	6f 85       	ldd	r22, Y+15	; 0x0f
    4be0:	78 89       	ldd	r23, Y+16	; 0x10
    4be2:	89 89       	ldd	r24, Y+17	; 0x11
    4be4:	9a 89       	ldd	r25, Y+18	; 0x12
    4be6:	0e 94 6a 41 	call	0x82d4	; 0x82d4 <__floatsisf>
    4bea:	9b 01       	movw	r18, r22
    4bec:	ac 01       	movw	r20, r24
    4bee:	66 2d       	mov	r22, r6
    4bf0:	7a 2d       	mov	r23, r10
    4bf2:	8e 2d       	mov	r24, r14
    4bf4:	90 2f       	mov	r25, r16
    4bf6:	0e 94 2e 43 	call	0x865c	; 0x865c <__mulsf3>
    4bfa:	e6 2e       	mov	r14, r22
    4bfc:	f7 2e       	mov	r15, r23
    4bfe:	08 2f       	mov	r16, r24
    4c00:	19 2f       	mov	r17, r25
				if(fabs(e) > 30) e= 0;
    4c02:	c8 01       	movw	r24, r16
    4c04:	b7 01       	movw	r22, r14
    4c06:	9f 77       	andi	r25, 0x7F	; 127
    4c08:	20 e0       	ldi	r18, 0x00	; 0
    4c0a:	30 e0       	ldi	r19, 0x00	; 0
    4c0c:	40 ef       	ldi	r20, 0xF0	; 240
    4c0e:	51 e4       	ldi	r21, 0x41	; 65
    4c10:	0e 94 93 42 	call	0x8526	; 0x8526 <__gesf2>
    4c14:	18 16       	cp	r1, r24
    4c16:	54 f4       	brge	.+20     	; 0x4c2c <MovePsd+0x278>
    4c18:	0f 2e       	mov	r0, r31
    4c1a:	f0 e0       	ldi	r31, 0x00	; 0
    4c1c:	ef 2e       	mov	r14, r31
    4c1e:	f0 e0       	ldi	r31, 0x00	; 0
    4c20:	ff 2e       	mov	r15, r31
    4c22:	f0 e0       	ldi	r31, 0x00	; 0
    4c24:	0f 2f       	mov	r16, r31
    4c26:	f0 e0       	ldi	r31, 0x00	; 0
    4c28:	1f 2f       	mov	r17, r31
    4c2a:	f0 2d       	mov	r31, r0
				gsp[2] = e;
    4c2c:	e0 92 51 03 	sts	0x0351, r14
    4c30:	f0 92 52 03 	sts	0x0352, r15
    4c34:	00 93 53 03 	sts	0x0353, r16
    4c38:	10 93 54 03 	sts	0x0354, r17
			}

			if(!oc) oc = 1;
    4c3c:	80 91 38 02 	lds	r24, 0x0238
    4c40:	90 91 39 02 	lds	r25, 0x0239
    4c44:	00 97       	sbiw	r24, 0x00	; 0
    4c46:	31 f4       	brne	.+12     	; 0x4c54 <MovePsd+0x2a0>
    4c48:	81 e0       	ldi	r24, 0x01	; 1
    4c4a:	90 e0       	ldi	r25, 0x00	; 0
    4c4c:	90 93 39 02 	sts	0x0239, r25
    4c50:	80 93 38 02 	sts	0x0238, r24
			if(oc > tot) {LE return;}				
    4c54:	80 91 59 03 	lds	r24, 0x0359
    4c58:	90 91 5a 03 	lds	r25, 0x035A
    4c5c:	20 91 38 02 	lds	r18, 0x0238
    4c60:	30 91 39 02 	lds	r19, 0x0239
    4c64:	82 17       	cp	r24, r18
    4c66:	93 07       	cpc	r25, r19
    4c68:	74 f0       	brlt	.+28     	; 0x4c86 <MovePsd+0x2d2>

			if(check == 0 && SensorIn(ps, pc)) {LE return;} 
    4c6a:	a9 85       	ldd	r26, Y+9	; 0x09
    4c6c:	ba 85       	ldd	r27, Y+10	; 0x0a
    4c6e:	10 97       	sbiw	r26, 0x00	; 0
    4c70:	09 f0       	breq	.+2      	; 0x4c74 <MovePsd+0x2c0>
    4c72:	5f c0       	rjmp	.+190    	; 0x4d32 <MovePsd+0x37e>
    4c74:	8b 85       	ldd	r24, Y+11	; 0x0b
    4c76:	9c 85       	ldd	r25, Y+12	; 0x0c
    4c78:	6d 85       	ldd	r22, Y+13	; 0x0d
    4c7a:	7e 85       	ldd	r23, Y+14	; 0x0e
    4c7c:	0e 94 c2 1d 	call	0x3b84	; 0x3b84 <SensorIn>
    4c80:	00 97       	sbiw	r24, 0x00	; 0
    4c82:	09 f4       	brne	.+2      	; 0x4c86 <MovePsd+0x2d2>
    4c84:	56 c0       	rjmp	.+172    	; 0x4d32 <MovePsd+0x37e>
    4c86:	10 92 4b 02 	sts	0x024B, r1
    4c8a:	10 92 4a 02 	sts	0x024A, r1
    4c8e:	80 e0       	ldi	r24, 0x00	; 0
    4c90:	90 e0       	ldi	r25, 0x00	; 0
    4c92:	dc 01       	movw	r26, r24
    4c94:	80 93 93 02 	sts	0x0293, r24
    4c98:	90 93 94 02 	sts	0x0294, r25
    4c9c:	a0 93 95 02 	sts	0x0295, r26
    4ca0:	b0 93 96 02 	sts	0x0296, r27
    4ca4:	80 91 93 02 	lds	r24, 0x0293
    4ca8:	90 91 94 02 	lds	r25, 0x0294
    4cac:	a0 91 95 02 	lds	r26, 0x0295
    4cb0:	b0 91 96 02 	lds	r27, 0x0296
    4cb4:	80 93 1d 03 	sts	0x031D, r24
    4cb8:	90 93 1e 03 	sts	0x031E, r25
    4cbc:	a0 93 1f 03 	sts	0x031F, r26
    4cc0:	b0 93 20 03 	sts	0x0320, r27
    4cc4:	80 91 1d 03 	lds	r24, 0x031D
    4cc8:	90 91 1e 03 	lds	r25, 0x031E
    4ccc:	a0 91 1f 03 	lds	r26, 0x031F
    4cd0:	b0 91 20 03 	lds	r27, 0x0320
    4cd4:	80 93 87 02 	sts	0x0287, r24
    4cd8:	90 93 88 02 	sts	0x0288, r25
    4cdc:	a0 93 89 02 	sts	0x0289, r26
    4ce0:	b0 93 8a 02 	sts	0x028A, r27
    4ce4:	60 91 87 02 	lds	r22, 0x0287
    4ce8:	70 91 88 02 	lds	r23, 0x0288
    4cec:	80 91 89 02 	lds	r24, 0x0289
    4cf0:	90 91 8a 02 	lds	r25, 0x028A
    4cf4:	0e 94 37 41 	call	0x826e	; 0x826e <__fixsfsi>
    4cf8:	70 93 39 02 	sts	0x0239, r23
    4cfc:	60 93 38 02 	sts	0x0238, r22
			speed(gsp[0],gsp[1],gsp[2],wa);
		}
	}
}
    4d00:	62 96       	adiw	r28, 0x12	; 18
    4d02:	0f b6       	in	r0, 0x3f	; 63
    4d04:	f8 94       	cli
    4d06:	de bf       	out	0x3e, r29	; 62
    4d08:	0f be       	out	0x3f, r0	; 63
    4d0a:	cd bf       	out	0x3d, r28	; 61
    4d0c:	cf 91       	pop	r28
    4d0e:	df 91       	pop	r29
    4d10:	1f 91       	pop	r17
    4d12:	0f 91       	pop	r16
    4d14:	ff 90       	pop	r15
    4d16:	ef 90       	pop	r14
    4d18:	df 90       	pop	r13
    4d1a:	cf 90       	pop	r12
    4d1c:	bf 90       	pop	r11
    4d1e:	af 90       	pop	r10
    4d20:	9f 90       	pop	r9
    4d22:	8f 90       	pop	r8
    4d24:	7f 90       	pop	r7
    4d26:	6f 90       	pop	r6
    4d28:	5f 90       	pop	r5
    4d2a:	4f 90       	pop	r4
    4d2c:	3f 90       	pop	r3
    4d2e:	2f 90       	pop	r2
    4d30:	08 95       	ret

			if(!oc) oc = 1;
			if(oc > tot) {LE return;}				

			if(check == 0 && SensorIn(ps, pc)) {LE return;} 
			speed(gsp[0],gsp[1],gsp[2],wa);
    4d32:	60 90 49 03 	lds	r6, 0x0349
    4d36:	70 90 4a 03 	lds	r7, 0x034A
    4d3a:	80 90 4b 03 	lds	r8, 0x034B
    4d3e:	90 90 4c 03 	lds	r9, 0x034C
    4d42:	20 90 4d 03 	lds	r2, 0x034D
    4d46:	30 90 4e 03 	lds	r3, 0x034E
    4d4a:	40 90 4f 03 	lds	r4, 0x034F
    4d4e:	50 90 50 03 	lds	r5, 0x0350
    4d52:	e0 90 51 03 	lds	r14, 0x0351
    4d56:	f0 90 52 03 	lds	r15, 0x0352
    4d5a:	00 91 53 03 	lds	r16, 0x0353
    4d5e:	10 91 54 03 	lds	r17, 0x0354
    4d62:	60 91 5e 02 	lds	r22, 0x025E
    4d66:	70 91 5f 02 	lds	r23, 0x025F
    4d6a:	88 27       	eor	r24, r24
    4d6c:	77 fd       	sbrc	r23, 7
    4d6e:	80 95       	com	r24
    4d70:	98 2f       	mov	r25, r24
    4d72:	0e 94 6a 41 	call	0x82d4	; 0x82d4 <__floatsisf>
    4d76:	5b 01       	movw	r10, r22
    4d78:	6c 01       	movw	r12, r24
    4d7a:	c4 01       	movw	r24, r8
    4d7c:	b3 01       	movw	r22, r6
    4d7e:	a2 01       	movw	r20, r4
    4d80:	91 01       	movw	r18, r2
    4d82:	0e 94 93 16 	call	0x2d26	; 0x2d26 <speed>
    4d86:	00 cf       	rjmp	.-512    	; 0x4b88 <MovePsd+0x1d4>

00004d88 <MoveLineCheck>:
		}
	}
}

int MoveLineCheck(int check, int x, int y ,int z, int sp, int ac)
{
    4d88:	2f 92       	push	r2
    4d8a:	3f 92       	push	r3
    4d8c:	4f 92       	push	r4
    4d8e:	5f 92       	push	r5
    4d90:	6f 92       	push	r6
    4d92:	7f 92       	push	r7
    4d94:	8f 92       	push	r8
    4d96:	9f 92       	push	r9
    4d98:	af 92       	push	r10
    4d9a:	bf 92       	push	r11
    4d9c:	cf 92       	push	r12
    4d9e:	df 92       	push	r13
    4da0:	ef 92       	push	r14
    4da2:	ff 92       	push	r15
    4da4:	0f 93       	push	r16
    4da6:	1f 93       	push	r17
    4da8:	df 93       	push	r29
    4daa:	cf 93       	push	r28
    4dac:	cd b7       	in	r28, 0x3d	; 61
    4dae:	de b7       	in	r29, 0x3e	; 62
    4db0:	2e 97       	sbiw	r28, 0x0e	; 14
    4db2:	0f b6       	in	r0, 0x3f	; 63
    4db4:	f8 94       	cli
    4db6:	de bf       	out	0x3e, r29	; 62
    4db8:	0f be       	out	0x3f, r0	; 63
    4dba:	cd bf       	out	0x3d, r28	; 61
    4dbc:	9a 83       	std	Y+2, r25	; 0x02
    4dbe:	89 83       	std	Y+1, r24	; 0x01
    4dc0:	5b 01       	movw	r10, r22
    4dc2:	3a 01       	movw	r6, r20
    4dc4:	3e 83       	std	Y+6, r19	; 0x06
    4dc6:	2d 83       	std	Y+5, r18	; 0x05
    4dc8:	18 01       	movw	r2, r16
    4dca:	fc 82       	std	Y+4, r15	; 0x04
    4dcc:	eb 82       	std	Y+3, r14	; 0x03
	ginit("MoveLineCheck");	
    4dce:	10 92 4b 02 	sts	0x024B, r1
    4dd2:	10 92 4a 02 	sts	0x024A, r1
    4dd6:	10 92 11 02 	sts	0x0211, r1
    4dda:	10 92 10 02 	sts	0x0210, r1
    4dde:	80 91 10 02 	lds	r24, 0x0210
    4de2:	90 91 11 02 	lds	r25, 0x0211
    4de6:	90 93 5a 03 	sts	0x035A, r25
    4dea:	80 93 59 03 	sts	0x0359, r24
    4dee:	80 91 59 03 	lds	r24, 0x0359
    4df2:	90 91 5a 03 	lds	r25, 0x035A
    4df6:	90 93 39 02 	sts	0x0239, r25
    4dfa:	80 93 38 02 	sts	0x0238, r24
    4dfe:	60 e0       	ldi	r22, 0x00	; 0
    4e00:	70 e0       	ldi	r23, 0x00	; 0
    4e02:	80 e0       	ldi	r24, 0x00	; 0
    4e04:	90 e0       	ldi	r25, 0x00	; 0
    4e06:	dc 01       	movw	r26, r24
    4e08:	9b 01       	movw	r18, r22
    4e0a:	22 0f       	add	r18, r18
    4e0c:	33 1f       	adc	r19, r19
    4e0e:	22 0f       	add	r18, r18
    4e10:	33 1f       	adc	r19, r19
    4e12:	f9 01       	movw	r30, r18
    4e14:	e7 5b       	subi	r30, 0xB7	; 183
    4e16:	fc 4f       	sbci	r31, 0xFC	; 252
    4e18:	80 83       	st	Z, r24
    4e1a:	91 83       	std	Z+1, r25	; 0x01
    4e1c:	a2 83       	std	Z+2, r26	; 0x02
    4e1e:	b3 83       	std	Z+3, r27	; 0x03
    4e20:	e0 80       	ld	r14, Z
    4e22:	f1 80       	ldd	r15, Z+1	; 0x01
    4e24:	02 81       	ldd	r16, Z+2	; 0x02
    4e26:	13 81       	ldd	r17, Z+3	; 0x03
    4e28:	29 5c       	subi	r18, 0xC9	; 201
    4e2a:	3c 4f       	sbci	r19, 0xFC	; 252
    4e2c:	f9 01       	movw	r30, r18
    4e2e:	e0 82       	st	Z, r14
    4e30:	f1 82       	std	Z+1, r15	; 0x01
    4e32:	02 83       	std	Z+2, r16	; 0x02
    4e34:	13 83       	std	Z+3, r17	; 0x03
    4e36:	6f 5f       	subi	r22, 0xFF	; 255
    4e38:	7f 4f       	sbci	r23, 0xFF	; 255
    4e3a:	64 30       	cpi	r22, 0x04	; 4
    4e3c:	71 05       	cpc	r23, r1
    4e3e:	21 f7       	brne	.-56     	; 0x4e08 <MoveLineCheck+0x80>
    4e40:	00 d0       	rcall	.+0      	; 0x4e42 <MoveLineCheck+0xba>
    4e42:	00 d0       	rcall	.+0      	; 0x4e44 <MoveLineCheck+0xbc>
    4e44:	00 d0       	rcall	.+0      	; 0x4e46 <MoveLineCheck+0xbe>
    4e46:	ed b7       	in	r30, 0x3d	; 61
    4e48:	fe b7       	in	r31, 0x3e	; 62
    4e4a:	31 96       	adiw	r30, 0x01	; 1
    4e4c:	01 e2       	ldi	r16, 0x21	; 33
    4e4e:	13 e0       	ldi	r17, 0x03	; 3
    4e50:	ad b7       	in	r26, 0x3d	; 61
    4e52:	be b7       	in	r27, 0x3e	; 62
    4e54:	12 96       	adiw	r26, 0x02	; 2
    4e56:	1c 93       	st	X, r17
    4e58:	0e 93       	st	-X, r16
    4e5a:	11 97       	sbiw	r26, 0x01	; 1
    4e5c:	84 eb       	ldi	r24, 0xB4	; 180
    4e5e:	91 e0       	ldi	r25, 0x01	; 1
    4e60:	93 83       	std	Z+3, r25	; 0x03
    4e62:	82 83       	std	Z+2, r24	; 0x02
    4e64:	8c ec       	ldi	r24, 0xCC	; 204
    4e66:	91 e0       	ldi	r25, 0x01	; 1
    4e68:	95 83       	std	Z+5, r25	; 0x05
    4e6a:	84 83       	std	Z+4, r24	; 0x04
    4e6c:	0e 94 20 40 	call	0x8040	; 0x8040 <sprintf>
    4e70:	ed b7       	in	r30, 0x3d	; 61
    4e72:	fe b7       	in	r31, 0x3e	; 62
    4e74:	36 96       	adiw	r30, 0x06	; 6
    4e76:	0f b6       	in	r0, 0x3f	; 63
    4e78:	f8 94       	cli
    4e7a:	fe bf       	out	0x3e, r31	; 62
    4e7c:	0f be       	out	0x3f, r0	; 63
    4e7e:	ed bf       	out	0x3d, r30	; 61
    4e80:	80 e0       	ldi	r24, 0x00	; 0
    4e82:	67 e0       	ldi	r22, 0x07	; 7
    4e84:	a8 01       	movw	r20, r16
    4e86:	0e 94 67 01 	call	0x2ce	; 0x2ce <LCD>
	double s = gyro, e;
    4e8a:	80 91 7e 02 	lds	r24, 0x027E
    4e8e:	90 91 7f 02 	lds	r25, 0x027F
    4e92:	a0 91 80 02 	lds	r26, 0x0280
    4e96:	b0 91 81 02 	lds	r27, 0x0281
    4e9a:	8f 83       	std	Y+7, r24	; 0x07
    4e9c:	98 87       	std	Y+8, r25	; 0x08
    4e9e:	a9 87       	std	Y+9, r26	; 0x09
    4ea0:	ba 87       	std	Y+10, r27	; 0x0a
	O(x,y,0,0);
    4ea2:	c5 01       	movw	r24, r10
    4ea4:	b3 01       	movw	r22, r6
    4ea6:	40 e0       	ldi	r20, 0x00	; 0
    4ea8:	50 e0       	ldi	r21, 0x00	; 0
    4eaa:	20 e0       	ldi	r18, 0x00	; 0
    4eac:	30 e0       	ldi	r19, 0x00	; 0
    4eae:	81 01       	movw	r16, r2
    4eb0:	eb 80       	ldd	r14, Y+3	; 0x03
    4eb2:	fc 80       	ldd	r15, Y+4	; 0x04
    4eb4:	0e 94 11 19 	call	0x3222	; 0x3222 <Omni>
	if(x && y)
    4eb8:	a1 14       	cp	r10, r1
    4eba:	b1 04       	cpc	r11, r1
    4ebc:	71 f1       	breq	.+92     	; 0x4f1a <MoveLineCheck+0x192>
    4ebe:	61 14       	cp	r6, r1
    4ec0:	71 04       	cpc	r7, r1
    4ec2:	59 f1       	breq	.+86     	; 0x4f1a <MoveLineCheck+0x192>
		sp *= fabs(sp/hypot(msp[0],msp[1]));
    4ec4:	b1 01       	movw	r22, r2
    4ec6:	88 27       	eor	r24, r24
    4ec8:	77 fd       	sbrc	r23, 7
    4eca:	80 95       	com	r24
    4ecc:	98 2f       	mov	r25, r24
    4ece:	0e 94 6a 41 	call	0x82d4	; 0x82d4 <__floatsisf>
    4ed2:	7b 01       	movw	r14, r22
    4ed4:	8c 01       	movw	r16, r24
    4ed6:	60 91 37 03 	lds	r22, 0x0337
    4eda:	70 91 38 03 	lds	r23, 0x0338
    4ede:	80 91 39 03 	lds	r24, 0x0339
    4ee2:	90 91 3a 03 	lds	r25, 0x033A
    4ee6:	20 91 3b 03 	lds	r18, 0x033B
    4eea:	30 91 3c 03 	lds	r19, 0x033C
    4eee:	40 91 3d 03 	lds	r20, 0x033D
    4ef2:	50 91 3e 03 	lds	r21, 0x033E
    4ef6:	0e 94 a0 42 	call	0x8540	; 0x8540 <hypot>
    4efa:	9b 01       	movw	r18, r22
    4efc:	ac 01       	movw	r20, r24
    4efe:	c8 01       	movw	r24, r16
    4f00:	b7 01       	movw	r22, r14
    4f02:	0e 94 cf 40 	call	0x819e	; 0x819e <__divsf3>
    4f06:	9b 01       	movw	r18, r22
    4f08:	ac 01       	movw	r20, r24
    4f0a:	5f 77       	andi	r21, 0x7F	; 127
    4f0c:	c8 01       	movw	r24, r16
    4f0e:	b7 01       	movw	r22, r14
    4f10:	0e 94 2e 43 	call	0x865c	; 0x865c <__mulsf3>
    4f14:	0e 94 37 41 	call	0x826e	; 0x826e <__fixsfsi>
    4f18:	1b 01       	movw	r2, r22
	tot = O(x,y,z,0);
    4f1a:	c5 01       	movw	r24, r10
    4f1c:	b3 01       	movw	r22, r6
    4f1e:	4d 81       	ldd	r20, Y+5	; 0x05
    4f20:	5e 81       	ldd	r21, Y+6	; 0x06
    4f22:	20 e0       	ldi	r18, 0x00	; 0
    4f24:	30 e0       	ldi	r19, 0x00	; 0
    4f26:	81 01       	movw	r16, r2
    4f28:	eb 80       	ldd	r14, Y+3	; 0x03
    4f2a:	fc 80       	ldd	r15, Y+4	; 0x04
    4f2c:	0e 94 11 19 	call	0x3222	; 0x3222 <Omni>
    4f30:	90 93 5a 03 	sts	0x035A, r25
    4f34:	80 93 59 03 	sts	0x0359, r24
			OS

			if(!z)
			{				
				e = s-gyro;
				e *= (sp+10)/10;
    4f38:	c1 01       	movw	r24, r2
    4f3a:	0a 96       	adiw	r24, 0x0a	; 10
    4f3c:	6a e0       	ldi	r22, 0x0A	; 10
    4f3e:	70 e0       	ldi	r23, 0x00	; 0
    4f40:	0e 94 cc 46 	call	0x8d98	; 0x8d98 <__divmodhi4>
    4f44:	cb 01       	movw	r24, r22
    4f46:	aa 27       	eor	r26, r26
    4f48:	97 fd       	sbrc	r25, 7
    4f4a:	a0 95       	com	r26
    4f4c:	ba 2f       	mov	r27, r26
    4f4e:	8b 87       	std	Y+11, r24	; 0x0b
    4f50:	9c 87       	std	Y+12, r25	; 0x0c
    4f52:	ad 87       	std	Y+13, r26	; 0x0d
    4f54:	be 87       	std	Y+14, r27	; 0x0e
	if(x && y)
		sp *= fabs(sp/hypot(msp[0],msp[1]));
	tot = O(x,y,z,0);
	while(1)
	{
		if(!gtc)
    4f56:	80 91 10 02 	lds	r24, 0x0210
    4f5a:	90 91 11 02 	lds	r25, 0x0211
    4f5e:	00 97       	sbiw	r24, 0x00	; 0
    4f60:	d1 f7       	brne	.-12     	; 0x4f56 <MoveLineCheck+0x1ce>
		{
			gtc = 1;
    4f62:	a1 e0       	ldi	r26, 0x01	; 1
    4f64:	b0 e0       	ldi	r27, 0x00	; 0
    4f66:	b0 93 11 02 	sts	0x0211, r27
    4f6a:	a0 93 10 02 	sts	0x0210, r26
			OS
    4f6e:	80 91 59 03 	lds	r24, 0x0359
    4f72:	90 91 5a 03 	lds	r25, 0x035A
    4f76:	6b 81       	ldd	r22, Y+3	; 0x03
    4f78:	7c 81       	ldd	r23, Y+4	; 0x04
    4f7a:	0e 94 00 1a 	call	0x3400	; 0x3400 <OmniSet>

			if(!z)
    4f7e:	ed 81       	ldd	r30, Y+5	; 0x05
    4f80:	fe 81       	ldd	r31, Y+6	; 0x06
    4f82:	30 97       	sbiw	r30, 0x00	; 0
    4f84:	09 f0       	breq	.+2      	; 0x4f88 <MoveLineCheck+0x200>
    4f86:	41 c0       	rjmp	.+130    	; 0x500a <MoveLineCheck+0x282>
			{				
				e = s-gyro;
    4f88:	20 91 7e 02 	lds	r18, 0x027E
    4f8c:	30 91 7f 02 	lds	r19, 0x027F
    4f90:	40 91 80 02 	lds	r20, 0x0280
    4f94:	50 91 81 02 	lds	r21, 0x0281
    4f98:	6f 81       	ldd	r22, Y+7	; 0x07
    4f9a:	78 85       	ldd	r23, Y+8	; 0x08
    4f9c:	89 85       	ldd	r24, Y+9	; 0x09
    4f9e:	9a 85       	ldd	r25, Y+10	; 0x0a
    4fa0:	0e 94 50 40 	call	0x80a0	; 0x80a0 <__subsf3>
    4fa4:	66 2e       	mov	r6, r22
    4fa6:	a7 2e       	mov	r10, r23
    4fa8:	e8 2e       	mov	r14, r24
    4faa:	09 2f       	mov	r16, r25
				e *= (sp+10)/10;
    4fac:	6b 85       	ldd	r22, Y+11	; 0x0b
    4fae:	7c 85       	ldd	r23, Y+12	; 0x0c
    4fb0:	8d 85       	ldd	r24, Y+13	; 0x0d
    4fb2:	9e 85       	ldd	r25, Y+14	; 0x0e
    4fb4:	0e 94 6a 41 	call	0x82d4	; 0x82d4 <__floatsisf>
    4fb8:	9b 01       	movw	r18, r22
    4fba:	ac 01       	movw	r20, r24
    4fbc:	66 2d       	mov	r22, r6
    4fbe:	7a 2d       	mov	r23, r10
    4fc0:	8e 2d       	mov	r24, r14
    4fc2:	90 2f       	mov	r25, r16
    4fc4:	0e 94 2e 43 	call	0x865c	; 0x865c <__mulsf3>
    4fc8:	e6 2e       	mov	r14, r22
    4fca:	f7 2e       	mov	r15, r23
    4fcc:	08 2f       	mov	r16, r24
    4fce:	19 2f       	mov	r17, r25
				if(fabs(e) > 30) e= 0;
    4fd0:	c8 01       	movw	r24, r16
    4fd2:	b7 01       	movw	r22, r14
    4fd4:	9f 77       	andi	r25, 0x7F	; 127
    4fd6:	20 e0       	ldi	r18, 0x00	; 0
    4fd8:	30 e0       	ldi	r19, 0x00	; 0
    4fda:	40 ef       	ldi	r20, 0xF0	; 240
    4fdc:	51 e4       	ldi	r21, 0x41	; 65
    4fde:	0e 94 93 42 	call	0x8526	; 0x8526 <__gesf2>
    4fe2:	18 16       	cp	r1, r24
    4fe4:	54 f4       	brge	.+20     	; 0x4ffa <MoveLineCheck+0x272>
    4fe6:	0f 2e       	mov	r0, r31
    4fe8:	f0 e0       	ldi	r31, 0x00	; 0
    4fea:	ef 2e       	mov	r14, r31
    4fec:	f0 e0       	ldi	r31, 0x00	; 0
    4fee:	ff 2e       	mov	r15, r31
    4ff0:	f0 e0       	ldi	r31, 0x00	; 0
    4ff2:	0f 2f       	mov	r16, r31
    4ff4:	f0 e0       	ldi	r31, 0x00	; 0
    4ff6:	1f 2f       	mov	r17, r31
    4ff8:	f0 2d       	mov	r31, r0
				gsp[2] = e;
    4ffa:	e0 92 51 03 	sts	0x0351, r14
    4ffe:	f0 92 52 03 	sts	0x0352, r15
    5002:	00 93 53 03 	sts	0x0353, r16
    5006:	10 93 54 03 	sts	0x0354, r17
			}

			if(!oc) oc = 1;
    500a:	80 91 38 02 	lds	r24, 0x0238
    500e:	90 91 39 02 	lds	r25, 0x0239
    5012:	00 97       	sbiw	r24, 0x00	; 0
    5014:	31 f4       	brne	.+12     	; 0x5022 <MoveLineCheck+0x29a>
    5016:	81 e0       	ldi	r24, 0x01	; 1
    5018:	90 e0       	ldi	r25, 0x00	; 0
    501a:	90 93 39 02 	sts	0x0239, r25
    501e:	80 93 38 02 	sts	0x0238, r24
			if(oc > tot) {LE return;}	
    5022:	80 91 59 03 	lds	r24, 0x0359
    5026:	90 91 5a 03 	lds	r25, 0x035A
    502a:	20 91 38 02 	lds	r18, 0x0238
    502e:	30 91 39 02 	lds	r19, 0x0239
    5032:	82 17       	cp	r24, r18
    5034:	93 07       	cpc	r25, r19
    5036:	f4 f5       	brge	.+124    	; 0x50b4 <MoveLineCheck+0x32c>
    5038:	10 92 4b 02 	sts	0x024B, r1
    503c:	10 92 4a 02 	sts	0x024A, r1
    5040:	80 e0       	ldi	r24, 0x00	; 0
    5042:	90 e0       	ldi	r25, 0x00	; 0
    5044:	dc 01       	movw	r26, r24
    5046:	80 93 93 02 	sts	0x0293, r24
    504a:	90 93 94 02 	sts	0x0294, r25
    504e:	a0 93 95 02 	sts	0x0295, r26
    5052:	b0 93 96 02 	sts	0x0296, r27
    5056:	80 91 93 02 	lds	r24, 0x0293
    505a:	90 91 94 02 	lds	r25, 0x0294
    505e:	a0 91 95 02 	lds	r26, 0x0295
    5062:	b0 91 96 02 	lds	r27, 0x0296
    5066:	80 93 1d 03 	sts	0x031D, r24
    506a:	90 93 1e 03 	sts	0x031E, r25
    506e:	a0 93 1f 03 	sts	0x031F, r26
    5072:	b0 93 20 03 	sts	0x0320, r27
    5076:	80 91 1d 03 	lds	r24, 0x031D
    507a:	90 91 1e 03 	lds	r25, 0x031E
    507e:	a0 91 1f 03 	lds	r26, 0x031F
    5082:	b0 91 20 03 	lds	r27, 0x0320
    5086:	80 93 87 02 	sts	0x0287, r24
    508a:	90 93 88 02 	sts	0x0288, r25
    508e:	a0 93 89 02 	sts	0x0289, r26
    5092:	b0 93 8a 02 	sts	0x028A, r27
    5096:	60 91 87 02 	lds	r22, 0x0287
    509a:	70 91 88 02 	lds	r23, 0x0288
    509e:	80 91 89 02 	lds	r24, 0x0289
    50a2:	90 91 8a 02 	lds	r25, 0x028A
    50a6:	0e 94 37 41 	call	0x826e	; 0x826e <__fixsfsi>
    50aa:	70 93 39 02 	sts	0x0239, r23
    50ae:	60 93 38 02 	sts	0x0238, r22
    50b2:	d2 c0       	rjmp	.+420    	; 0x5258 <MoveLineCheck+0x4d0>
			
			if(check == 0 && IR_2) {LE return 1;}
    50b4:	a9 81       	ldd	r26, Y+1	; 0x01
    50b6:	ba 81       	ldd	r27, Y+2	; 0x02
    50b8:	10 97       	sbiw	r26, 0x00	; 0
    50ba:	41 f4       	brne	.+16     	; 0x50cc <MoveLineCheck+0x344>
    50bc:	80 91 8d 02 	lds	r24, 0x028D
    50c0:	90 91 8e 02 	lds	r25, 0x028E
    50c4:	00 97       	sbiw	r24, 0x00	; 0
    50c6:	09 f4       	brne	.+2      	; 0x50ca <MoveLineCheck+0x342>
    50c8:	9b c0       	rjmp	.+310    	; 0x5200 <MoveLineCheck+0x478>
    50ca:	13 c0       	rjmp	.+38     	; 0x50f2 <MoveLineCheck+0x36a>
			if(check == 1 && IND_1) {LE return 2;}
    50cc:	e9 81       	ldd	r30, Y+1	; 0x01
    50ce:	fa 81       	ldd	r31, Y+2	; 0x02
    50d0:	e1 30       	cpi	r30, 0x01	; 1
    50d2:	f1 05       	cpc	r31, r1
    50d4:	09 f4       	brne	.+2      	; 0x50d8 <MoveLineCheck+0x350>
    50d6:	4d c0       	rjmp	.+154    	; 0x5172 <MoveLineCheck+0x3ea>
		
			if(check == 2 && IR_2) {LE return 1;}
    50d8:	89 81       	ldd	r24, Y+1	; 0x01
    50da:	9a 81       	ldd	r25, Y+2	; 0x02
    50dc:	82 30       	cpi	r24, 0x02	; 2
    50de:	91 05       	cpc	r25, r1
    50e0:	09 f0       	breq	.+2      	; 0x50e4 <MoveLineCheck+0x35c>
    50e2:	8e c0       	rjmp	.+284    	; 0x5200 <MoveLineCheck+0x478>
    50e4:	80 91 8d 02 	lds	r24, 0x028D
    50e8:	90 91 8e 02 	lds	r25, 0x028E
    50ec:	00 97       	sbiw	r24, 0x00	; 0
    50ee:	09 f4       	brne	.+2      	; 0x50f2 <MoveLineCheck+0x36a>
    50f0:	40 c0       	rjmp	.+128    	; 0x5172 <MoveLineCheck+0x3ea>
    50f2:	10 92 4b 02 	sts	0x024B, r1
    50f6:	10 92 4a 02 	sts	0x024A, r1
    50fa:	80 e0       	ldi	r24, 0x00	; 0
    50fc:	90 e0       	ldi	r25, 0x00	; 0
    50fe:	dc 01       	movw	r26, r24
    5100:	80 93 93 02 	sts	0x0293, r24
    5104:	90 93 94 02 	sts	0x0294, r25
    5108:	a0 93 95 02 	sts	0x0295, r26
    510c:	b0 93 96 02 	sts	0x0296, r27
    5110:	80 91 93 02 	lds	r24, 0x0293
    5114:	90 91 94 02 	lds	r25, 0x0294
    5118:	a0 91 95 02 	lds	r26, 0x0295
    511c:	b0 91 96 02 	lds	r27, 0x0296
    5120:	80 93 1d 03 	sts	0x031D, r24
    5124:	90 93 1e 03 	sts	0x031E, r25
    5128:	a0 93 1f 03 	sts	0x031F, r26
    512c:	b0 93 20 03 	sts	0x0320, r27
    5130:	80 91 1d 03 	lds	r24, 0x031D
    5134:	90 91 1e 03 	lds	r25, 0x031E
    5138:	a0 91 1f 03 	lds	r26, 0x031F
    513c:	b0 91 20 03 	lds	r27, 0x0320
    5140:	80 93 87 02 	sts	0x0287, r24
    5144:	90 93 88 02 	sts	0x0288, r25
    5148:	a0 93 89 02 	sts	0x0289, r26
    514c:	b0 93 8a 02 	sts	0x028A, r27
    5150:	60 91 87 02 	lds	r22, 0x0287
    5154:	70 91 88 02 	lds	r23, 0x0288
    5158:	80 91 89 02 	lds	r24, 0x0289
    515c:	90 91 8a 02 	lds	r25, 0x028A
    5160:	0e 94 37 41 	call	0x826e	; 0x826e <__fixsfsi>
    5164:	70 93 39 02 	sts	0x0239, r23
    5168:	60 93 38 02 	sts	0x0238, r22
    516c:	21 e0       	ldi	r18, 0x01	; 1
    516e:	30 e0       	ldi	r19, 0x00	; 0
    5170:	72 c0       	rjmp	.+228    	; 0x5256 <MoveLineCheck+0x4ce>
			if(check == 2 && IND_1) {LE return 2;}		
    5172:	80 91 97 02 	lds	r24, 0x0297
    5176:	90 91 98 02 	lds	r25, 0x0298
    517a:	00 97       	sbiw	r24, 0x00	; 0
    517c:	09 f4       	brne	.+2      	; 0x5180 <MoveLineCheck+0x3f8>
    517e:	40 c0       	rjmp	.+128    	; 0x5200 <MoveLineCheck+0x478>
    5180:	10 92 4b 02 	sts	0x024B, r1
    5184:	10 92 4a 02 	sts	0x024A, r1
    5188:	80 e0       	ldi	r24, 0x00	; 0
    518a:	90 e0       	ldi	r25, 0x00	; 0
    518c:	dc 01       	movw	r26, r24
    518e:	80 93 93 02 	sts	0x0293, r24
    5192:	90 93 94 02 	sts	0x0294, r25
    5196:	a0 93 95 02 	sts	0x0295, r26
    519a:	b0 93 96 02 	sts	0x0296, r27
    519e:	80 91 93 02 	lds	r24, 0x0293
    51a2:	90 91 94 02 	lds	r25, 0x0294
    51a6:	a0 91 95 02 	lds	r26, 0x0295
    51aa:	b0 91 96 02 	lds	r27, 0x0296
    51ae:	80 93 1d 03 	sts	0x031D, r24
    51b2:	90 93 1e 03 	sts	0x031E, r25
    51b6:	a0 93 1f 03 	sts	0x031F, r26
    51ba:	b0 93 20 03 	sts	0x0320, r27
    51be:	80 91 1d 03 	lds	r24, 0x031D
    51c2:	90 91 1e 03 	lds	r25, 0x031E
    51c6:	a0 91 1f 03 	lds	r26, 0x031F
    51ca:	b0 91 20 03 	lds	r27, 0x0320
    51ce:	80 93 87 02 	sts	0x0287, r24
    51d2:	90 93 88 02 	sts	0x0288, r25
    51d6:	a0 93 89 02 	sts	0x0289, r26
    51da:	b0 93 8a 02 	sts	0x028A, r27
    51de:	60 91 87 02 	lds	r22, 0x0287
    51e2:	70 91 88 02 	lds	r23, 0x0288
    51e6:	80 91 89 02 	lds	r24, 0x0289
    51ea:	90 91 8a 02 	lds	r25, 0x028A
    51ee:	0e 94 37 41 	call	0x826e	; 0x826e <__fixsfsi>
    51f2:	70 93 39 02 	sts	0x0239, r23
    51f6:	60 93 38 02 	sts	0x0238, r22
    51fa:	22 e0       	ldi	r18, 0x02	; 2
    51fc:	30 e0       	ldi	r19, 0x00	; 0
    51fe:	2b c0       	rjmp	.+86     	; 0x5256 <MoveLineCheck+0x4ce>

			speed(gsp[0],gsp[1],gsp[2],wa);
    5200:	60 90 49 03 	lds	r6, 0x0349
    5204:	70 90 4a 03 	lds	r7, 0x034A
    5208:	80 90 4b 03 	lds	r8, 0x034B
    520c:	90 90 4c 03 	lds	r9, 0x034C
    5210:	20 90 4d 03 	lds	r2, 0x034D
    5214:	30 90 4e 03 	lds	r3, 0x034E
    5218:	40 90 4f 03 	lds	r4, 0x034F
    521c:	50 90 50 03 	lds	r5, 0x0350
    5220:	e0 90 51 03 	lds	r14, 0x0351
    5224:	f0 90 52 03 	lds	r15, 0x0352
    5228:	00 91 53 03 	lds	r16, 0x0353
    522c:	10 91 54 03 	lds	r17, 0x0354
    5230:	60 91 5e 02 	lds	r22, 0x025E
    5234:	70 91 5f 02 	lds	r23, 0x025F
    5238:	88 27       	eor	r24, r24
    523a:	77 fd       	sbrc	r23, 7
    523c:	80 95       	com	r24
    523e:	98 2f       	mov	r25, r24
    5240:	0e 94 6a 41 	call	0x82d4	; 0x82d4 <__floatsisf>
    5244:	5b 01       	movw	r10, r22
    5246:	6c 01       	movw	r12, r24
    5248:	c4 01       	movw	r24, r8
    524a:	b3 01       	movw	r22, r6
    524c:	a2 01       	movw	r20, r4
    524e:	91 01       	movw	r18, r2
    5250:	0e 94 93 16 	call	0x2d26	; 0x2d26 <speed>
    5254:	80 ce       	rjmp	.-768    	; 0x4f56 <MoveLineCheck+0x1ce>
    5256:	c9 01       	movw	r24, r18
		}
	}
}
    5258:	2e 96       	adiw	r28, 0x0e	; 14
    525a:	0f b6       	in	r0, 0x3f	; 63
    525c:	f8 94       	cli
    525e:	de bf       	out	0x3e, r29	; 62
    5260:	0f be       	out	0x3f, r0	; 63
    5262:	cd bf       	out	0x3d, r28	; 61
    5264:	cf 91       	pop	r28
    5266:	df 91       	pop	r29
    5268:	1f 91       	pop	r17
    526a:	0f 91       	pop	r16
    526c:	ff 90       	pop	r15
    526e:	ef 90       	pop	r14
    5270:	df 90       	pop	r13
    5272:	cf 90       	pop	r12
    5274:	bf 90       	pop	r11
    5276:	af 90       	pop	r10
    5278:	9f 90       	pop	r9
    527a:	8f 90       	pop	r8
    527c:	7f 90       	pop	r7
    527e:	6f 90       	pop	r6
    5280:	5f 90       	pop	r5
    5282:	4f 90       	pop	r4
    5284:	3f 90       	pop	r3
    5286:	2f 90       	pop	r2
    5288:	08 95       	ret

0000528a <CPsd>:
			if(oc > tot) {LE return;}
		}
	}
}

int CPsd(int check, int ps, int cm, int v, int pm, int pc, int sp, int ac){
    528a:	2f 92       	push	r2
    528c:	3f 92       	push	r3
    528e:	4f 92       	push	r4
    5290:	5f 92       	push	r5
    5292:	6f 92       	push	r6
    5294:	7f 92       	push	r7
    5296:	8f 92       	push	r8
    5298:	9f 92       	push	r9
    529a:	af 92       	push	r10
    529c:	bf 92       	push	r11
    529e:	cf 92       	push	r12
    52a0:	df 92       	push	r13
    52a2:	ef 92       	push	r14
    52a4:	ff 92       	push	r15
    52a6:	0f 93       	push	r16
    52a8:	1f 93       	push	r17
    52aa:	df 93       	push	r29
    52ac:	cf 93       	push	r28
    52ae:	cd b7       	in	r28, 0x3d	; 61
    52b0:	de b7       	in	r29, 0x3e	; 62
    52b2:	aa 97       	sbiw	r28, 0x2a	; 42
    52b4:	0f b6       	in	r0, 0x3f	; 63
    52b6:	f8 94       	cli
    52b8:	de bf       	out	0x3e, r29	; 62
    52ba:	0f be       	out	0x3f, r0	; 63
    52bc:	cd bf       	out	0x3d, r28	; 61
    52be:	4c 01       	movw	r8, r24
    52c0:	7a 83       	std	Y+2, r23	; 0x02
    52c2:	69 83       	std	Y+1, r22	; 0x01
    52c4:	5c 83       	std	Y+4, r21	; 0x04
    52c6:	4b 83       	std	Y+3, r20	; 0x03
    52c8:	39 01       	movw	r6, r18
    52ca:	1c 87       	std	Y+12, r17	; 0x0c
    52cc:	0b 87       	std	Y+11, r16	; 0x0b
    52ce:	fe 82       	std	Y+6, r15	; 0x06
    52d0:	ed 82       	std	Y+5, r14	; 0x05
    52d2:	b8 86       	std	Y+8, r11	; 0x08
    52d4:	af 82       	std	Y+7, r10	; 0x07
	ginit("CPsd");
    52d6:	10 92 4b 02 	sts	0x024B, r1
    52da:	10 92 4a 02 	sts	0x024A, r1
    52de:	10 92 11 02 	sts	0x0211, r1
    52e2:	10 92 10 02 	sts	0x0210, r1
    52e6:	80 91 10 02 	lds	r24, 0x0210
    52ea:	90 91 11 02 	lds	r25, 0x0211
    52ee:	90 93 5a 03 	sts	0x035A, r25
    52f2:	80 93 59 03 	sts	0x0359, r24
    52f6:	80 91 59 03 	lds	r24, 0x0359
    52fa:	90 91 5a 03 	lds	r25, 0x035A
    52fe:	90 93 39 02 	sts	0x0239, r25
    5302:	80 93 38 02 	sts	0x0238, r24
    5306:	20 e0       	ldi	r18, 0x00	; 0
    5308:	30 e0       	ldi	r19, 0x00	; 0
    530a:	0f 2e       	mov	r0, r31
    530c:	f0 e0       	ldi	r31, 0x00	; 0
    530e:	ef 2e       	mov	r14, r31
    5310:	f0 e0       	ldi	r31, 0x00	; 0
    5312:	ff 2e       	mov	r15, r31
    5314:	f0 e0       	ldi	r31, 0x00	; 0
    5316:	0f 2f       	mov	r16, r31
    5318:	f0 e0       	ldi	r31, 0x00	; 0
    531a:	1f 2f       	mov	r17, r31
    531c:	f0 2d       	mov	r31, r0
    531e:	c9 01       	movw	r24, r18
    5320:	88 0f       	add	r24, r24
    5322:	99 1f       	adc	r25, r25
    5324:	88 0f       	add	r24, r24
    5326:	99 1f       	adc	r25, r25
    5328:	fc 01       	movw	r30, r24
    532a:	e7 5b       	subi	r30, 0xB7	; 183
    532c:	fc 4f       	sbci	r31, 0xFC	; 252
    532e:	e0 82       	st	Z, r14
    5330:	f1 82       	std	Z+1, r15	; 0x01
    5332:	02 83       	std	Z+2, r16	; 0x02
    5334:	13 83       	std	Z+3, r17	; 0x03
    5336:	40 81       	ld	r20, Z
    5338:	51 81       	ldd	r21, Z+1	; 0x01
    533a:	62 81       	ldd	r22, Z+2	; 0x02
    533c:	73 81       	ldd	r23, Z+3	; 0x03
    533e:	89 5c       	subi	r24, 0xC9	; 201
    5340:	9c 4f       	sbci	r25, 0xFC	; 252
    5342:	dc 01       	movw	r26, r24
    5344:	4d 93       	st	X+, r20
    5346:	5d 93       	st	X+, r21
    5348:	6d 93       	st	X+, r22
    534a:	7c 93       	st	X, r23
    534c:	13 97       	sbiw	r26, 0x03	; 3
    534e:	2f 5f       	subi	r18, 0xFF	; 255
    5350:	3f 4f       	sbci	r19, 0xFF	; 255
    5352:	24 30       	cpi	r18, 0x04	; 4
    5354:	31 05       	cpc	r19, r1
    5356:	19 f7       	brne	.-58     	; 0x531e <CPsd+0x94>
    5358:	00 d0       	rcall	.+0      	; 0x535a <CPsd+0xd0>
    535a:	00 d0       	rcall	.+0      	; 0x535c <CPsd+0xd2>
    535c:	00 d0       	rcall	.+0      	; 0x535e <CPsd+0xd4>
    535e:	ed b7       	in	r30, 0x3d	; 61
    5360:	fe b7       	in	r31, 0x3e	; 62
    5362:	31 96       	adiw	r30, 0x01	; 1
    5364:	01 e2       	ldi	r16, 0x21	; 33
    5366:	13 e0       	ldi	r17, 0x03	; 3
    5368:	ad b7       	in	r26, 0x3d	; 61
    536a:	be b7       	in	r27, 0x3e	; 62
    536c:	12 96       	adiw	r26, 0x02	; 2
    536e:	1c 93       	st	X, r17
    5370:	0e 93       	st	-X, r16
    5372:	11 97       	sbiw	r26, 0x01	; 1
    5374:	84 eb       	ldi	r24, 0xB4	; 180
    5376:	91 e0       	ldi	r25, 0x01	; 1
    5378:	93 83       	std	Z+3, r25	; 0x03
    537a:	82 83       	std	Z+2, r24	; 0x02
    537c:	8a ed       	ldi	r24, 0xDA	; 218
    537e:	91 e0       	ldi	r25, 0x01	; 1
    5380:	95 83       	std	Z+5, r25	; 0x05
    5382:	84 83       	std	Z+4, r24	; 0x04
    5384:	0e 94 20 40 	call	0x8040	; 0x8040 <sprintf>
    5388:	ed b7       	in	r30, 0x3d	; 61
    538a:	fe b7       	in	r31, 0x3e	; 62
    538c:	36 96       	adiw	r30, 0x06	; 6
    538e:	0f b6       	in	r0, 0x3f	; 63
    5390:	f8 94       	cli
    5392:	fe bf       	out	0x3e, r31	; 62
    5394:	0f be       	out	0x3f, r0	; 63
    5396:	ed bf       	out	0x3d, r30	; 61
    5398:	80 e0       	ldi	r24, 0x00	; 0
    539a:	67 e0       	ldi	r22, 0x07	; 7
    539c:	a8 01       	movw	r20, r16
    539e:	0e 94 67 01 	call	0x2ce	; 0x2ce <LCD>
	
	int x,y,z,d = ((ps * 40 + wa) % 360 < 180)? 1 : -1;
    53a2:	28 e2       	ldi	r18, 0x28	; 40
    53a4:	30 e0       	ldi	r19, 0x00	; 0
    53a6:	49 81       	ldd	r20, Y+1	; 0x01
    53a8:	5a 81       	ldd	r21, Y+2	; 0x02
    53aa:	42 9f       	mul	r20, r18
    53ac:	c0 01       	movw	r24, r0
    53ae:	43 9f       	mul	r20, r19
    53b0:	90 0d       	add	r25, r0
    53b2:	52 9f       	mul	r21, r18
    53b4:	90 0d       	add	r25, r0
    53b6:	11 24       	eor	r1, r1
    53b8:	20 91 5e 02 	lds	r18, 0x025E
    53bc:	30 91 5f 02 	lds	r19, 0x025F
    53c0:	82 0f       	add	r24, r18
    53c2:	93 1f       	adc	r25, r19
    53c4:	68 e6       	ldi	r22, 0x68	; 104
    53c6:	71 e0       	ldi	r23, 0x01	; 1
    53c8:	0e 94 cc 46 	call	0x8d98	; 0x8d98 <__divmodhi4>
    53cc:	84 3b       	cpi	r24, 0xB4	; 180
    53ce:	91 05       	cpc	r25, r1
    53d0:	24 f4       	brge	.+8      	; 0x53da <CPsd+0x150>
    53d2:	11 e0       	ldi	r17, 0x01	; 1
    53d4:	21 2e       	mov	r2, r17
    53d6:	31 2c       	mov	r3, r1
    53d8:	03 c0       	rjmp	.+6      	; 0x53e0 <CPsd+0x156>
    53da:	22 24       	eor	r2, r2
    53dc:	2a 94       	dec	r2
    53de:	32 2c       	mov	r3, r2

	tot = O(0,cm,0,0)
    53e0:	80 e0       	ldi	r24, 0x00	; 0
    53e2:	90 e0       	ldi	r25, 0x00	; 0
    53e4:	6b 81       	ldd	r22, Y+3	; 0x03
    53e6:	7c 81       	ldd	r23, Y+4	; 0x04
    53e8:	40 e0       	ldi	r20, 0x00	; 0
    53ea:	50 e0       	ldi	r21, 0x00	; 0
    53ec:	20 e0       	ldi	r18, 0x00	; 0
    53ee:	30 e0       	ldi	r19, 0x00	; 0
    53f0:	86 01       	movw	r16, r12
    53f2:	ef 80       	ldd	r14, Y+7	; 0x07
    53f4:	f8 84       	ldd	r15, Y+8	; 0x08
    53f6:	0e 94 11 19 	call	0x3222	; 0x3222 <Omni>
    53fa:	90 93 5a 03 	sts	0x035A, r25
    53fe:	80 93 59 03 	sts	0x0359, r24
	
			if(check == 13 && IR_2) {LE return 1;}
			if(check == 13 && IND_1) {LE return 2;}
			x = z = g_psd[ps] - pm;
	
			if(abs(z) >= 5)  z = LF(v*5,-v*5,z);
    5402:	c3 01       	movw	r24, r6
    5404:	88 0f       	add	r24, r24
    5406:	99 1f       	adc	r25, r25
    5408:	88 0f       	add	r24, r24
    540a:	99 1f       	adc	r25, r25
    540c:	86 0d       	add	r24, r6
    540e:	97 1d       	adc	r25, r7
    5410:	4b ef       	ldi	r20, 0xFB	; 251
    5412:	5f ef       	ldi	r21, 0xFF	; 255
    5414:	64 9e       	mul	r6, r20
    5416:	90 01       	movw	r18, r0
    5418:	65 9e       	mul	r6, r21
    541a:	30 0d       	add	r19, r0
    541c:	74 9e       	mul	r7, r20
    541e:	30 0d       	add	r19, r0
    5420:	11 24       	eor	r1, r1
			if(cm < 0) z *= -1;
			if(check== 12) z = 0, x *= 4;
			x/=2;
			x = LF(sp,-sp,x);
	
			speed(-x*d, gsp[1], -z*d*v,wa);
    5422:	26 9c       	mul	r2, r6
    5424:	b0 01       	movw	r22, r0
    5426:	27 9c       	mul	r2, r7
    5428:	70 0d       	add	r23, r0
    542a:	36 9c       	mul	r3, r6
    542c:	70 0d       	add	r23, r0
    542e:	11 24       	eor	r1, r1
    5430:	7a 87       	std	Y+10, r23	; 0x0a
    5432:	69 87       	std	Y+9, r22	; 0x09
		
		if(!gtc)
		{
			gtc = 1;

			if(abs(check) < 9){
    5434:	d4 01       	movw	r26, r8
    5436:	18 96       	adiw	r26, 0x08	; 8
    5438:	ba 8b       	std	Y+18, r27	; 0x12
    543a:	a9 8b       	std	Y+17, r26	; 0x11
				}
			}
	
			if(check == 13 && IR_2) {LE return 1;}
			if(check == 13 && IND_1) {LE return 2;}
			x = z = g_psd[ps] - pm;
    543c:	e9 81       	ldd	r30, Y+1	; 0x01
    543e:	fa 81       	ldd	r31, Y+2	; 0x02
    5440:	e4 5d       	subi	r30, 0xD4	; 212
    5442:	fd 4f       	sbci	r31, 0xFD	; 253
    5444:	fc 8b       	std	Y+20, r31	; 0x14
    5446:	eb 8b       	std	Y+19, r30	; 0x13
	
			if(abs(z) >= 5)  z = LF(v*5,-v*5,z);
			if(cm < 0) z *= -1;
			if(check== 12) z = 0, x *= 4;
			x/=2;
			x = LF(sp,-sp,x);
    5448:	a6 01       	movw	r20, r12
    544a:	66 27       	eor	r22, r22
    544c:	57 fd       	sbrc	r21, 7
    544e:	60 95       	com	r22
    5450:	76 2f       	mov	r23, r22
    5452:	4d 8b       	std	Y+21, r20	; 0x15
    5454:	5e 8b       	std	Y+22, r21	; 0x16
    5456:	6f 8b       	std	Y+23, r22	; 0x17
    5458:	78 8f       	std	Y+24, r23	; 0x18
    545a:	d0 94       	com	r13
    545c:	c1 94       	neg	r12
    545e:	d1 08       	sbc	r13, r1
    5460:	d3 94       	inc	r13
    5462:	a6 01       	movw	r20, r12
    5464:	66 27       	eor	r22, r22
    5466:	57 fd       	sbrc	r21, 7
    5468:	60 95       	com	r22
    546a:	76 2f       	mov	r23, r22
    546c:	49 8f       	std	Y+25, r20	; 0x19
    546e:	5a 8f       	std	Y+26, r21	; 0x1a
    5470:	6b 8f       	std	Y+27, r22	; 0x1b
    5472:	7c 8f       	std	Y+28, r23	; 0x1c
	
			if(check == 13 && IR_2) {LE return 1;}
			if(check == 13 && IND_1) {LE return 2;}
			x = z = g_psd[ps] - pm;
	
			if(abs(z) >= 5)  z = LF(v*5,-v*5,z);
    5474:	ac 01       	movw	r20, r24
    5476:	66 27       	eor	r22, r22
    5478:	57 fd       	sbrc	r21, 7
    547a:	60 95       	com	r22
    547c:	76 2f       	mov	r23, r22
    547e:	4d 8f       	std	Y+29, r20	; 0x1d
    5480:	5e 8f       	std	Y+30, r21	; 0x1e
    5482:	6f 8f       	std	Y+31, r22	; 0x1f
    5484:	78 a3       	std	Y+32, r23	; 0x20
    5486:	b9 01       	movw	r22, r18
    5488:	88 27       	eor	r24, r24
    548a:	77 fd       	sbrc	r23, 7
    548c:	80 95       	com	r24
    548e:	98 2f       	mov	r25, r24
    5490:	69 a3       	std	Y+33, r22	; 0x21
    5492:	7a a3       	std	Y+34, r23	; 0x22
    5494:	8b a3       	std	Y+35, r24	; 0x23
    5496:	9c a3       	std	Y+36, r25	; 0x24
		if(!gtc)
		{
			gtc = 1;

			if(abs(check) < 9){
				if(g_psd[abs(check)]!= 9){
    5498:	88 27       	eor	r24, r24
    549a:	99 27       	eor	r25, r25
    549c:	88 19       	sub	r24, r8
    549e:	99 09       	sbc	r25, r9
    54a0:	9e a3       	std	Y+38, r25	; 0x26
    54a2:	8d a3       	std	Y+37, r24	; 0x25
	int x,y,z,d = ((ps * 40 + wa) % 360 < 180)? 1 : -1;

	tot = O(0,cm,0,0)

	while(1){
		OS
    54a4:	80 91 59 03 	lds	r24, 0x0359
    54a8:	90 91 5a 03 	lds	r25, 0x035A
    54ac:	6f 81       	ldd	r22, Y+7	; 0x07
    54ae:	78 85       	ldd	r23, Y+8	; 0x08
    54b0:	0e 94 00 1a 	call	0x3400	; 0x3400 <OmniSet>
		
		if(!gtc)
    54b4:	80 91 10 02 	lds	r24, 0x0210
    54b8:	90 91 11 02 	lds	r25, 0x0211
    54bc:	00 97       	sbiw	r24, 0x00	; 0
    54be:	91 f7       	brne	.-28     	; 0x54a4 <CPsd+0x21a>
		{
			gtc = 1;
    54c0:	a1 e0       	ldi	r26, 0x01	; 1
    54c2:	b0 e0       	ldi	r27, 0x00	; 0
    54c4:	b0 93 11 02 	sts	0x0211, r27
    54c8:	a0 93 10 02 	sts	0x0210, r26

			if(abs(check) < 9){
    54cc:	e9 89       	ldd	r30, Y+17	; 0x11
    54ce:	fa 89       	ldd	r31, Y+18	; 0x12
    54d0:	e1 31       	cpi	r30, 0x11	; 17
    54d2:	f1 05       	cpc	r31, r1
    54d4:	08 f0       	brcs	.+2      	; 0x54d8 <CPsd+0x24e>
    54d6:	49 c0       	rjmp	.+146    	; 0x556a <CPsd+0x2e0>
				if(g_psd[abs(check)]!= 9){
    54d8:	c4 01       	movw	r24, r8
    54da:	97 fe       	sbrs	r9, 7
    54dc:	02 c0       	rjmp	.+4      	; 0x54e2 <CPsd+0x258>
    54de:	8d a1       	ldd	r24, Y+37	; 0x25
    54e0:	9e a1       	ldd	r25, Y+38	; 0x26
    54e2:	fc 01       	movw	r30, r24
    54e4:	e4 5d       	subi	r30, 0xD4	; 212
    54e6:	fd 4f       	sbci	r31, 0xFD	; 253
    54e8:	20 81       	ld	r18, Z
    54ea:	29 30       	cpi	r18, 0x09	; 9
    54ec:	09 f4       	brne	.+2      	; 0x54f0 <CPsd+0x266>
    54ee:	d0 c0       	rjmp	.+416    	; 0x5690 <CPsd+0x406>
					if(check <= 0 && SensorIn(abs(check), pc)) {LE return;} 				
    54f0:	18 14       	cp	r1, r8
    54f2:	19 04       	cpc	r1, r9
    54f4:	44 f0       	brlt	.+16     	; 0x5506 <CPsd+0x27c>
    54f6:	6d 81       	ldd	r22, Y+5	; 0x05
    54f8:	7e 81       	ldd	r23, Y+6	; 0x06
    54fa:	0e 94 c2 1d 	call	0x3b84	; 0x3b84 <SensorIn>
    54fe:	00 97       	sbiw	r24, 0x00	; 0
    5500:	09 f4       	brne	.+2      	; 0x5504 <CPsd+0x27a>
    5502:	c6 c0       	rjmp	.+396    	; 0x5690 <CPsd+0x406>
    5504:	a0 c1       	rjmp	.+832    	; 0x5846 <CPsd+0x5bc>
					if(check > 0 && g_psd[abs(check)] >= pc) {
    5506:	80 81       	ld	r24, Z
    5508:	90 e0       	ldi	r25, 0x00	; 0
    550a:	2d 81       	ldd	r18, Y+5	; 0x05
    550c:	3e 81       	ldd	r19, Y+6	; 0x06
    550e:	82 17       	cp	r24, r18
    5510:	93 07       	cpc	r25, r19
    5512:	0c f4       	brge	.+2      	; 0x5516 <CPsd+0x28c>
    5514:	bd c0       	rjmp	.+378    	; 0x5690 <CPsd+0x406>
						if(ps== check) {speed(0,gsp[1],0,wa); _delay_us(10);}
    5516:	49 81       	ldd	r20, Y+1	; 0x01
    5518:	5a 81       	ldd	r21, Y+2	; 0x02
    551a:	48 15       	cp	r20, r8
    551c:	59 05       	cpc	r21, r9
    551e:	09 f0       	breq	.+2      	; 0x5522 <CPsd+0x298>
    5520:	92 c1       	rjmp	.+804    	; 0x5846 <CPsd+0x5bc>
    5522:	c0 90 4d 03 	lds	r12, 0x034D
    5526:	d0 90 4e 03 	lds	r13, 0x034E
    552a:	e0 90 4f 03 	lds	r14, 0x034F
    552e:	f0 90 50 03 	lds	r15, 0x0350
    5532:	60 91 5e 02 	lds	r22, 0x025E
    5536:	70 91 5f 02 	lds	r23, 0x025F
    553a:	88 27       	eor	r24, r24
    553c:	77 fd       	sbrc	r23, 7
    553e:	80 95       	com	r24
    5540:	98 2f       	mov	r25, r24
    5542:	0e 94 6a 41 	call	0x82d4	; 0x82d4 <__floatsisf>
    5546:	4b 01       	movw	r8, r22
    5548:	5c 01       	movw	r10, r24
    554a:	60 e0       	ldi	r22, 0x00	; 0
    554c:	70 e0       	ldi	r23, 0x00	; 0
    554e:	cb 01       	movw	r24, r22
    5550:	a7 01       	movw	r20, r14
    5552:	96 01       	movw	r18, r12
    5554:	7b 01       	movw	r14, r22
    5556:	8c 01       	movw	r16, r24
    5558:	65 01       	movw	r12, r10
    555a:	54 01       	movw	r10, r8
    555c:	0e 94 93 16 	call	0x2d26	; 0x2d26 <speed>
	#else
		//round up by default
		__ticks_dc = (uint32_t)(ceil(fabs(__tmp)));
	#endif

	__builtin_avr_delay_cycles(__ticks_dc);
    5560:	51 e3       	ldi	r21, 0x31	; 49
    5562:	5a 95       	dec	r21
    5564:	f1 f7       	brne	.-4      	; 0x5562 <CPsd+0x2d8>
    5566:	00 00       	nop
    5568:	6e c1       	rjmp	.+732    	; 0x5846 <CPsd+0x5bc>
					LE return;}
				}
			}
	
			if(check == 13 && IR_2) {LE return 1;}
    556a:	6d e0       	ldi	r22, 0x0D	; 13
    556c:	86 16       	cp	r8, r22
    556e:	91 04       	cpc	r9, r1
    5570:	09 f0       	breq	.+2      	; 0x5574 <CPsd+0x2ea>
    5572:	8e c0       	rjmp	.+284    	; 0x5690 <CPsd+0x406>
    5574:	80 91 8d 02 	lds	r24, 0x028D
    5578:	90 91 8e 02 	lds	r25, 0x028E
    557c:	00 97       	sbiw	r24, 0x00	; 0
    557e:	09 f4       	brne	.+2      	; 0x5582 <CPsd+0x2f8>
    5580:	40 c0       	rjmp	.+128    	; 0x5602 <CPsd+0x378>
    5582:	10 92 4b 02 	sts	0x024B, r1
    5586:	10 92 4a 02 	sts	0x024A, r1
    558a:	80 e0       	ldi	r24, 0x00	; 0
    558c:	90 e0       	ldi	r25, 0x00	; 0
    558e:	dc 01       	movw	r26, r24
    5590:	80 93 93 02 	sts	0x0293, r24
    5594:	90 93 94 02 	sts	0x0294, r25
    5598:	a0 93 95 02 	sts	0x0295, r26
    559c:	b0 93 96 02 	sts	0x0296, r27
    55a0:	80 91 93 02 	lds	r24, 0x0293
    55a4:	90 91 94 02 	lds	r25, 0x0294
    55a8:	a0 91 95 02 	lds	r26, 0x0295
    55ac:	b0 91 96 02 	lds	r27, 0x0296
    55b0:	80 93 1d 03 	sts	0x031D, r24
    55b4:	90 93 1e 03 	sts	0x031E, r25
    55b8:	a0 93 1f 03 	sts	0x031F, r26
    55bc:	b0 93 20 03 	sts	0x0320, r27
    55c0:	80 91 1d 03 	lds	r24, 0x031D
    55c4:	90 91 1e 03 	lds	r25, 0x031E
    55c8:	a0 91 1f 03 	lds	r26, 0x031F
    55cc:	b0 91 20 03 	lds	r27, 0x0320
    55d0:	80 93 87 02 	sts	0x0287, r24
    55d4:	90 93 88 02 	sts	0x0288, r25
    55d8:	a0 93 89 02 	sts	0x0289, r26
    55dc:	b0 93 8a 02 	sts	0x028A, r27
    55e0:	60 91 87 02 	lds	r22, 0x0287
    55e4:	70 91 88 02 	lds	r23, 0x0288
    55e8:	80 91 89 02 	lds	r24, 0x0289
    55ec:	90 91 8a 02 	lds	r25, 0x028A
    55f0:	0e 94 37 41 	call	0x826e	; 0x826e <__fixsfsi>
    55f4:	70 93 39 02 	sts	0x0239, r23
    55f8:	60 93 38 02 	sts	0x0238, r22
    55fc:	21 e0       	ldi	r18, 0x01	; 1
    55fe:	30 e0       	ldi	r19, 0x00	; 0
    5600:	60 c1       	rjmp	.+704    	; 0x58c2 <CPsd+0x638>
			if(check == 13 && IND_1) {LE return 2;}
    5602:	80 91 97 02 	lds	r24, 0x0297
    5606:	90 91 98 02 	lds	r25, 0x0298
    560a:	00 97       	sbiw	r24, 0x00	; 0
    560c:	09 f4       	brne	.+2      	; 0x5610 <CPsd+0x386>
    560e:	40 c0       	rjmp	.+128    	; 0x5690 <CPsd+0x406>
    5610:	10 92 4b 02 	sts	0x024B, r1
    5614:	10 92 4a 02 	sts	0x024A, r1
    5618:	80 e0       	ldi	r24, 0x00	; 0
    561a:	90 e0       	ldi	r25, 0x00	; 0
    561c:	dc 01       	movw	r26, r24
    561e:	80 93 93 02 	sts	0x0293, r24
    5622:	90 93 94 02 	sts	0x0294, r25
    5626:	a0 93 95 02 	sts	0x0295, r26
    562a:	b0 93 96 02 	sts	0x0296, r27
    562e:	80 91 93 02 	lds	r24, 0x0293
    5632:	90 91 94 02 	lds	r25, 0x0294
    5636:	a0 91 95 02 	lds	r26, 0x0295
    563a:	b0 91 96 02 	lds	r27, 0x0296
    563e:	80 93 1d 03 	sts	0x031D, r24
    5642:	90 93 1e 03 	sts	0x031E, r25
    5646:	a0 93 1f 03 	sts	0x031F, r26
    564a:	b0 93 20 03 	sts	0x0320, r27
    564e:	80 91 1d 03 	lds	r24, 0x031D
    5652:	90 91 1e 03 	lds	r25, 0x031E
    5656:	a0 91 1f 03 	lds	r26, 0x031F
    565a:	b0 91 20 03 	lds	r27, 0x0320
    565e:	80 93 87 02 	sts	0x0287, r24
    5662:	90 93 88 02 	sts	0x0288, r25
    5666:	a0 93 89 02 	sts	0x0289, r26
    566a:	b0 93 8a 02 	sts	0x028A, r27
    566e:	60 91 87 02 	lds	r22, 0x0287
    5672:	70 91 88 02 	lds	r23, 0x0288
    5676:	80 91 89 02 	lds	r24, 0x0289
    567a:	90 91 8a 02 	lds	r25, 0x028A
    567e:	0e 94 37 41 	call	0x826e	; 0x826e <__fixsfsi>
    5682:	70 93 39 02 	sts	0x0239, r23
    5686:	60 93 38 02 	sts	0x0238, r22
    568a:	22 e0       	ldi	r18, 0x02	; 2
    568c:	30 e0       	ldi	r19, 0x00	; 0
    568e:	19 c1       	rjmp	.+562    	; 0x58c2 <CPsd+0x638>
			x = z = g_psd[ps] - pm;
    5690:	ab 89       	ldd	r26, Y+19	; 0x13
    5692:	bc 89       	ldd	r27, Y+20	; 0x14
    5694:	8c 91       	ld	r24, X
    5696:	e8 2f       	mov	r30, r24
    5698:	f0 e0       	ldi	r31, 0x00	; 0
    569a:	2b 85       	ldd	r18, Y+11	; 0x0b
    569c:	3c 85       	ldd	r19, Y+12	; 0x0c
    569e:	e2 1b       	sub	r30, r18
    56a0:	f3 0b       	sbc	r31, r19
    56a2:	fe 87       	std	Y+14, r31	; 0x0e
    56a4:	ed 87       	std	Y+13, r30	; 0x0d
	
			if(abs(z) >= 5)  z = LF(v*5,-v*5,z);
    56a6:	cf 01       	movw	r24, r30
    56a8:	f7 ff       	sbrs	r31, 7
    56aa:	03 c0       	rjmp	.+6      	; 0x56b2 <CPsd+0x428>
    56ac:	90 95       	com	r25
    56ae:	81 95       	neg	r24
    56b0:	9f 4f       	sbci	r25, 0xFF	; 255
    56b2:	85 30       	cpi	r24, 0x05	; 5
    56b4:	91 05       	cpc	r25, r1
    56b6:	2c f1       	brlt	.+74     	; 0x5702 <CPsd+0x478>
    56b8:	6d 8d       	ldd	r22, Y+29	; 0x1d
    56ba:	7e 8d       	ldd	r23, Y+30	; 0x1e
    56bc:	8f 8d       	ldd	r24, Y+31	; 0x1f
    56be:	98 a1       	ldd	r25, Y+32	; 0x20
    56c0:	0e 94 6a 41 	call	0x82d4	; 0x82d4 <__floatsisf>
    56c4:	5b 01       	movw	r10, r22
    56c6:	6c 01       	movw	r12, r24
    56c8:	69 a1       	ldd	r22, Y+33	; 0x21
    56ca:	7a a1       	ldd	r23, Y+34	; 0x22
    56cc:	8b a1       	ldd	r24, Y+35	; 0x23
    56ce:	9c a1       	ldd	r25, Y+36	; 0x24
    56d0:	0e 94 6a 41 	call	0x82d4	; 0x82d4 <__floatsisf>
    56d4:	2b 01       	movw	r4, r22
    56d6:	3c 01       	movw	r6, r24
    56d8:	4d 85       	ldd	r20, Y+13	; 0x0d
    56da:	5e 85       	ldd	r21, Y+14	; 0x0e
    56dc:	ba 01       	movw	r22, r20
    56de:	88 27       	eor	r24, r24
    56e0:	77 fd       	sbrc	r23, 7
    56e2:	80 95       	com	r24
    56e4:	98 2f       	mov	r25, r24
    56e6:	0e 94 6a 41 	call	0x82d4	; 0x82d4 <__floatsisf>
    56ea:	7b 01       	movw	r14, r22
    56ec:	8c 01       	movw	r16, r24
    56ee:	c6 01       	movw	r24, r12
    56f0:	b5 01       	movw	r22, r10
    56f2:	a3 01       	movw	r20, r6
    56f4:	92 01       	movw	r18, r4
    56f6:	0e 94 49 1e 	call	0x3c92	; 0x3c92 <LF>
    56fa:	0e 94 37 41 	call	0x826e	; 0x826e <__fixsfsi>
    56fe:	6b 01       	movw	r12, r22
    5700:	02 c0       	rjmp	.+4      	; 0x5706 <CPsd+0x47c>
				}
			}
	
			if(check == 13 && IR_2) {LE return 1;}
			if(check == 13 && IND_1) {LE return 2;}
			x = z = g_psd[ps] - pm;
    5702:	cd 84       	ldd	r12, Y+13	; 0x0d
    5704:	de 84       	ldd	r13, Y+14	; 0x0e
	
			if(abs(z) >= 5)  z = LF(v*5,-v*5,z);
			if(cm < 0) z *= -1;
    5706:	6b 81       	ldd	r22, Y+3	; 0x03
    5708:	7c 81       	ldd	r23, Y+4	; 0x04
    570a:	77 ff       	sbrs	r23, 7
    570c:	04 c0       	rjmp	.+8      	; 0x5716 <CPsd+0x48c>
    570e:	d0 94       	com	r13
    5710:	c1 94       	neg	r12
    5712:	d1 08       	sbc	r13, r1
    5714:	d3 94       	inc	r13
			if(check== 12) z = 0, x *= 4;
    5716:	7c e0       	ldi	r23, 0x0C	; 12
    5718:	87 16       	cp	r8, r23
    571a:	91 04       	cpc	r9, r1
    571c:	49 f4       	brne	.+18     	; 0x5730 <CPsd+0x4a6>
    571e:	ed 84       	ldd	r14, Y+13	; 0x0d
    5720:	fe 84       	ldd	r15, Y+14	; 0x0e
    5722:	ee 0c       	add	r14, r14
    5724:	ff 1c       	adc	r15, r15
    5726:	ee 0c       	add	r14, r14
    5728:	ff 1c       	adc	r15, r15
    572a:	cc 24       	eor	r12, r12
    572c:	dd 24       	eor	r13, r13
    572e:	02 c0       	rjmp	.+4      	; 0x5734 <CPsd+0x4aa>
				}
			}
	
			if(check == 13 && IR_2) {LE return 1;}
			if(check == 13 && IND_1) {LE return 2;}
			x = z = g_psd[ps] - pm;
    5730:	ed 84       	ldd	r14, Y+13	; 0x0d
    5732:	fe 84       	ldd	r15, Y+14	; 0x0e
	
			if(abs(z) >= 5)  z = LF(v*5,-v*5,z);
			if(cm < 0) z *= -1;
			if(check== 12) z = 0, x *= 4;
			x/=2;
			x = LF(sp,-sp,x);
    5734:	6d 89       	ldd	r22, Y+21	; 0x15
    5736:	7e 89       	ldd	r23, Y+22	; 0x16
    5738:	8f 89       	ldd	r24, Y+23	; 0x17
    573a:	98 8d       	ldd	r25, Y+24	; 0x18
    573c:	0e 94 6a 41 	call	0x82d4	; 0x82d4 <__floatsisf>
    5740:	2b 01       	movw	r4, r22
    5742:	3c 01       	movw	r6, r24
    5744:	69 8d       	ldd	r22, Y+25	; 0x19
    5746:	7a 8d       	ldd	r23, Y+26	; 0x1a
    5748:	8b 8d       	ldd	r24, Y+27	; 0x1b
    574a:	9c 8d       	ldd	r25, Y+28	; 0x1c
    574c:	0e 94 6a 41 	call	0x82d4	; 0x82d4 <__floatsisf>
    5750:	6d 87       	std	Y+13, r22	; 0x0d
    5752:	7e 87       	std	Y+14, r23	; 0x0e
    5754:	8f 87       	std	Y+15, r24	; 0x0f
    5756:	98 8b       	std	Y+16, r25	; 0x10
			x = z = g_psd[ps] - pm;
	
			if(abs(z) >= 5)  z = LF(v*5,-v*5,z);
			if(cm < 0) z *= -1;
			if(check== 12) z = 0, x *= 4;
			x/=2;
    5758:	c7 01       	movw	r24, r14
    575a:	62 e0       	ldi	r22, 0x02	; 2
    575c:	70 e0       	ldi	r23, 0x00	; 0
    575e:	0e 94 cc 46 	call	0x8d98	; 0x8d98 <__divmodhi4>
			x = LF(sp,-sp,x);
    5762:	88 27       	eor	r24, r24
    5764:	77 fd       	sbrc	r23, 7
    5766:	80 95       	com	r24
    5768:	98 2f       	mov	r25, r24
    576a:	0e 94 6a 41 	call	0x82d4	; 0x82d4 <__floatsisf>
    576e:	7b 01       	movw	r14, r22
    5770:	8c 01       	movw	r16, r24
    5772:	c3 01       	movw	r24, r6
    5774:	b2 01       	movw	r22, r4
    5776:	2d 85       	ldd	r18, Y+13	; 0x0d
    5778:	3e 85       	ldd	r19, Y+14	; 0x0e
    577a:	4f 85       	ldd	r20, Y+15	; 0x0f
    577c:	58 89       	ldd	r21, Y+16	; 0x10
    577e:	0e 94 49 1e 	call	0x3c92	; 0x3c92 <LF>
	
			speed(-x*d, gsp[1], -z*d*v,wa);
    5782:	20 91 4d 03 	lds	r18, 0x034D
    5786:	30 91 4e 03 	lds	r19, 0x034E
    578a:	40 91 4f 03 	lds	r20, 0x034F
    578e:	50 91 50 03 	lds	r21, 0x0350
	
			if(abs(z) >= 5)  z = LF(v*5,-v*5,z);
			if(cm < 0) z *= -1;
			if(check== 12) z = 0, x *= 4;
			x/=2;
			x = LF(sp,-sp,x);
    5792:	2f a3       	std	Y+39, r18	; 0x27
    5794:	38 a7       	std	Y+40, r19	; 0x28
    5796:	49 a7       	std	Y+41, r20	; 0x29
    5798:	5a a7       	std	Y+42, r21	; 0x2a
    579a:	0e 94 37 41 	call	0x826e	; 0x826e <__fixsfsi>
	
			speed(-x*d, gsp[1], -z*d*v,wa);
    579e:	88 27       	eor	r24, r24
    57a0:	99 27       	eor	r25, r25
    57a2:	86 1b       	sub	r24, r22
    57a4:	97 0b       	sbc	r25, r23
    57a6:	82 9d       	mul	r24, r2
    57a8:	b0 01       	movw	r22, r0
    57aa:	83 9d       	mul	r24, r3
    57ac:	70 0d       	add	r23, r0
    57ae:	92 9d       	mul	r25, r2
    57b0:	70 0d       	add	r23, r0
    57b2:	11 24       	eor	r1, r1
    57b4:	88 27       	eor	r24, r24
    57b6:	77 fd       	sbrc	r23, 7
    57b8:	80 95       	com	r24
    57ba:	98 2f       	mov	r25, r24
    57bc:	0e 94 6a 41 	call	0x82d4	; 0x82d4 <__floatsisf>
    57c0:	2b 01       	movw	r4, r22
    57c2:	3c 01       	movw	r6, r24
    57c4:	d0 94       	com	r13
    57c6:	c1 94       	neg	r12
    57c8:	d1 08       	sbc	r13, r1
    57ca:	d3 94       	inc	r13
    57cc:	89 85       	ldd	r24, Y+9	; 0x09
    57ce:	9a 85       	ldd	r25, Y+10	; 0x0a
    57d0:	c8 9e       	mul	r12, r24
    57d2:	b0 01       	movw	r22, r0
    57d4:	c9 9e       	mul	r12, r25
    57d6:	70 0d       	add	r23, r0
    57d8:	d8 9e       	mul	r13, r24
    57da:	70 0d       	add	r23, r0
    57dc:	11 24       	eor	r1, r1
    57de:	88 27       	eor	r24, r24
    57e0:	77 fd       	sbrc	r23, 7
    57e2:	80 95       	com	r24
    57e4:	98 2f       	mov	r25, r24
    57e6:	0e 94 6a 41 	call	0x82d4	; 0x82d4 <__floatsisf>
    57ea:	7b 01       	movw	r14, r22
    57ec:	8c 01       	movw	r16, r24
    57ee:	60 91 5e 02 	lds	r22, 0x025E
    57f2:	70 91 5f 02 	lds	r23, 0x025F
    57f6:	88 27       	eor	r24, r24
    57f8:	77 fd       	sbrc	r23, 7
    57fa:	80 95       	com	r24
    57fc:	98 2f       	mov	r25, r24
    57fe:	0e 94 6a 41 	call	0x82d4	; 0x82d4 <__floatsisf>
    5802:	5b 01       	movw	r10, r22
    5804:	6c 01       	movw	r12, r24
    5806:	c3 01       	movw	r24, r6
    5808:	b2 01       	movw	r22, r4
    580a:	2f a1       	ldd	r18, Y+39	; 0x27
    580c:	38 a5       	ldd	r19, Y+40	; 0x28
    580e:	49 a5       	ldd	r20, Y+41	; 0x29
    5810:	5a a5       	ldd	r21, Y+42	; 0x2a
    5812:	0e 94 93 16 	call	0x2d26	; 0x2d26 <speed>

			if(!oc) oc = 1;
    5816:	80 91 38 02 	lds	r24, 0x0238
    581a:	90 91 39 02 	lds	r25, 0x0239
    581e:	00 97       	sbiw	r24, 0x00	; 0
    5820:	31 f4       	brne	.+12     	; 0x582e <CPsd+0x5a4>
    5822:	a1 e0       	ldi	r26, 0x01	; 1
    5824:	b0 e0       	ldi	r27, 0x00	; 0
    5826:	b0 93 39 02 	sts	0x0239, r27
    582a:	a0 93 38 02 	sts	0x0238, r26
			if(oc > tot) {LE return;}
    582e:	80 91 59 03 	lds	r24, 0x0359
    5832:	90 91 5a 03 	lds	r25, 0x035A
    5836:	20 91 38 02 	lds	r18, 0x0238
    583a:	30 91 39 02 	lds	r19, 0x0239
    583e:	82 17       	cp	r24, r18
    5840:	93 07       	cpc	r25, r19
    5842:	0c f0       	brlt	.+2      	; 0x5846 <CPsd+0x5bc>
    5844:	2f ce       	rjmp	.-930    	; 0x54a4 <CPsd+0x21a>
    5846:	10 92 4b 02 	sts	0x024B, r1
    584a:	10 92 4a 02 	sts	0x024A, r1
    584e:	80 e0       	ldi	r24, 0x00	; 0
    5850:	90 e0       	ldi	r25, 0x00	; 0
    5852:	dc 01       	movw	r26, r24
    5854:	80 93 93 02 	sts	0x0293, r24
    5858:	90 93 94 02 	sts	0x0294, r25
    585c:	a0 93 95 02 	sts	0x0295, r26
    5860:	b0 93 96 02 	sts	0x0296, r27
    5864:	80 91 93 02 	lds	r24, 0x0293
    5868:	90 91 94 02 	lds	r25, 0x0294
    586c:	a0 91 95 02 	lds	r26, 0x0295
    5870:	b0 91 96 02 	lds	r27, 0x0296
    5874:	80 93 1d 03 	sts	0x031D, r24
    5878:	90 93 1e 03 	sts	0x031E, r25
    587c:	a0 93 1f 03 	sts	0x031F, r26
    5880:	b0 93 20 03 	sts	0x0320, r27
    5884:	80 91 1d 03 	lds	r24, 0x031D
    5888:	90 91 1e 03 	lds	r25, 0x031E
    588c:	a0 91 1f 03 	lds	r26, 0x031F
    5890:	b0 91 20 03 	lds	r27, 0x0320
    5894:	80 93 87 02 	sts	0x0287, r24
    5898:	90 93 88 02 	sts	0x0288, r25
    589c:	a0 93 89 02 	sts	0x0289, r26
    58a0:	b0 93 8a 02 	sts	0x028A, r27
    58a4:	60 91 87 02 	lds	r22, 0x0287
    58a8:	70 91 88 02 	lds	r23, 0x0288
    58ac:	80 91 89 02 	lds	r24, 0x0289
    58b0:	90 91 8a 02 	lds	r25, 0x028A
    58b4:	0e 94 37 41 	call	0x826e	; 0x826e <__fixsfsi>
    58b8:	70 93 39 02 	sts	0x0239, r23
    58bc:	60 93 38 02 	sts	0x0238, r22
    58c0:	01 c0       	rjmp	.+2      	; 0x58c4 <CPsd+0x63a>
    58c2:	c9 01       	movw	r24, r18
		}
	}
}
    58c4:	aa 96       	adiw	r28, 0x2a	; 42
    58c6:	0f b6       	in	r0, 0x3f	; 63
    58c8:	f8 94       	cli
    58ca:	de bf       	out	0x3e, r29	; 62
    58cc:	0f be       	out	0x3f, r0	; 63
    58ce:	cd bf       	out	0x3d, r28	; 61
    58d0:	cf 91       	pop	r28
    58d2:	df 91       	pop	r29
    58d4:	1f 91       	pop	r17
    58d6:	0f 91       	pop	r16
    58d8:	ff 90       	pop	r15
    58da:	ef 90       	pop	r14
    58dc:	df 90       	pop	r13
    58de:	cf 90       	pop	r12
    58e0:	bf 90       	pop	r11
    58e2:	af 90       	pop	r10
    58e4:	9f 90       	pop	r9
    58e6:	8f 90       	pop	r8
    58e8:	7f 90       	pop	r7
    58ea:	6f 90       	pop	r6
    58ec:	5f 90       	pop	r5
    58ee:	4f 90       	pop	r4
    58f0:	3f 90       	pop	r3
    58f2:	2f 90       	pop	r2
    58f4:	08 95       	ret

000058f6 <Drift>:

void Drift(int x, int y, int z, int sp ,int ac)
{
    58f6:	2f 92       	push	r2
    58f8:	3f 92       	push	r3
    58fa:	4f 92       	push	r4
    58fc:	5f 92       	push	r5
    58fe:	6f 92       	push	r6
    5900:	7f 92       	push	r7
    5902:	8f 92       	push	r8
    5904:	9f 92       	push	r9
    5906:	af 92       	push	r10
    5908:	bf 92       	push	r11
    590a:	cf 92       	push	r12
    590c:	df 92       	push	r13
    590e:	ef 92       	push	r14
    5910:	ff 92       	push	r15
    5912:	0f 93       	push	r16
    5914:	1f 93       	push	r17
    5916:	df 93       	push	r29
    5918:	cf 93       	push	r28
    591a:	00 d0       	rcall	.+0      	; 0x591c <Drift+0x26>
    591c:	00 d0       	rcall	.+0      	; 0x591e <Drift+0x28>
    591e:	00 d0       	rcall	.+0      	; 0x5920 <Drift+0x2a>
    5920:	cd b7       	in	r28, 0x3d	; 61
    5922:	de b7       	in	r29, 0x3e	; 62
    5924:	5c 01       	movw	r10, r24
    5926:	4b 01       	movw	r8, r22
    5928:	3a 01       	movw	r6, r20
    592a:	19 01       	movw	r2, r18
    592c:	1a 83       	std	Y+2, r17	; 0x02
    592e:	09 83       	std	Y+1, r16	; 0x01
	ginit("Drift");
    5930:	10 92 4b 02 	sts	0x024B, r1
    5934:	10 92 4a 02 	sts	0x024A, r1
    5938:	10 92 11 02 	sts	0x0211, r1
    593c:	10 92 10 02 	sts	0x0210, r1
    5940:	80 91 10 02 	lds	r24, 0x0210
    5944:	90 91 11 02 	lds	r25, 0x0211
    5948:	90 93 5a 03 	sts	0x035A, r25
    594c:	80 93 59 03 	sts	0x0359, r24
    5950:	80 91 59 03 	lds	r24, 0x0359
    5954:	90 91 5a 03 	lds	r25, 0x035A
    5958:	90 93 39 02 	sts	0x0239, r25
    595c:	80 93 38 02 	sts	0x0238, r24
    5960:	60 e0       	ldi	r22, 0x00	; 0
    5962:	70 e0       	ldi	r23, 0x00	; 0
    5964:	80 e0       	ldi	r24, 0x00	; 0
    5966:	90 e0       	ldi	r25, 0x00	; 0
    5968:	dc 01       	movw	r26, r24
    596a:	9b 01       	movw	r18, r22
    596c:	22 0f       	add	r18, r18
    596e:	33 1f       	adc	r19, r19
    5970:	22 0f       	add	r18, r18
    5972:	33 1f       	adc	r19, r19
    5974:	f9 01       	movw	r30, r18
    5976:	e7 5b       	subi	r30, 0xB7	; 183
    5978:	fc 4f       	sbci	r31, 0xFC	; 252
    597a:	80 83       	st	Z, r24
    597c:	91 83       	std	Z+1, r25	; 0x01
    597e:	a2 83       	std	Z+2, r26	; 0x02
    5980:	b3 83       	std	Z+3, r27	; 0x03
    5982:	e0 80       	ld	r14, Z
    5984:	f1 80       	ldd	r15, Z+1	; 0x01
    5986:	02 81       	ldd	r16, Z+2	; 0x02
    5988:	13 81       	ldd	r17, Z+3	; 0x03
    598a:	f9 01       	movw	r30, r18
    598c:	e9 5c       	subi	r30, 0xC9	; 201
    598e:	fc 4f       	sbci	r31, 0xFC	; 252
    5990:	e0 82       	st	Z, r14
    5992:	f1 82       	std	Z+1, r15	; 0x01
    5994:	02 83       	std	Z+2, r16	; 0x02
    5996:	13 83       	std	Z+3, r17	; 0x03
    5998:	6f 5f       	subi	r22, 0xFF	; 255
    599a:	7f 4f       	sbci	r23, 0xFF	; 255
    599c:	64 30       	cpi	r22, 0x04	; 4
    599e:	71 05       	cpc	r23, r1
    59a0:	21 f7       	brne	.-56     	; 0x596a <Drift+0x74>
    59a2:	00 d0       	rcall	.+0      	; 0x59a4 <Drift+0xae>
    59a4:	00 d0       	rcall	.+0      	; 0x59a6 <Drift+0xb0>
    59a6:	00 d0       	rcall	.+0      	; 0x59a8 <Drift+0xb2>
    59a8:	ed b7       	in	r30, 0x3d	; 61
    59aa:	fe b7       	in	r31, 0x3e	; 62
    59ac:	31 96       	adiw	r30, 0x01	; 1
    59ae:	01 e2       	ldi	r16, 0x21	; 33
    59b0:	13 e0       	ldi	r17, 0x03	; 3
    59b2:	ad b7       	in	r26, 0x3d	; 61
    59b4:	be b7       	in	r27, 0x3e	; 62
    59b6:	12 96       	adiw	r26, 0x02	; 2
    59b8:	1c 93       	st	X, r17
    59ba:	0e 93       	st	-X, r16
    59bc:	11 97       	sbiw	r26, 0x01	; 1
    59be:	84 eb       	ldi	r24, 0xB4	; 180
    59c0:	91 e0       	ldi	r25, 0x01	; 1
    59c2:	93 83       	std	Z+3, r25	; 0x03
    59c4:	82 83       	std	Z+2, r24	; 0x02
    59c6:	8f ed       	ldi	r24, 0xDF	; 223
    59c8:	91 e0       	ldi	r25, 0x01	; 1
    59ca:	95 83       	std	Z+5, r25	; 0x05
    59cc:	84 83       	std	Z+4, r24	; 0x04
    59ce:	0e 94 20 40 	call	0x8040	; 0x8040 <sprintf>
    59d2:	ed b7       	in	r30, 0x3d	; 61
    59d4:	fe b7       	in	r31, 0x3e	; 62
    59d6:	36 96       	adiw	r30, 0x06	; 6
    59d8:	0f b6       	in	r0, 0x3f	; 63
    59da:	f8 94       	cli
    59dc:	fe bf       	out	0x3e, r31	; 62
    59de:	0f be       	out	0x3f, r0	; 63
    59e0:	ed bf       	out	0x3d, r30	; 61
    59e2:	80 e0       	ldi	r24, 0x00	; 0
    59e4:	67 e0       	ldi	r22, 0x07	; 7
    59e6:	a8 01       	movw	r20, r16
    59e8:	0e 94 67 01 	call	0x2ce	; 0x2ce <LCD>
	double na = 0;
	
	O(x,y,z,0);
    59ec:	c5 01       	movw	r24, r10
    59ee:	b4 01       	movw	r22, r8
    59f0:	a3 01       	movw	r20, r6
    59f2:	20 e0       	ldi	r18, 0x00	; 0
    59f4:	30 e0       	ldi	r19, 0x00	; 0
    59f6:	81 01       	movw	r16, r2
    59f8:	e9 80       	ldd	r14, Y+1	; 0x01
    59fa:	fa 80       	ldd	r15, Y+2	; 0x02
    59fc:	0e 94 11 19 	call	0x3222	; 0x3222 <Omni>
	sp *= fabs(sp/hypot(msp[0],msp[1]));
    5a00:	b1 01       	movw	r22, r2
    5a02:	88 27       	eor	r24, r24
    5a04:	77 fd       	sbrc	r23, 7
    5a06:	80 95       	com	r24
    5a08:	98 2f       	mov	r25, r24
    5a0a:	0e 94 6a 41 	call	0x82d4	; 0x82d4 <__floatsisf>
    5a0e:	7b 01       	movw	r14, r22
    5a10:	8c 01       	movw	r16, r24
    5a12:	60 91 37 03 	lds	r22, 0x0337
    5a16:	70 91 38 03 	lds	r23, 0x0338
    5a1a:	80 91 39 03 	lds	r24, 0x0339
    5a1e:	90 91 3a 03 	lds	r25, 0x033A
    5a22:	20 91 3b 03 	lds	r18, 0x033B
    5a26:	30 91 3c 03 	lds	r19, 0x033C
    5a2a:	40 91 3d 03 	lds	r20, 0x033D
    5a2e:	50 91 3e 03 	lds	r21, 0x033E
    5a32:	0e 94 a0 42 	call	0x8540	; 0x8540 <hypot>
    5a36:	9b 01       	movw	r18, r22
    5a38:	ac 01       	movw	r20, r24
    5a3a:	c8 01       	movw	r24, r16
    5a3c:	b7 01       	movw	r22, r14
    5a3e:	0e 94 cf 40 	call	0x819e	; 0x819e <__divsf3>
    5a42:	9b 01       	movw	r18, r22
    5a44:	ac 01       	movw	r20, r24
    5a46:	5f 77       	andi	r21, 0x7F	; 127
    5a48:	c8 01       	movw	r24, r16
    5a4a:	b7 01       	movw	r22, r14
    5a4c:	0e 94 2e 43 	call	0x865c	; 0x865c <__mulsf3>
    5a50:	0e 94 37 41 	call	0x826e	; 0x826e <__fixsfsi>
    5a54:	7b 01       	movw	r14, r22
    5a56:	8c 01       	movw	r16, r24
	tot = O(x,y,z,0);
    5a58:	c5 01       	movw	r24, r10
    5a5a:	b4 01       	movw	r22, r8
    5a5c:	a3 01       	movw	r20, r6
    5a5e:	20 e0       	ldi	r18, 0x00	; 0
    5a60:	30 e0       	ldi	r19, 0x00	; 0
    5a62:	87 01       	movw	r16, r14
    5a64:	e9 80       	ldd	r14, Y+1	; 0x01
    5a66:	fa 80       	ldd	r15, Y+2	; 0x02
    5a68:	0e 94 11 19 	call	0x3222	; 0x3222 <Omni>
    5a6c:	90 93 5a 03 	sts	0x035A, r25
    5a70:	80 93 59 03 	sts	0x0359, r24
}

void Drift(int x, int y, int z, int sp ,int ac)
{
	ginit("Drift");
	double na = 0;
    5a74:	99 24       	eor	r9, r9
    5a76:	88 24       	eor	r8, r8
    5a78:	77 24       	eor	r7, r7
    5a7a:	66 24       	eor	r6, r6
	O(x,y,z,0);
	sp *= fabs(sp/hypot(msp[0],msp[1]));
	tot = O(x,y,z,0);
	while(1)
	{
		if(!gtc)
    5a7c:	80 91 10 02 	lds	r24, 0x0210
    5a80:	90 91 11 02 	lds	r25, 0x0211
    5a84:	00 97       	sbiw	r24, 0x00	; 0
    5a86:	d1 f7       	brne	.-12     	; 0x5a7c <Drift+0x186>
		{
			gtc=1;			
    5a88:	21 e0       	ldi	r18, 0x01	; 1
    5a8a:	30 e0       	ldi	r19, 0x00	; 0
    5a8c:	30 93 11 02 	sts	0x0211, r19
    5a90:	20 93 10 02 	sts	0x0210, r18
			OS			
    5a94:	80 91 59 03 	lds	r24, 0x0359
    5a98:	90 91 5a 03 	lds	r25, 0x035A
    5a9c:	69 81       	ldd	r22, Y+1	; 0x01
    5a9e:	7a 81       	ldd	r23, Y+2	; 0x02
    5aa0:	0e 94 00 1a 	call	0x3400	; 0x3400 <OmniSet>

			na += -gsp[2]/100;
    5aa4:	60 91 51 03 	lds	r22, 0x0351
    5aa8:	70 91 52 03 	lds	r23, 0x0352
    5aac:	80 91 53 03 	lds	r24, 0x0353
    5ab0:	90 91 54 03 	lds	r25, 0x0354

			if(!oc)oc=1;
    5ab4:	20 91 38 02 	lds	r18, 0x0238
    5ab8:	30 91 39 02 	lds	r19, 0x0239
    5abc:	21 15       	cp	r18, r1
    5abe:	31 05       	cpc	r19, r1
    5ac0:	31 f4       	brne	.+12     	; 0x5ace <Drift+0x1d8>
    5ac2:	a1 e0       	ldi	r26, 0x01	; 1
    5ac4:	b0 e0       	ldi	r27, 0x00	; 0
    5ac6:	b0 93 39 02 	sts	0x0239, r27
    5aca:	a0 93 38 02 	sts	0x0238, r26
			if(oc>tot){LE return;}
    5ace:	20 91 59 03 	lds	r18, 0x0359
    5ad2:	30 91 5a 03 	lds	r19, 0x035A
    5ad6:	40 91 38 02 	lds	r20, 0x0238
    5ada:	50 91 39 02 	lds	r21, 0x0239
    5ade:	24 17       	cp	r18, r20
    5ae0:	35 07       	cpc	r19, r21
    5ae2:	0c f0       	brlt	.+2      	; 0x5ae6 <Drift+0x1f0>
    5ae4:	56 c0       	rjmp	.+172    	; 0x5b92 <Drift+0x29c>
    5ae6:	10 92 4b 02 	sts	0x024B, r1
    5aea:	10 92 4a 02 	sts	0x024A, r1
    5aee:	80 e0       	ldi	r24, 0x00	; 0
    5af0:	90 e0       	ldi	r25, 0x00	; 0
    5af2:	dc 01       	movw	r26, r24
    5af4:	80 93 93 02 	sts	0x0293, r24
    5af8:	90 93 94 02 	sts	0x0294, r25
    5afc:	a0 93 95 02 	sts	0x0295, r26
    5b00:	b0 93 96 02 	sts	0x0296, r27
    5b04:	80 91 93 02 	lds	r24, 0x0293
    5b08:	90 91 94 02 	lds	r25, 0x0294
    5b0c:	a0 91 95 02 	lds	r26, 0x0295
    5b10:	b0 91 96 02 	lds	r27, 0x0296
    5b14:	80 93 1d 03 	sts	0x031D, r24
    5b18:	90 93 1e 03 	sts	0x031E, r25
    5b1c:	a0 93 1f 03 	sts	0x031F, r26
    5b20:	b0 93 20 03 	sts	0x0320, r27
    5b24:	80 91 1d 03 	lds	r24, 0x031D
    5b28:	90 91 1e 03 	lds	r25, 0x031E
    5b2c:	a0 91 1f 03 	lds	r26, 0x031F
    5b30:	b0 91 20 03 	lds	r27, 0x0320
    5b34:	80 93 87 02 	sts	0x0287, r24
    5b38:	90 93 88 02 	sts	0x0288, r25
    5b3c:	a0 93 89 02 	sts	0x0289, r26
    5b40:	b0 93 8a 02 	sts	0x028A, r27
    5b44:	60 91 87 02 	lds	r22, 0x0287
    5b48:	70 91 88 02 	lds	r23, 0x0288
    5b4c:	80 91 89 02 	lds	r24, 0x0289
    5b50:	90 91 8a 02 	lds	r25, 0x028A
    5b54:	0e 94 37 41 	call	0x826e	; 0x826e <__fixsfsi>
    5b58:	70 93 39 02 	sts	0x0239, r23
    5b5c:	60 93 38 02 	sts	0x0238, r22
			speed(gsp[0],gsp[1],gsp[2],wa+na);
		}
	}
}
    5b60:	26 96       	adiw	r28, 0x06	; 6
    5b62:	0f b6       	in	r0, 0x3f	; 63
    5b64:	f8 94       	cli
    5b66:	de bf       	out	0x3e, r29	; 62
    5b68:	0f be       	out	0x3f, r0	; 63
    5b6a:	cd bf       	out	0x3d, r28	; 61
    5b6c:	cf 91       	pop	r28
    5b6e:	df 91       	pop	r29
    5b70:	1f 91       	pop	r17
    5b72:	0f 91       	pop	r16
    5b74:	ff 90       	pop	r15
    5b76:	ef 90       	pop	r14
    5b78:	df 90       	pop	r13
    5b7a:	cf 90       	pop	r12
    5b7c:	bf 90       	pop	r11
    5b7e:	af 90       	pop	r10
    5b80:	9f 90       	pop	r9
    5b82:	8f 90       	pop	r8
    5b84:	7f 90       	pop	r7
    5b86:	6f 90       	pop	r6
    5b88:	5f 90       	pop	r5
    5b8a:	4f 90       	pop	r4
    5b8c:	3f 90       	pop	r3
    5b8e:	2f 90       	pop	r2
    5b90:	08 95       	ret
		if(!gtc)
		{
			gtc=1;			
			OS			

			na += -gsp[2]/100;
    5b92:	90 58       	subi	r25, 0x80	; 128
    5b94:	20 e0       	ldi	r18, 0x00	; 0
    5b96:	30 e0       	ldi	r19, 0x00	; 0
    5b98:	48 ec       	ldi	r20, 0xC8	; 200
    5b9a:	52 e4       	ldi	r21, 0x42	; 66
    5b9c:	0e 94 cf 40 	call	0x819e	; 0x819e <__divsf3>
    5ba0:	9b 01       	movw	r18, r22
    5ba2:	ac 01       	movw	r20, r24
    5ba4:	d4 01       	movw	r26, r8
    5ba6:	f3 01       	movw	r30, r6
    5ba8:	6b 2f       	mov	r22, r27
    5baa:	78 2d       	mov	r23, r8
    5bac:	8f 2f       	mov	r24, r31
    5bae:	96 2d       	mov	r25, r6
    5bb0:	0e 94 51 40 	call	0x80a2	; 0x80a2 <__addsf3>
    5bb4:	96 2e       	mov	r9, r22
    5bb6:	87 2e       	mov	r8, r23
    5bb8:	78 2e       	mov	r7, r24
    5bba:	69 2e       	mov	r6, r25

			if(!oc)oc=1;
			if(oc>tot){LE return;}
			speed(gsp[0],gsp[1],gsp[2],wa+na);
    5bbc:	20 90 49 03 	lds	r2, 0x0349
    5bc0:	30 90 4a 03 	lds	r3, 0x034A
    5bc4:	40 90 4b 03 	lds	r4, 0x034B
    5bc8:	50 90 4c 03 	lds	r5, 0x034C
    5bcc:	80 91 4d 03 	lds	r24, 0x034D
    5bd0:	90 91 4e 03 	lds	r25, 0x034E
    5bd4:	a0 91 4f 03 	lds	r26, 0x034F
    5bd8:	b0 91 50 03 	lds	r27, 0x0350
    5bdc:	8b 83       	std	Y+3, r24	; 0x03
    5bde:	9c 83       	std	Y+4, r25	; 0x04
    5be0:	ad 83       	std	Y+5, r26	; 0x05
    5be2:	be 83       	std	Y+6, r27	; 0x06
    5be4:	e0 90 51 03 	lds	r14, 0x0351
    5be8:	f0 90 52 03 	lds	r15, 0x0352
    5bec:	00 91 53 03 	lds	r16, 0x0353
    5bf0:	10 91 54 03 	lds	r17, 0x0354
    5bf4:	60 91 5e 02 	lds	r22, 0x025E
    5bf8:	70 91 5f 02 	lds	r23, 0x025F
    5bfc:	88 27       	eor	r24, r24
    5bfe:	77 fd       	sbrc	r23, 7
    5c00:	80 95       	com	r24
    5c02:	98 2f       	mov	r25, r24
    5c04:	0e 94 6a 41 	call	0x82d4	; 0x82d4 <__floatsisf>
    5c08:	d4 01       	movw	r26, r8
    5c0a:	f3 01       	movw	r30, r6
    5c0c:	2b 2f       	mov	r18, r27
    5c0e:	3a 2f       	mov	r19, r26
    5c10:	4f 2f       	mov	r20, r31
    5c12:	5e 2f       	mov	r21, r30
    5c14:	0e 94 51 40 	call	0x80a2	; 0x80a2 <__addsf3>
    5c18:	5b 01       	movw	r10, r22
    5c1a:	6c 01       	movw	r12, r24
    5c1c:	c2 01       	movw	r24, r4
    5c1e:	b1 01       	movw	r22, r2
    5c20:	2b 81       	ldd	r18, Y+3	; 0x03
    5c22:	3c 81       	ldd	r19, Y+4	; 0x04
    5c24:	4d 81       	ldd	r20, Y+5	; 0x05
    5c26:	5e 81       	ldd	r21, Y+6	; 0x06
    5c28:	0e 94 93 16 	call	0x2d26	; 0x2d26 <speed>
    5c2c:	27 cf       	rjmp	.-434    	; 0x5a7c <Drift+0x186>

00005c2e <Od2>:
	}
}


void Od2(int x, int y, int z, int sp ,int ac, int zsp, int zac)
{
    5c2e:	2f 92       	push	r2
    5c30:	3f 92       	push	r3
    5c32:	4f 92       	push	r4
    5c34:	5f 92       	push	r5
    5c36:	6f 92       	push	r6
    5c38:	7f 92       	push	r7
    5c3a:	8f 92       	push	r8
    5c3c:	9f 92       	push	r9
    5c3e:	af 92       	push	r10
    5c40:	bf 92       	push	r11
    5c42:	cf 92       	push	r12
    5c44:	df 92       	push	r13
    5c46:	ef 92       	push	r14
    5c48:	ff 92       	push	r15
    5c4a:	0f 93       	push	r16
    5c4c:	1f 93       	push	r17
    5c4e:	df 93       	push	r29
    5c50:	cf 93       	push	r28
    5c52:	cd b7       	in	r28, 0x3d	; 61
    5c54:	de b7       	in	r29, 0x3e	; 62
    5c56:	2c 97       	sbiw	r28, 0x0c	; 12
    5c58:	0f b6       	in	r0, 0x3f	; 63
    5c5a:	f8 94       	cli
    5c5c:	de bf       	out	0x3e, r29	; 62
    5c5e:	0f be       	out	0x3f, r0	; 63
    5c60:	cd bf       	out	0x3d, r28	; 61
    5c62:	2c 01       	movw	r4, r24
    5c64:	4b 01       	movw	r8, r22
    5c66:	5a 01       	movw	r10, r20
    5c68:	39 01       	movw	r6, r18
    5c6a:	1a 83       	std	Y+2, r17	; 0x02
    5c6c:	09 83       	std	Y+1, r16	; 0x01
    5c6e:	87 01       	movw	r16, r14
    5c70:	dc 82       	std	Y+4, r13	; 0x04
    5c72:	cb 82       	std	Y+3, r12	; 0x03
	ginit("Od2");
    5c74:	10 92 4b 02 	sts	0x024B, r1
    5c78:	10 92 4a 02 	sts	0x024A, r1
    5c7c:	10 92 11 02 	sts	0x0211, r1
    5c80:	10 92 10 02 	sts	0x0210, r1
    5c84:	80 91 10 02 	lds	r24, 0x0210
    5c88:	90 91 11 02 	lds	r25, 0x0211
    5c8c:	90 93 5a 03 	sts	0x035A, r25
    5c90:	80 93 59 03 	sts	0x0359, r24
    5c94:	80 91 59 03 	lds	r24, 0x0359
    5c98:	90 91 5a 03 	lds	r25, 0x035A
    5c9c:	90 93 39 02 	sts	0x0239, r25
    5ca0:	80 93 38 02 	sts	0x0238, r24
    5ca4:	60 e0       	ldi	r22, 0x00	; 0
    5ca6:	70 e0       	ldi	r23, 0x00	; 0
    5ca8:	80 e0       	ldi	r24, 0x00	; 0
    5caa:	90 e0       	ldi	r25, 0x00	; 0
    5cac:	dc 01       	movw	r26, r24
    5cae:	9b 01       	movw	r18, r22
    5cb0:	22 0f       	add	r18, r18
    5cb2:	33 1f       	adc	r19, r19
    5cb4:	22 0f       	add	r18, r18
    5cb6:	33 1f       	adc	r19, r19
    5cb8:	f9 01       	movw	r30, r18
    5cba:	e7 5b       	subi	r30, 0xB7	; 183
    5cbc:	fc 4f       	sbci	r31, 0xFC	; 252
    5cbe:	80 83       	st	Z, r24
    5cc0:	91 83       	std	Z+1, r25	; 0x01
    5cc2:	a2 83       	std	Z+2, r26	; 0x02
    5cc4:	b3 83       	std	Z+3, r27	; 0x03
    5cc6:	c0 80       	ld	r12, Z
    5cc8:	d1 80       	ldd	r13, Z+1	; 0x01
    5cca:	e2 80       	ldd	r14, Z+2	; 0x02
    5ccc:	f3 80       	ldd	r15, Z+3	; 0x03
    5cce:	f9 01       	movw	r30, r18
    5cd0:	e9 5c       	subi	r30, 0xC9	; 201
    5cd2:	fc 4f       	sbci	r31, 0xFC	; 252
    5cd4:	c0 82       	st	Z, r12
    5cd6:	d1 82       	std	Z+1, r13	; 0x01
    5cd8:	e2 82       	std	Z+2, r14	; 0x02
    5cda:	f3 82       	std	Z+3, r15	; 0x03
    5cdc:	6f 5f       	subi	r22, 0xFF	; 255
    5cde:	7f 4f       	sbci	r23, 0xFF	; 255
    5ce0:	64 30       	cpi	r22, 0x04	; 4
    5ce2:	71 05       	cpc	r23, r1
    5ce4:	21 f7       	brne	.-56     	; 0x5cae <Od2+0x80>
    5ce6:	00 d0       	rcall	.+0      	; 0x5ce8 <Od2+0xba>
    5ce8:	00 d0       	rcall	.+0      	; 0x5cea <Od2+0xbc>
    5cea:	00 d0       	rcall	.+0      	; 0x5cec <Od2+0xbe>
    5cec:	ed b7       	in	r30, 0x3d	; 61
    5cee:	fe b7       	in	r31, 0x3e	; 62
    5cf0:	31 96       	adiw	r30, 0x01	; 1
    5cf2:	61 e2       	ldi	r22, 0x21	; 33
    5cf4:	e6 2e       	mov	r14, r22
    5cf6:	63 e0       	ldi	r22, 0x03	; 3
    5cf8:	f6 2e       	mov	r15, r22
    5cfa:	ad b7       	in	r26, 0x3d	; 61
    5cfc:	be b7       	in	r27, 0x3e	; 62
    5cfe:	12 96       	adiw	r26, 0x02	; 2
    5d00:	fc 92       	st	X, r15
    5d02:	ee 92       	st	-X, r14
    5d04:	11 97       	sbiw	r26, 0x01	; 1
    5d06:	84 eb       	ldi	r24, 0xB4	; 180
    5d08:	91 e0       	ldi	r25, 0x01	; 1
    5d0a:	93 83       	std	Z+3, r25	; 0x03
    5d0c:	82 83       	std	Z+2, r24	; 0x02
    5d0e:	85 ee       	ldi	r24, 0xE5	; 229
    5d10:	91 e0       	ldi	r25, 0x01	; 1
    5d12:	95 83       	std	Z+5, r25	; 0x05
    5d14:	84 83       	std	Z+4, r24	; 0x04
    5d16:	0e 94 20 40 	call	0x8040	; 0x8040 <sprintf>
    5d1a:	ed b7       	in	r30, 0x3d	; 61
    5d1c:	fe b7       	in	r31, 0x3e	; 62
    5d1e:	36 96       	adiw	r30, 0x06	; 6
    5d20:	0f b6       	in	r0, 0x3f	; 63
    5d22:	f8 94       	cli
    5d24:	fe bf       	out	0x3e, r31	; 62
    5d26:	0f be       	out	0x3f, r0	; 63
    5d28:	ed bf       	out	0x3d, r30	; 61
    5d2a:	80 e0       	ldi	r24, 0x00	; 0
    5d2c:	67 e0       	ldi	r22, 0x07	; 7
    5d2e:	a7 01       	movw	r20, r14
    5d30:	0e 94 67 01 	call	0x2ce	; 0x2ce <LCD>
	double na = 0,add =0;
	
	int cnt2 = Omni(0,0,z,0,zsp,zac);
    5d34:	80 e0       	ldi	r24, 0x00	; 0
    5d36:	90 e0       	ldi	r25, 0x00	; 0
    5d38:	60 e0       	ldi	r22, 0x00	; 0
    5d3a:	70 e0       	ldi	r23, 0x00	; 0
    5d3c:	a5 01       	movw	r20, r10
    5d3e:	20 e0       	ldi	r18, 0x00	; 0
    5d40:	30 e0       	ldi	r19, 0x00	; 0
    5d42:	eb 80       	ldd	r14, Y+3	; 0x03
    5d44:	fc 80       	ldd	r15, Y+4	; 0x04
    5d46:	0e 94 11 19 	call	0x3222	; 0x3222 <Omni>
    5d4a:	1c 01       	movw	r2, r24
	double zmsp = msp[2];
    5d4c:	a0 90 3f 03 	lds	r10, 0x033F
    5d50:	b0 90 40 03 	lds	r11, 0x0340
    5d54:	c0 90 41 03 	lds	r12, 0x0341
    5d58:	d0 90 42 03 	lds	r13, 0x0342

	int cnt1 = Omni(x,y,0,0,sp,ac);
    5d5c:	c2 01       	movw	r24, r4
    5d5e:	b4 01       	movw	r22, r8
    5d60:	40 e0       	ldi	r20, 0x00	; 0
    5d62:	50 e0       	ldi	r21, 0x00	; 0
    5d64:	20 e0       	ldi	r18, 0x00	; 0
    5d66:	30 e0       	ldi	r19, 0x00	; 0
    5d68:	83 01       	movw	r16, r6
    5d6a:	e9 80       	ldd	r14, Y+1	; 0x01
    5d6c:	fa 80       	ldd	r15, Y+2	; 0x02
    5d6e:	0e 94 11 19 	call	0x3222	; 0x3222 <Omni>
    5d72:	2c 01       	movw	r4, r24
	
	sp *= fabs(sp/hypot(msp[0],msp[1]));
    5d74:	80 91 37 03 	lds	r24, 0x0337
    5d78:	90 91 38 03 	lds	r25, 0x0338
    5d7c:	a0 91 39 03 	lds	r26, 0x0339
    5d80:	b0 91 3a 03 	lds	r27, 0x033A
    5d84:	80 91 3b 03 	lds	r24, 0x033B
    5d88:	90 91 3c 03 	lds	r25, 0x033C
    5d8c:	a0 91 3d 03 	lds	r26, 0x033D
    5d90:	b0 91 3e 03 	lds	r27, 0x033E
	
	msp[2] = zmsp;
    5d94:	e7 e3       	ldi	r30, 0x37	; 55
    5d96:	f3 e0       	ldi	r31, 0x03	; 3
    5d98:	a0 86       	std	Z+8, r10	; 0x08
    5d9a:	b1 86       	std	Z+9, r11	; 0x09
    5d9c:	c2 86       	std	Z+10, r12	; 0x0a
    5d9e:	d3 86       	std	Z+11, r13	; 0x0b


void Od2(int x, int y, int z, int sp ,int ac, int zsp, int zac)
{
	ginit("Od2");
	double na = 0,add =0;
    5da0:	0f 2e       	mov	r0, r31
    5da2:	f0 e0       	ldi	r31, 0x00	; 0
    5da4:	6f 2e       	mov	r6, r31
    5da6:	f0 e0       	ldi	r31, 0x00	; 0
    5da8:	7f 2e       	mov	r7, r31
    5daa:	f0 e0       	ldi	r31, 0x00	; 0
    5dac:	8f 2e       	mov	r8, r31
    5dae:	f0 e0       	ldi	r31, 0x00	; 0
    5db0:	9f 2e       	mov	r9, r31
    5db2:	f0 2d       	mov	r31, r0
	
	msp[2] = zmsp;
	
	while(1)
	{
		OmniSet(cnt2,zac);
    5db4:	c1 01       	movw	r24, r2
    5db6:	6b 81       	ldd	r22, Y+3	; 0x03
    5db8:	7c 81       	ldd	r23, Y+4	; 0x04
    5dba:	0e 94 00 1a 	call	0x3400	; 0x3400 <OmniSet>
		double zgsp = gsp[2];
    5dbe:	e0 90 51 03 	lds	r14, 0x0351
    5dc2:	f0 90 52 03 	lds	r15, 0x0352
    5dc6:	00 91 53 03 	lds	r16, 0x0353
    5dca:	10 91 54 03 	lds	r17, 0x0354
		OmniSet(cnt1,ac);
    5dce:	c2 01       	movw	r24, r4
    5dd0:	69 81       	ldd	r22, Y+1	; 0x01
    5dd2:	7a 81       	ldd	r23, Y+2	; 0x02
    5dd4:	0e 94 00 1a 	call	0x3400	; 0x3400 <OmniSet>
		
		if(!gtc)
    5dd8:	80 91 10 02 	lds	r24, 0x0210
    5ddc:	90 91 11 02 	lds	r25, 0x0211
    5de0:	00 97       	sbiw	r24, 0x00	; 0
    5de2:	41 f7       	brne	.-48     	; 0x5db4 <Od2+0x186>
	msp[2] = zmsp;
	
	while(1)
	{
		OmniSet(cnt2,zac);
		double zgsp = gsp[2];
    5de4:	7e 2d       	mov	r23, r14
    5de6:	6f 2d       	mov	r22, r15
    5de8:	50 2f       	mov	r21, r16
    5dea:	41 2f       	mov	r20, r17
		OmniSet(cnt1,ac);
		
		if(!gtc)
		{
			gtc=1;		
    5dec:	81 e0       	ldi	r24, 0x01	; 1
    5dee:	90 e0       	ldi	r25, 0x00	; 0
    5df0:	90 93 11 02 	sts	0x0211, r25
    5df4:	80 93 10 02 	sts	0x0210, r24
			
			gtc = 1;
    5df8:	90 93 11 02 	sts	0x0211, r25
    5dfc:	80 93 10 02 	sts	0x0210, r24
			add += zgsp * 1.747/100;
			na = -add/cha/100;
			

			if(!oc)oc=1;
    5e00:	80 91 38 02 	lds	r24, 0x0238
    5e04:	90 91 39 02 	lds	r25, 0x0239
    5e08:	00 97       	sbiw	r24, 0x00	; 0
    5e0a:	31 f4       	brne	.+12     	; 0x5e18 <Od2+0x1ea>
    5e0c:	a1 e0       	ldi	r26, 0x01	; 1
    5e0e:	b0 e0       	ldi	r27, 0x00	; 0
    5e10:	b0 93 39 02 	sts	0x0239, r27
    5e14:	a0 93 38 02 	sts	0x0238, r26
			if(oc>cnt1){gsp[1] = gsp[0] = 0;}
    5e18:	20 91 38 02 	lds	r18, 0x0238
    5e1c:	30 91 39 02 	lds	r19, 0x0239
    5e20:	42 16       	cp	r4, r18
    5e22:	53 06       	cpc	r5, r19
    5e24:	dc f4       	brge	.+54     	; 0x5e5c <Od2+0x22e>
    5e26:	80 e0       	ldi	r24, 0x00	; 0
    5e28:	90 e0       	ldi	r25, 0x00	; 0
    5e2a:	dc 01       	movw	r26, r24
    5e2c:	80 93 49 03 	sts	0x0349, r24
    5e30:	90 93 4a 03 	sts	0x034A, r25
    5e34:	a0 93 4b 03 	sts	0x034B, r26
    5e38:	b0 93 4c 03 	sts	0x034C, r27
    5e3c:	80 91 49 03 	lds	r24, 0x0349
    5e40:	90 91 4a 03 	lds	r25, 0x034A
    5e44:	a0 91 4b 03 	lds	r26, 0x034B
    5e48:	b0 91 4c 03 	lds	r27, 0x034C
    5e4c:	80 93 4d 03 	sts	0x034D, r24
    5e50:	90 93 4e 03 	sts	0x034E, r25
    5e54:	a0 93 4f 03 	sts	0x034F, r26
    5e58:	b0 93 50 03 	sts	0x0350, r27
			if(oc>cnt2){zgsp = 0;}
    5e5c:	22 16       	cp	r2, r18
    5e5e:	33 06       	cpc	r3, r19
    5e60:	54 f4       	brge	.+20     	; 0x5e76 <Od2+0x248>
    5e62:	0f 2e       	mov	r0, r31
    5e64:	f0 e0       	ldi	r31, 0x00	; 0
    5e66:	ef 2e       	mov	r14, r31
    5e68:	f0 e0       	ldi	r31, 0x00	; 0
    5e6a:	ff 2e       	mov	r15, r31
    5e6c:	f0 e0       	ldi	r31, 0x00	; 0
    5e6e:	0f 2f       	mov	r16, r31
    5e70:	f0 e0       	ldi	r31, 0x00	; 0
    5e72:	1f 2f       	mov	r17, r31
    5e74:	f0 2d       	mov	r31, r0
			if(oc>cnt1 && oc > cnt2){LE return;}
    5e76:	42 16       	cp	r4, r18
    5e78:	53 06       	cpc	r5, r19
    5e7a:	0c f0       	brlt	.+2      	; 0x5e7e <Od2+0x250>
    5e7c:	5a c0       	rjmp	.+180    	; 0x5f32 <Od2+0x304>
    5e7e:	22 16       	cp	r2, r18
    5e80:	33 06       	cpc	r3, r19
    5e82:	0c f0       	brlt	.+2      	; 0x5e86 <Od2+0x258>
    5e84:	56 c0       	rjmp	.+172    	; 0x5f32 <Od2+0x304>
    5e86:	10 92 4b 02 	sts	0x024B, r1
    5e8a:	10 92 4a 02 	sts	0x024A, r1
    5e8e:	80 e0       	ldi	r24, 0x00	; 0
    5e90:	90 e0       	ldi	r25, 0x00	; 0
    5e92:	dc 01       	movw	r26, r24
    5e94:	80 93 93 02 	sts	0x0293, r24
    5e98:	90 93 94 02 	sts	0x0294, r25
    5e9c:	a0 93 95 02 	sts	0x0295, r26
    5ea0:	b0 93 96 02 	sts	0x0296, r27
    5ea4:	80 91 93 02 	lds	r24, 0x0293
    5ea8:	90 91 94 02 	lds	r25, 0x0294
    5eac:	a0 91 95 02 	lds	r26, 0x0295
    5eb0:	b0 91 96 02 	lds	r27, 0x0296
    5eb4:	80 93 1d 03 	sts	0x031D, r24
    5eb8:	90 93 1e 03 	sts	0x031E, r25
    5ebc:	a0 93 1f 03 	sts	0x031F, r26
    5ec0:	b0 93 20 03 	sts	0x0320, r27
    5ec4:	80 91 1d 03 	lds	r24, 0x031D
    5ec8:	90 91 1e 03 	lds	r25, 0x031E
    5ecc:	a0 91 1f 03 	lds	r26, 0x031F
    5ed0:	b0 91 20 03 	lds	r27, 0x0320
    5ed4:	80 93 87 02 	sts	0x0287, r24
    5ed8:	90 93 88 02 	sts	0x0288, r25
    5edc:	a0 93 89 02 	sts	0x0289, r26
    5ee0:	b0 93 8a 02 	sts	0x028A, r27
    5ee4:	60 91 87 02 	lds	r22, 0x0287
    5ee8:	70 91 88 02 	lds	r23, 0x0288
    5eec:	80 91 89 02 	lds	r24, 0x0289
    5ef0:	90 91 8a 02 	lds	r25, 0x028A
    5ef4:	0e 94 37 41 	call	0x826e	; 0x826e <__fixsfsi>
    5ef8:	70 93 39 02 	sts	0x0239, r23
    5efc:	60 93 38 02 	sts	0x0238, r22
			speed(gsp[0],gsp[1],zgsp,wa+na);
		}
	}
}
    5f00:	2c 96       	adiw	r28, 0x0c	; 12
    5f02:	0f b6       	in	r0, 0x3f	; 63
    5f04:	f8 94       	cli
    5f06:	de bf       	out	0x3e, r29	; 62
    5f08:	0f be       	out	0x3f, r0	; 63
    5f0a:	cd bf       	out	0x3d, r28	; 61
    5f0c:	cf 91       	pop	r28
    5f0e:	df 91       	pop	r29
    5f10:	1f 91       	pop	r17
    5f12:	0f 91       	pop	r16
    5f14:	ff 90       	pop	r15
    5f16:	ef 90       	pop	r14
    5f18:	df 90       	pop	r13
    5f1a:	cf 90       	pop	r12
    5f1c:	bf 90       	pop	r11
    5f1e:	af 90       	pop	r10
    5f20:	9f 90       	pop	r9
    5f22:	8f 90       	pop	r8
    5f24:	7f 90       	pop	r7
    5f26:	6f 90       	pop	r6
    5f28:	5f 90       	pop	r5
    5f2a:	4f 90       	pop	r4
    5f2c:	3f 90       	pop	r3
    5f2e:	2f 90       	pop	r2
    5f30:	08 95       	ret
		if(!gtc)
		{
			gtc=1;		
			
			gtc = 1;
			add += zgsp * 1.747/100;
    5f32:	fb 01       	movw	r30, r22
    5f34:	9a 01       	movw	r18, r20
    5f36:	6f 2f       	mov	r22, r31
    5f38:	7e 2f       	mov	r23, r30
    5f3a:	83 2f       	mov	r24, r19
    5f3c:	94 2f       	mov	r25, r20
    5f3e:	22 eb       	ldi	r18, 0xB2	; 178
    5f40:	3d e9       	ldi	r19, 0x9D	; 157
    5f42:	4f ed       	ldi	r20, 0xDF	; 223
    5f44:	5f e3       	ldi	r21, 0x3F	; 63
    5f46:	0e 94 2e 43 	call	0x865c	; 0x865c <__mulsf3>
    5f4a:	20 e0       	ldi	r18, 0x00	; 0
    5f4c:	30 e0       	ldi	r19, 0x00	; 0
    5f4e:	48 ec       	ldi	r20, 0xC8	; 200
    5f50:	52 e4       	ldi	r21, 0x42	; 66
    5f52:	0e 94 cf 40 	call	0x819e	; 0x819e <__divsf3>
    5f56:	9b 01       	movw	r18, r22
    5f58:	ac 01       	movw	r20, r24
    5f5a:	c4 01       	movw	r24, r8
    5f5c:	b3 01       	movw	r22, r6
    5f5e:	0e 94 51 40 	call	0x80a2	; 0x80a2 <__addsf3>
    5f62:	66 2e       	mov	r6, r22
    5f64:	77 2e       	mov	r7, r23
    5f66:	88 2e       	mov	r8, r24
    5f68:	99 2e       	mov	r9, r25

			if(!oc)oc=1;
			if(oc>cnt1){gsp[1] = gsp[0] = 0;}
			if(oc>cnt2){zgsp = 0;}
			if(oc>cnt1 && oc > cnt2){LE return;}
			speed(gsp[0],gsp[1],zgsp,wa+na);
    5f6a:	80 91 49 03 	lds	r24, 0x0349
    5f6e:	90 91 4a 03 	lds	r25, 0x034A
    5f72:	a0 91 4b 03 	lds	r26, 0x034B
    5f76:	b0 91 4c 03 	lds	r27, 0x034C
    5f7a:	8d 83       	std	Y+5, r24	; 0x05
    5f7c:	9e 83       	std	Y+6, r25	; 0x06
    5f7e:	af 83       	std	Y+7, r26	; 0x07
    5f80:	b8 87       	std	Y+8, r27	; 0x08
    5f82:	80 91 4d 03 	lds	r24, 0x034D
    5f86:	90 91 4e 03 	lds	r25, 0x034E
    5f8a:	a0 91 4f 03 	lds	r26, 0x034F
    5f8e:	b0 91 50 03 	lds	r27, 0x0350
    5f92:	89 87       	std	Y+9, r24	; 0x09
    5f94:	9a 87       	std	Y+10, r25	; 0x0a
    5f96:	ab 87       	std	Y+11, r26	; 0x0b
    5f98:	bc 87       	std	Y+12, r27	; 0x0c
    5f9a:	60 91 5e 02 	lds	r22, 0x025E
    5f9e:	70 91 5f 02 	lds	r23, 0x025F
    5fa2:	88 27       	eor	r24, r24
    5fa4:	77 fd       	sbrc	r23, 7
    5fa6:	80 95       	com	r24
    5fa8:	98 2f       	mov	r25, r24
    5faa:	0e 94 6a 41 	call	0x82d4	; 0x82d4 <__floatsisf>
    5fae:	5b 01       	movw	r10, r22
    5fb0:	6c 01       	movw	r12, r24
		{
			gtc=1;		
			
			gtc = 1;
			add += zgsp * 1.747/100;
			na = -add/cha/100;
    5fb2:	c4 01       	movw	r24, r8
    5fb4:	b3 01       	movw	r22, r6
    5fb6:	90 58       	subi	r25, 0x80	; 128
    5fb8:	25 e3       	ldi	r18, 0x35	; 53
    5fba:	3a ef       	ldi	r19, 0xFA	; 250
    5fbc:	4e e8       	ldi	r20, 0x8E	; 142
    5fbe:	5c e3       	ldi	r21, 0x3C	; 60
    5fc0:	0e 94 cf 40 	call	0x819e	; 0x819e <__divsf3>
    5fc4:	20 e0       	ldi	r18, 0x00	; 0
    5fc6:	30 e0       	ldi	r19, 0x00	; 0
    5fc8:	48 ec       	ldi	r20, 0xC8	; 200
    5fca:	52 e4       	ldi	r21, 0x42	; 66
    5fcc:	0e 94 cf 40 	call	0x819e	; 0x819e <__divsf3>
    5fd0:	9b 01       	movw	r18, r22
    5fd2:	ac 01       	movw	r20, r24

			if(!oc)oc=1;
			if(oc>cnt1){gsp[1] = gsp[0] = 0;}
			if(oc>cnt2){zgsp = 0;}
			if(oc>cnt1 && oc > cnt2){LE return;}
			speed(gsp[0],gsp[1],zgsp,wa+na);
    5fd4:	c6 01       	movw	r24, r12
    5fd6:	b5 01       	movw	r22, r10
    5fd8:	0e 94 51 40 	call	0x80a2	; 0x80a2 <__addsf3>
    5fdc:	5b 01       	movw	r10, r22
    5fde:	6c 01       	movw	r12, r24
    5fe0:	6d 81       	ldd	r22, Y+5	; 0x05
    5fe2:	7e 81       	ldd	r23, Y+6	; 0x06
    5fe4:	8f 81       	ldd	r24, Y+7	; 0x07
    5fe6:	98 85       	ldd	r25, Y+8	; 0x08
    5fe8:	29 85       	ldd	r18, Y+9	; 0x09
    5fea:	3a 85       	ldd	r19, Y+10	; 0x0a
    5fec:	4b 85       	ldd	r20, Y+11	; 0x0b
    5fee:	5c 85       	ldd	r21, Y+12	; 0x0c
    5ff0:	0e 94 93 16 	call	0x2d26	; 0x2d26 <speed>
    5ff4:	df ce       	rjmp	.-578    	; 0x5db4 <Od2+0x186>

00005ff6 <Ot>:
	}
}


void Ot(int r, int z, int ang ,int sp ,int ac)
{
    5ff6:	2f 92       	push	r2
    5ff8:	3f 92       	push	r3
    5ffa:	4f 92       	push	r4
    5ffc:	5f 92       	push	r5
    5ffe:	6f 92       	push	r6
    6000:	7f 92       	push	r7
    6002:	8f 92       	push	r8
    6004:	9f 92       	push	r9
    6006:	af 92       	push	r10
    6008:	bf 92       	push	r11
    600a:	cf 92       	push	r12
    600c:	df 92       	push	r13
    600e:	ef 92       	push	r14
    6010:	ff 92       	push	r15
    6012:	0f 93       	push	r16
    6014:	1f 93       	push	r17
    6016:	df 93       	push	r29
    6018:	cf 93       	push	r28
    601a:	00 d0       	rcall	.+0      	; 0x601c <Ot+0x26>
    601c:	00 d0       	rcall	.+0      	; 0x601e <Ot+0x28>
    601e:	00 d0       	rcall	.+0      	; 0x6020 <Ot+0x2a>
    6020:	cd b7       	in	r28, 0x3d	; 61
    6022:	de b7       	in	r29, 0x3e	; 62
    6024:	7c 01       	movw	r14, r24
    6026:	a6 2e       	mov	r10, r22
    6028:	97 2e       	mov	r9, r23
    602a:	1a 01       	movw	r2, r20
    602c:	69 01       	movw	r12, r18
    602e:	1a 83       	std	Y+2, r17	; 0x02
    6030:	09 83       	std	Y+1, r16	; 0x01
	ginit("Ot");
    6032:	10 92 4b 02 	sts	0x024B, r1
    6036:	10 92 4a 02 	sts	0x024A, r1
    603a:	10 92 11 02 	sts	0x0211, r1
    603e:	10 92 10 02 	sts	0x0210, r1
    6042:	80 91 10 02 	lds	r24, 0x0210
    6046:	90 91 11 02 	lds	r25, 0x0211
    604a:	90 93 5a 03 	sts	0x035A, r25
    604e:	80 93 59 03 	sts	0x0359, r24
    6052:	80 91 59 03 	lds	r24, 0x0359
    6056:	90 91 5a 03 	lds	r25, 0x035A
    605a:	90 93 39 02 	sts	0x0239, r25
    605e:	80 93 38 02 	sts	0x0238, r24
    6062:	60 e0       	ldi	r22, 0x00	; 0
    6064:	70 e0       	ldi	r23, 0x00	; 0
    6066:	80 e0       	ldi	r24, 0x00	; 0
    6068:	90 e0       	ldi	r25, 0x00	; 0
    606a:	dc 01       	movw	r26, r24
    606c:	4a 2d       	mov	r20, r10
    606e:	59 2d       	mov	r21, r9
    6070:	9b 01       	movw	r18, r22
    6072:	22 0f       	add	r18, r18
    6074:	33 1f       	adc	r19, r19
    6076:	22 0f       	add	r18, r18
    6078:	33 1f       	adc	r19, r19
    607a:	f9 01       	movw	r30, r18
    607c:	e7 5b       	subi	r30, 0xB7	; 183
    607e:	fc 4f       	sbci	r31, 0xFC	; 252
    6080:	80 83       	st	Z, r24
    6082:	91 83       	std	Z+1, r25	; 0x01
    6084:	a2 83       	std	Z+2, r26	; 0x02
    6086:	b3 83       	std	Z+3, r27	; 0x03
    6088:	80 80       	ld	r8, Z
    608a:	91 80       	ldd	r9, Z+1	; 0x01
    608c:	a2 80       	ldd	r10, Z+2	; 0x02
    608e:	b3 80       	ldd	r11, Z+3	; 0x03
    6090:	29 5c       	subi	r18, 0xC9	; 201
    6092:	3c 4f       	sbci	r19, 0xFC	; 252
    6094:	f9 01       	movw	r30, r18
    6096:	80 82       	st	Z, r8
    6098:	91 82       	std	Z+1, r9	; 0x01
    609a:	a2 82       	std	Z+2, r10	; 0x02
    609c:	b3 82       	std	Z+3, r11	; 0x03
    609e:	6f 5f       	subi	r22, 0xFF	; 255
    60a0:	7f 4f       	sbci	r23, 0xFF	; 255
    60a2:	64 30       	cpi	r22, 0x04	; 4
    60a4:	71 05       	cpc	r23, r1
    60a6:	21 f7       	brne	.-56     	; 0x6070 <Ot+0x7a>
    60a8:	a4 2e       	mov	r10, r20
    60aa:	95 2e       	mov	r9, r21
    60ac:	00 d0       	rcall	.+0      	; 0x60ae <Ot+0xb8>
    60ae:	00 d0       	rcall	.+0      	; 0x60b0 <Ot+0xba>
    60b0:	00 d0       	rcall	.+0      	; 0x60b2 <Ot+0xbc>
    60b2:	ed b7       	in	r30, 0x3d	; 61
    60b4:	fe b7       	in	r31, 0x3e	; 62
    60b6:	31 96       	adiw	r30, 0x01	; 1
    60b8:	01 e2       	ldi	r16, 0x21	; 33
    60ba:	13 e0       	ldi	r17, 0x03	; 3
    60bc:	ad b7       	in	r26, 0x3d	; 61
    60be:	be b7       	in	r27, 0x3e	; 62
    60c0:	12 96       	adiw	r26, 0x02	; 2
    60c2:	1c 93       	st	X, r17
    60c4:	0e 93       	st	-X, r16
    60c6:	11 97       	sbiw	r26, 0x01	; 1
    60c8:	84 eb       	ldi	r24, 0xB4	; 180
    60ca:	91 e0       	ldi	r25, 0x01	; 1
    60cc:	93 83       	std	Z+3, r25	; 0x03
    60ce:	82 83       	std	Z+2, r24	; 0x02
    60d0:	89 ee       	ldi	r24, 0xE9	; 233
    60d2:	91 e0       	ldi	r25, 0x01	; 1
    60d4:	95 83       	std	Z+5, r25	; 0x05
    60d6:	84 83       	std	Z+4, r24	; 0x04
    60d8:	0e 94 20 40 	call	0x8040	; 0x8040 <sprintf>
    60dc:	ed b7       	in	r30, 0x3d	; 61
    60de:	fe b7       	in	r31, 0x3e	; 62
    60e0:	36 96       	adiw	r30, 0x06	; 6
    60e2:	0f b6       	in	r0, 0x3f	; 63
    60e4:	f8 94       	cli
    60e6:	fe bf       	out	0x3e, r31	; 62
    60e8:	0f be       	out	0x3f, r0	; 63
    60ea:	ed bf       	out	0x3d, r30	; 61
    60ec:	80 e0       	ldi	r24, 0x00	; 0
    60ee:	67 e0       	ldi	r22, 0x07	; 7
    60f0:	a8 01       	movw	r20, r16
    60f2:	0e 94 67 01 	call	0x2ce	; 0x2ce <LCD>
	double na=0,na2=0, v[3];
	double y= M_PI * r * abs(z)/180;
    60f6:	b7 01       	movw	r22, r14
    60f8:	88 27       	eor	r24, r24
    60fa:	77 fd       	sbrc	r23, 7
    60fc:	80 95       	com	r24
    60fe:	98 2f       	mov	r25, r24
    6100:	0e 94 6a 41 	call	0x82d4	; 0x82d4 <__floatsisf>
    6104:	2b ed       	ldi	r18, 0xDB	; 219
    6106:	3f e0       	ldi	r19, 0x0F	; 15
    6108:	49 e4       	ldi	r20, 0x49	; 73
    610a:	50 e4       	ldi	r21, 0x40	; 64
    610c:	0e 94 2e 43 	call	0x865c	; 0x865c <__mulsf3>
    6110:	7b 01       	movw	r14, r22
    6112:	8c 01       	movw	r16, r24
    6114:	6a 2d       	mov	r22, r10
    6116:	79 2d       	mov	r23, r9
    6118:	77 ff       	sbrs	r23, 7
    611a:	03 c0       	rjmp	.+6      	; 0x6122 <Ot+0x12c>
    611c:	70 95       	com	r23
    611e:	61 95       	neg	r22
    6120:	7f 4f       	sbci	r23, 0xFF	; 255
    6122:	88 27       	eor	r24, r24
    6124:	77 fd       	sbrc	r23, 7
    6126:	80 95       	com	r24
    6128:	98 2f       	mov	r25, r24
    612a:	0e 94 6a 41 	call	0x82d4	; 0x82d4 <__floatsisf>
    612e:	9b 01       	movw	r18, r22
    6130:	ac 01       	movw	r20, r24
    6132:	c8 01       	movw	r24, r16
    6134:	b7 01       	movw	r22, r14
    6136:	0e 94 2e 43 	call	0x865c	; 0x865c <__mulsf3>
    613a:	20 e0       	ldi	r18, 0x00	; 0
    613c:	30 e0       	ldi	r19, 0x00	; 0
    613e:	44 e3       	ldi	r20, 0x34	; 52
    6140:	53 e4       	ldi	r21, 0x43	; 67
    6142:	0e 94 cf 40 	call	0x819e	; 0x819e <__divsf3>
	O(0,y,z,ang);
    6146:	0e 94 37 41 	call	0x826e	; 0x826e <__fixsfsi>
    614a:	2b 01       	movw	r4, r22
    614c:	3c 01       	movw	r6, r24
    614e:	80 e0       	ldi	r24, 0x00	; 0
    6150:	90 e0       	ldi	r25, 0x00	; 0
    6152:	b2 01       	movw	r22, r4
    6154:	4a 2d       	mov	r20, r10
    6156:	59 2d       	mov	r21, r9
    6158:	91 01       	movw	r18, r2
    615a:	86 01       	movw	r16, r12
    615c:	e9 80       	ldd	r14, Y+1	; 0x01
    615e:	fa 80       	ldd	r15, Y+2	; 0x02
    6160:	0e 94 11 19 	call	0x3222	; 0x3222 <Omni>
	sp *= fabs(sp/msp[1]);
    6164:	b6 01       	movw	r22, r12
    6166:	88 27       	eor	r24, r24
    6168:	77 fd       	sbrc	r23, 7
    616a:	80 95       	com	r24
    616c:	98 2f       	mov	r25, r24
    616e:	0e 94 6a 41 	call	0x82d4	; 0x82d4 <__floatsisf>
    6172:	7b 01       	movw	r14, r22
    6174:	8c 01       	movw	r16, r24
    6176:	20 91 3b 03 	lds	r18, 0x033B
    617a:	30 91 3c 03 	lds	r19, 0x033C
    617e:	40 91 3d 03 	lds	r20, 0x033D
    6182:	50 91 3e 03 	lds	r21, 0x033E
    6186:	0e 94 cf 40 	call	0x819e	; 0x819e <__divsf3>
    618a:	9b 01       	movw	r18, r22
    618c:	ac 01       	movw	r20, r24
    618e:	5f 77       	andi	r21, 0x7F	; 127
    6190:	c8 01       	movw	r24, r16
    6192:	b7 01       	movw	r22, r14
    6194:	0e 94 2e 43 	call	0x865c	; 0x865c <__mulsf3>
    6198:	0e 94 37 41 	call	0x826e	; 0x826e <__fixsfsi>
    619c:	7b 01       	movw	r14, r22
    619e:	8c 01       	movw	r16, r24
	tot = O(0,y,z,ang);
    61a0:	80 e0       	ldi	r24, 0x00	; 0
    61a2:	90 e0       	ldi	r25, 0x00	; 0
    61a4:	b2 01       	movw	r22, r4
    61a6:	4a 2d       	mov	r20, r10
    61a8:	59 2d       	mov	r21, r9
    61aa:	91 01       	movw	r18, r2
    61ac:	87 01       	movw	r16, r14
    61ae:	e9 80       	ldd	r14, Y+1	; 0x01
    61b0:	fa 80       	ldd	r15, Y+2	; 0x02
    61b2:	0e 94 11 19 	call	0x3222	; 0x3222 <Omni>
    61b6:	90 93 5a 03 	sts	0x035A, r25
    61ba:	80 93 59 03 	sts	0x0359, r24


void Ot(int r, int z, int ang ,int sp ,int ac)
{
	ginit("Ot");
	double na=0,na2=0, v[3];
    61be:	99 24       	eor	r9, r9
    61c0:	44 24       	eor	r4, r4
    61c2:	33 24       	eor	r3, r3
    61c4:	22 24       	eor	r2, r2
    61c6:	88 24       	eor	r8, r8
    61c8:	77 24       	eor	r7, r7
    61ca:	66 24       	eor	r6, r6
    61cc:	55 24       	eor	r5, r5
	sp *= fabs(sp/msp[1]);
	tot = O(0,y,z,ang);

	while(1)
	{		
		if(!gtc)
    61ce:	80 91 10 02 	lds	r24, 0x0210
    61d2:	90 91 11 02 	lds	r25, 0x0211
    61d6:	00 97       	sbiw	r24, 0x00	; 0
    61d8:	d1 f7       	brne	.-12     	; 0x61ce <Ot+0x1d8>
		{
			gtc=1;
    61da:	21 e0       	ldi	r18, 0x01	; 1
    61dc:	30 e0       	ldi	r19, 0x00	; 0
    61de:	30 93 11 02 	sts	0x0211, r19
    61e2:	20 93 10 02 	sts	0x0210, r18

			OS
    61e6:	80 91 59 03 	lds	r24, 0x0359
    61ea:	90 91 5a 03 	lds	r25, 0x035A
    61ee:	69 81       	ldd	r22, Y+1	; 0x01
    61f0:	7a 81       	ldd	r23, Y+2	; 0x02
    61f2:	0e 94 00 1a 	call	0x3400	; 0x3400 <OmniSet>
			na += gsp[2]/100;
    61f6:	60 91 51 03 	lds	r22, 0x0351
    61fa:	70 91 52 03 	lds	r23, 0x0352
    61fe:	80 91 53 03 	lds	r24, 0x0353
    6202:	90 91 54 03 	lds	r25, 0x0354
			na2 += -gsp[3]/100;
    6206:	e0 90 55 03 	lds	r14, 0x0355
    620a:	f0 90 56 03 	lds	r15, 0x0356
    620e:	00 91 57 03 	lds	r16, 0x0357
    6212:	10 91 58 03 	lds	r17, 0x0358

			if(!oc)oc=1;
    6216:	20 91 38 02 	lds	r18, 0x0238
    621a:	30 91 39 02 	lds	r19, 0x0239
    621e:	21 15       	cp	r18, r1
    6220:	31 05       	cpc	r19, r1
    6222:	31 f4       	brne	.+12     	; 0x6230 <Ot+0x23a>
    6224:	a1 e0       	ldi	r26, 0x01	; 1
    6226:	b0 e0       	ldi	r27, 0x00	; 0
    6228:	b0 93 39 02 	sts	0x0239, r27
    622c:	a0 93 38 02 	sts	0x0238, r26
			if(oc>tot){ LE return;}
    6230:	20 91 59 03 	lds	r18, 0x0359
    6234:	30 91 5a 03 	lds	r19, 0x035A
    6238:	40 91 38 02 	lds	r20, 0x0238
    623c:	50 91 39 02 	lds	r21, 0x0239
    6240:	24 17       	cp	r18, r20
    6242:	35 07       	cpc	r19, r21
    6244:	0c f0       	brlt	.+2      	; 0x6248 <Ot+0x252>
    6246:	56 c0       	rjmp	.+172    	; 0x62f4 <Ot+0x2fe>
    6248:	10 92 4b 02 	sts	0x024B, r1
    624c:	10 92 4a 02 	sts	0x024A, r1
    6250:	80 e0       	ldi	r24, 0x00	; 0
    6252:	90 e0       	ldi	r25, 0x00	; 0
    6254:	dc 01       	movw	r26, r24
    6256:	80 93 93 02 	sts	0x0293, r24
    625a:	90 93 94 02 	sts	0x0294, r25
    625e:	a0 93 95 02 	sts	0x0295, r26
    6262:	b0 93 96 02 	sts	0x0296, r27
    6266:	80 91 93 02 	lds	r24, 0x0293
    626a:	90 91 94 02 	lds	r25, 0x0294
    626e:	a0 91 95 02 	lds	r26, 0x0295
    6272:	b0 91 96 02 	lds	r27, 0x0296
    6276:	80 93 1d 03 	sts	0x031D, r24
    627a:	90 93 1e 03 	sts	0x031E, r25
    627e:	a0 93 1f 03 	sts	0x031F, r26
    6282:	b0 93 20 03 	sts	0x0320, r27
    6286:	80 91 1d 03 	lds	r24, 0x031D
    628a:	90 91 1e 03 	lds	r25, 0x031E
    628e:	a0 91 1f 03 	lds	r26, 0x031F
    6292:	b0 91 20 03 	lds	r27, 0x0320
    6296:	80 93 87 02 	sts	0x0287, r24
    629a:	90 93 88 02 	sts	0x0288, r25
    629e:	a0 93 89 02 	sts	0x0289, r26
    62a2:	b0 93 8a 02 	sts	0x028A, r27
    62a6:	60 91 87 02 	lds	r22, 0x0287
    62aa:	70 91 88 02 	lds	r23, 0x0288
    62ae:	80 91 89 02 	lds	r24, 0x0289
    62b2:	90 91 8a 02 	lds	r25, 0x028A
    62b6:	0e 94 37 41 	call	0x826e	; 0x826e <__fixsfsi>
    62ba:	70 93 39 02 	sts	0x0239, r23
    62be:	60 93 38 02 	sts	0x0238, r22
			speed(0, gsp[1] ,gsp[3], wa+na+na2);
		}	
	}
}
    62c2:	26 96       	adiw	r28, 0x06	; 6
    62c4:	0f b6       	in	r0, 0x3f	; 63
    62c6:	f8 94       	cli
    62c8:	de bf       	out	0x3e, r29	; 62
    62ca:	0f be       	out	0x3f, r0	; 63
    62cc:	cd bf       	out	0x3d, r28	; 61
    62ce:	cf 91       	pop	r28
    62d0:	df 91       	pop	r29
    62d2:	1f 91       	pop	r17
    62d4:	0f 91       	pop	r16
    62d6:	ff 90       	pop	r15
    62d8:	ef 90       	pop	r14
    62da:	df 90       	pop	r13
    62dc:	cf 90       	pop	r12
    62de:	bf 90       	pop	r11
    62e0:	af 90       	pop	r10
    62e2:	9f 90       	pop	r9
    62e4:	8f 90       	pop	r8
    62e6:	7f 90       	pop	r7
    62e8:	6f 90       	pop	r6
    62ea:	5f 90       	pop	r5
    62ec:	4f 90       	pop	r4
    62ee:	3f 90       	pop	r3
    62f0:	2f 90       	pop	r2
    62f2:	08 95       	ret
		if(!gtc)
		{
			gtc=1;

			OS
			na += gsp[2]/100;
    62f4:	20 e0       	ldi	r18, 0x00	; 0
    62f6:	30 e0       	ldi	r19, 0x00	; 0
    62f8:	48 ec       	ldi	r20, 0xC8	; 200
    62fa:	52 e4       	ldi	r21, 0x42	; 66
    62fc:	0e 94 cf 40 	call	0x819e	; 0x819e <__divsf3>
    6300:	9b 01       	movw	r18, r22
    6302:	ac 01       	movw	r20, r24
    6304:	68 2d       	mov	r22, r8
    6306:	77 2d       	mov	r23, r7
    6308:	86 2d       	mov	r24, r6
    630a:	95 2d       	mov	r25, r5
    630c:	0e 94 51 40 	call	0x80a2	; 0x80a2 <__addsf3>
    6310:	86 2e       	mov	r8, r22
    6312:	77 2e       	mov	r7, r23
    6314:	68 2e       	mov	r6, r24
    6316:	59 2e       	mov	r5, r25
			na2 += -gsp[3]/100;
    6318:	c8 01       	movw	r24, r16
    631a:	b7 01       	movw	r22, r14
    631c:	90 58       	subi	r25, 0x80	; 128
    631e:	20 e0       	ldi	r18, 0x00	; 0
    6320:	30 e0       	ldi	r19, 0x00	; 0
    6322:	48 ec       	ldi	r20, 0xC8	; 200
    6324:	52 e4       	ldi	r21, 0x42	; 66
    6326:	0e 94 cf 40 	call	0x819e	; 0x819e <__divsf3>
    632a:	9b 01       	movw	r18, r22
    632c:	ac 01       	movw	r20, r24
    632e:	f1 01       	movw	r30, r2
    6330:	69 2d       	mov	r22, r9
    6332:	74 2d       	mov	r23, r4
    6334:	8f 2f       	mov	r24, r31
    6336:	92 2d       	mov	r25, r2
    6338:	0e 94 51 40 	call	0x80a2	; 0x80a2 <__addsf3>
    633c:	96 2e       	mov	r9, r22
    633e:	47 2e       	mov	r4, r23
    6340:	38 2e       	mov	r3, r24
    6342:	29 2e       	mov	r2, r25

			if(!oc)oc=1;
			if(oc>tot){ LE return;}
			speed(0, gsp[1] ,gsp[3], wa+na+na2);
    6344:	80 91 4d 03 	lds	r24, 0x034D
    6348:	90 91 4e 03 	lds	r25, 0x034E
    634c:	a0 91 4f 03 	lds	r26, 0x034F
    6350:	b0 91 50 03 	lds	r27, 0x0350
    6354:	8b 83       	std	Y+3, r24	; 0x03
    6356:	9c 83       	std	Y+4, r25	; 0x04
    6358:	ad 83       	std	Y+5, r26	; 0x05
    635a:	be 83       	std	Y+6, r27	; 0x06
    635c:	e0 90 55 03 	lds	r14, 0x0355
    6360:	f0 90 56 03 	lds	r15, 0x0356
    6364:	00 91 57 03 	lds	r16, 0x0357
    6368:	10 91 58 03 	lds	r17, 0x0358
    636c:	60 91 5e 02 	lds	r22, 0x025E
    6370:	70 91 5f 02 	lds	r23, 0x025F
    6374:	88 27       	eor	r24, r24
    6376:	77 fd       	sbrc	r23, 7
    6378:	80 95       	com	r24
    637a:	98 2f       	mov	r25, r24
    637c:	0e 94 6a 41 	call	0x82d4	; 0x82d4 <__floatsisf>
    6380:	28 2d       	mov	r18, r8
    6382:	37 2d       	mov	r19, r7
    6384:	46 2d       	mov	r20, r6
    6386:	55 2d       	mov	r21, r5
    6388:	0e 94 51 40 	call	0x80a2	; 0x80a2 <__addsf3>
    638c:	f1 01       	movw	r30, r2
    638e:	29 2d       	mov	r18, r9
    6390:	34 2d       	mov	r19, r4
    6392:	4f 2f       	mov	r20, r31
    6394:	5e 2f       	mov	r21, r30
    6396:	0e 94 51 40 	call	0x80a2	; 0x80a2 <__addsf3>
    639a:	5b 01       	movw	r10, r22
    639c:	6c 01       	movw	r12, r24
    639e:	60 e0       	ldi	r22, 0x00	; 0
    63a0:	70 e0       	ldi	r23, 0x00	; 0
    63a2:	cb 01       	movw	r24, r22
    63a4:	2b 81       	ldd	r18, Y+3	; 0x03
    63a6:	3c 81       	ldd	r19, Y+4	; 0x04
    63a8:	4d 81       	ldd	r20, Y+5	; 0x05
    63aa:	5e 81       	ldd	r21, Y+6	; 0x06
    63ac:	0e 94 93 16 	call	0x2d26	; 0x2d26 <speed>
    63b0:	0e cf       	rjmp	.-484    	; 0x61ce <Ot+0x1d8>

000063b2 <At>:
	}
}


void At(double z, int sp)
{
    63b2:	2f 92       	push	r2
    63b4:	3f 92       	push	r3
    63b6:	4f 92       	push	r4
    63b8:	5f 92       	push	r5
    63ba:	6f 92       	push	r6
    63bc:	7f 92       	push	r7
    63be:	8f 92       	push	r8
    63c0:	9f 92       	push	r9
    63c2:	af 92       	push	r10
    63c4:	bf 92       	push	r11
    63c6:	cf 92       	push	r12
    63c8:	df 92       	push	r13
    63ca:	ef 92       	push	r14
    63cc:	ff 92       	push	r15
    63ce:	0f 93       	push	r16
    63d0:	1f 93       	push	r17
    63d2:	df 93       	push	r29
    63d4:	cf 93       	push	r28
    63d6:	cd b7       	in	r28, 0x3d	; 61
    63d8:	de b7       	in	r29, 0x3e	; 62
    63da:	28 97       	sbiw	r28, 0x08	; 8
    63dc:	0f b6       	in	r0, 0x3f	; 63
    63de:	f8 94       	cli
    63e0:	de bf       	out	0x3e, r29	; 62
    63e2:	0f be       	out	0x3f, r0	; 63
    63e4:	cd bf       	out	0x3d, r28	; 61
    63e6:	6d 83       	std	Y+5, r22	; 0x05
    63e8:	7e 83       	std	Y+6, r23	; 0x06
    63ea:	8f 83       	std	Y+7, r24	; 0x07
    63ec:	98 87       	std	Y+8, r25	; 0x08
    63ee:	7a 01       	movw	r14, r20
	ginit("At");
    63f0:	10 92 4b 02 	sts	0x024B, r1
    63f4:	10 92 4a 02 	sts	0x024A, r1
    63f8:	10 92 11 02 	sts	0x0211, r1
    63fc:	10 92 10 02 	sts	0x0210, r1
    6400:	80 91 10 02 	lds	r24, 0x0210
    6404:	90 91 11 02 	lds	r25, 0x0211
    6408:	90 93 5a 03 	sts	0x035A, r25
    640c:	80 93 59 03 	sts	0x0359, r24
    6410:	80 91 59 03 	lds	r24, 0x0359
    6414:	90 91 5a 03 	lds	r25, 0x035A
    6418:	90 93 39 02 	sts	0x0239, r25
    641c:	80 93 38 02 	sts	0x0238, r24
    6420:	60 e0       	ldi	r22, 0x00	; 0
    6422:	70 e0       	ldi	r23, 0x00	; 0
    6424:	80 e0       	ldi	r24, 0x00	; 0
    6426:	90 e0       	ldi	r25, 0x00	; 0
    6428:	dc 01       	movw	r26, r24
    642a:	8b 01       	movw	r16, r22
    642c:	00 0f       	add	r16, r16
    642e:	11 1f       	adc	r17, r17
    6430:	00 0f       	add	r16, r16
    6432:	11 1f       	adc	r17, r17
    6434:	98 01       	movw	r18, r16
    6436:	27 5b       	subi	r18, 0xB7	; 183
    6438:	3c 4f       	sbci	r19, 0xFC	; 252
    643a:	f9 01       	movw	r30, r18
    643c:	80 83       	st	Z, r24
    643e:	91 83       	std	Z+1, r25	; 0x01
    6440:	a2 83       	std	Z+2, r26	; 0x02
    6442:	b3 83       	std	Z+3, r27	; 0x03
    6444:	20 81       	ld	r18, Z
    6446:	31 81       	ldd	r19, Z+1	; 0x01
    6448:	42 81       	ldd	r20, Z+2	; 0x02
    644a:	53 81       	ldd	r21, Z+3	; 0x03
    644c:	f8 01       	movw	r30, r16
    644e:	e9 5c       	subi	r30, 0xC9	; 201
    6450:	fc 4f       	sbci	r31, 0xFC	; 252
    6452:	20 83       	st	Z, r18
    6454:	31 83       	std	Z+1, r19	; 0x01
    6456:	42 83       	std	Z+2, r20	; 0x02
    6458:	53 83       	std	Z+3, r21	; 0x03
    645a:	6f 5f       	subi	r22, 0xFF	; 255
    645c:	7f 4f       	sbci	r23, 0xFF	; 255
    645e:	64 30       	cpi	r22, 0x04	; 4
    6460:	71 05       	cpc	r23, r1
    6462:	19 f7       	brne	.-58     	; 0x642a <At+0x78>
    6464:	00 d0       	rcall	.+0      	; 0x6466 <At+0xb4>
    6466:	00 d0       	rcall	.+0      	; 0x6468 <At+0xb6>
    6468:	00 d0       	rcall	.+0      	; 0x646a <At+0xb8>
    646a:	ed b7       	in	r30, 0x3d	; 61
    646c:	fe b7       	in	r31, 0x3e	; 62
    646e:	31 96       	adiw	r30, 0x01	; 1
    6470:	01 e2       	ldi	r16, 0x21	; 33
    6472:	13 e0       	ldi	r17, 0x03	; 3
    6474:	ad b7       	in	r26, 0x3d	; 61
    6476:	be b7       	in	r27, 0x3e	; 62
    6478:	12 96       	adiw	r26, 0x02	; 2
    647a:	1c 93       	st	X, r17
    647c:	0e 93       	st	-X, r16
    647e:	11 97       	sbiw	r26, 0x01	; 1
    6480:	84 eb       	ldi	r24, 0xB4	; 180
    6482:	91 e0       	ldi	r25, 0x01	; 1
    6484:	93 83       	std	Z+3, r25	; 0x03
    6486:	82 83       	std	Z+2, r24	; 0x02
    6488:	8c ee       	ldi	r24, 0xEC	; 236
    648a:	91 e0       	ldi	r25, 0x01	; 1
    648c:	95 83       	std	Z+5, r25	; 0x05
    648e:	84 83       	std	Z+4, r24	; 0x04
    6490:	0e 94 20 40 	call	0x8040	; 0x8040 <sprintf>
    6494:	ed b7       	in	r30, 0x3d	; 61
    6496:	fe b7       	in	r31, 0x3e	; 62
    6498:	36 96       	adiw	r30, 0x06	; 6
    649a:	0f b6       	in	r0, 0x3f	; 63
    649c:	f8 94       	cli
    649e:	fe bf       	out	0x3e, r31	; 62
    64a0:	0f be       	out	0x3f, r0	; 63
    64a2:	ed bf       	out	0x3d, r30	; 61
    64a4:	80 e0       	ldi	r24, 0x00	; 0
    64a6:	67 e0       	ldi	r22, 0x07	; 7
    64a8:	a8 01       	movw	r20, r16
    64aa:	0e 94 67 01 	call	0x2ce	; 0x2ce <LCD>

	double e, s = gyro;
    64ae:	80 91 7e 02 	lds	r24, 0x027E
    64b2:	90 91 7f 02 	lds	r25, 0x027F
    64b6:	a0 91 80 02 	lds	r26, 0x0280
    64ba:	b0 91 81 02 	lds	r27, 0x0281
    64be:	89 83       	std	Y+1, r24	; 0x01
    64c0:	9a 83       	std	Y+2, r25	; 0x02
    64c2:	ab 83       	std	Y+3, r26	; 0x03
    64c4:	bc 83       	std	Y+4, r27	; 0x04
	zacf = 0.2;
    64c6:	8d ec       	ldi	r24, 0xCD	; 205
    64c8:	9c ec       	ldi	r25, 0xCC	; 204
    64ca:	ac e4       	ldi	r26, 0x4C	; 76
    64cc:	be e3       	ldi	r27, 0x3E	; 62
    64ce:	80 93 26 02 	sts	0x0226, r24
    64d2:	90 93 27 02 	sts	0x0227, r25
    64d6:	a0 93 28 02 	sts	0x0228, r26
    64da:	b0 93 29 02 	sts	0x0229, r27
	{
		if(!gtc)
		{
			gtc = 1;
			e = (s-gyro) -z;
			e = (double)LF(sp, -sp, e * 5);
    64de:	37 01       	movw	r6, r14
    64e0:	88 24       	eor	r8, r8
    64e2:	77 fc       	sbrc	r7, 7
    64e4:	80 94       	com	r8
    64e6:	98 2c       	mov	r9, r8
    64e8:	f0 94       	com	r15
    64ea:	e1 94       	neg	r14
    64ec:	f1 08       	sbc	r15, r1
    64ee:	f3 94       	inc	r15
    64f0:	17 01       	movw	r2, r14
    64f2:	44 24       	eor	r4, r4
    64f4:	37 fc       	sbrc	r3, 7
    64f6:	40 94       	com	r4
    64f8:	54 2c       	mov	r5, r4

	double e, s = gyro;
	zacf = 0.2;
	while(1)
	{
		if(!gtc)
    64fa:	80 91 10 02 	lds	r24, 0x0210
    64fe:	90 91 11 02 	lds	r25, 0x0211
    6502:	00 97       	sbiw	r24, 0x00	; 0
    6504:	d1 f7       	brne	.-12     	; 0x64fa <At+0x148>
		{
			gtc = 1;
    6506:	a1 e0       	ldi	r26, 0x01	; 1
    6508:	b0 e0       	ldi	r27, 0x00	; 0
    650a:	b0 93 11 02 	sts	0x0211, r27
    650e:	a0 93 10 02 	sts	0x0210, r26
			e = (s-gyro) -z;
    6512:	20 91 7e 02 	lds	r18, 0x027E
    6516:	30 91 7f 02 	lds	r19, 0x027F
    651a:	40 91 80 02 	lds	r20, 0x0280
    651e:	50 91 81 02 	lds	r21, 0x0281
    6522:	69 81       	ldd	r22, Y+1	; 0x01
    6524:	7a 81       	ldd	r23, Y+2	; 0x02
    6526:	8b 81       	ldd	r24, Y+3	; 0x03
    6528:	9c 81       	ldd	r25, Y+4	; 0x04
    652a:	0e 94 50 40 	call	0x80a0	; 0x80a0 <__subsf3>
    652e:	2d 81       	ldd	r18, Y+5	; 0x05
    6530:	3e 81       	ldd	r19, Y+6	; 0x06
    6532:	4f 81       	ldd	r20, Y+7	; 0x07
    6534:	58 85       	ldd	r21, Y+8	; 0x08
    6536:	0e 94 50 40 	call	0x80a0	; 0x80a0 <__subsf3>
			e = (double)LF(sp, -sp, e * 5);
    653a:	20 e0       	ldi	r18, 0x00	; 0
    653c:	30 e0       	ldi	r19, 0x00	; 0
    653e:	40 ea       	ldi	r20, 0xA0	; 160
    6540:	50 e4       	ldi	r21, 0x40	; 64
    6542:	0e 94 2e 43 	call	0x865c	; 0x865c <__mulsf3>
    6546:	d6 2e       	mov	r13, r22
    6548:	c7 2e       	mov	r12, r23
    654a:	b8 2e       	mov	r11, r24
    654c:	a9 2e       	mov	r10, r25
    654e:	c4 01       	movw	r24, r8
    6550:	b3 01       	movw	r22, r6
    6552:	0e 94 6a 41 	call	0x82d4	; 0x82d4 <__floatsisf>
    6556:	7b 01       	movw	r14, r22
    6558:	8c 01       	movw	r16, r24
    655a:	c2 01       	movw	r24, r4
    655c:	b1 01       	movw	r22, r2
    655e:	0e 94 6a 41 	call	0x82d4	; 0x82d4 <__floatsisf>
    6562:	9b 01       	movw	r18, r22
    6564:	ac 01       	movw	r20, r24
    6566:	c8 01       	movw	r24, r16
    6568:	b7 01       	movw	r22, r14
    656a:	ed 2d       	mov	r30, r13
    656c:	fc 2d       	mov	r31, r12
    656e:	ab 2d       	mov	r26, r11
    6570:	ba 2d       	mov	r27, r10
    6572:	7f 01       	movw	r14, r30
    6574:	8d 01       	movw	r16, r26
    6576:	0e 94 49 1e 	call	0x3c92	; 0x3c92 <LF>
    657a:	7b 01       	movw	r14, r22
    657c:	8c 01       	movw	r16, r24

			if(fabs(e) <= 0.1) {LE return;}
    657e:	9f 77       	andi	r25, 0x7F	; 127
    6580:	2d ec       	ldi	r18, 0xCD	; 205
    6582:	3c ec       	ldi	r19, 0xCC	; 204
    6584:	4c ec       	ldi	r20, 0xCC	; 204
    6586:	5d e3       	ldi	r21, 0x3D	; 61
    6588:	0e 94 c8 40 	call	0x8190	; 0x8190 <__cmpsf2>
    658c:	18 16       	cp	r1, r24
    658e:	0c f4       	brge	.+2      	; 0x6592 <At+0x1e0>
    6590:	56 c0       	rjmp	.+172    	; 0x663e <At+0x28c>
    6592:	10 92 4b 02 	sts	0x024B, r1
    6596:	10 92 4a 02 	sts	0x024A, r1
    659a:	80 e0       	ldi	r24, 0x00	; 0
    659c:	90 e0       	ldi	r25, 0x00	; 0
    659e:	dc 01       	movw	r26, r24
    65a0:	80 93 93 02 	sts	0x0293, r24
    65a4:	90 93 94 02 	sts	0x0294, r25
    65a8:	a0 93 95 02 	sts	0x0295, r26
    65ac:	b0 93 96 02 	sts	0x0296, r27
    65b0:	80 91 93 02 	lds	r24, 0x0293
    65b4:	90 91 94 02 	lds	r25, 0x0294
    65b8:	a0 91 95 02 	lds	r26, 0x0295
    65bc:	b0 91 96 02 	lds	r27, 0x0296
    65c0:	80 93 1d 03 	sts	0x031D, r24
    65c4:	90 93 1e 03 	sts	0x031E, r25
    65c8:	a0 93 1f 03 	sts	0x031F, r26
    65cc:	b0 93 20 03 	sts	0x0320, r27
    65d0:	80 91 1d 03 	lds	r24, 0x031D
    65d4:	90 91 1e 03 	lds	r25, 0x031E
    65d8:	a0 91 1f 03 	lds	r26, 0x031F
    65dc:	b0 91 20 03 	lds	r27, 0x0320
    65e0:	80 93 87 02 	sts	0x0287, r24
    65e4:	90 93 88 02 	sts	0x0288, r25
    65e8:	a0 93 89 02 	sts	0x0289, r26
    65ec:	b0 93 8a 02 	sts	0x028A, r27
    65f0:	60 91 87 02 	lds	r22, 0x0287
    65f4:	70 91 88 02 	lds	r23, 0x0288
    65f8:	80 91 89 02 	lds	r24, 0x0289
    65fc:	90 91 8a 02 	lds	r25, 0x028A
    6600:	0e 94 37 41 	call	0x826e	; 0x826e <__fixsfsi>
    6604:	70 93 39 02 	sts	0x0239, r23
    6608:	60 93 38 02 	sts	0x0238, r22
			speed(0,0,e*zacf,0);
		}
	}
}
    660c:	28 96       	adiw	r28, 0x08	; 8
    660e:	0f b6       	in	r0, 0x3f	; 63
    6610:	f8 94       	cli
    6612:	de bf       	out	0x3e, r29	; 62
    6614:	0f be       	out	0x3f, r0	; 63
    6616:	cd bf       	out	0x3d, r28	; 61
    6618:	cf 91       	pop	r28
    661a:	df 91       	pop	r29
    661c:	1f 91       	pop	r17
    661e:	0f 91       	pop	r16
    6620:	ff 90       	pop	r15
    6622:	ef 90       	pop	r14
    6624:	df 90       	pop	r13
    6626:	cf 90       	pop	r12
    6628:	bf 90       	pop	r11
    662a:	af 90       	pop	r10
    662c:	9f 90       	pop	r9
    662e:	8f 90       	pop	r8
    6630:	7f 90       	pop	r7
    6632:	6f 90       	pop	r6
    6634:	5f 90       	pop	r5
    6636:	4f 90       	pop	r4
    6638:	3f 90       	pop	r3
    663a:	2f 90       	pop	r2
    663c:	08 95       	ret
			gtc = 1;
			e = (s-gyro) -z;
			e = (double)LF(sp, -sp, e * 5);

			if(fabs(e) <= 0.1) {LE return;}
			speed(0,0,e*zacf,0);
    663e:	c8 01       	movw	r24, r16
    6640:	b7 01       	movw	r22, r14
    6642:	20 91 26 02 	lds	r18, 0x0226
    6646:	30 91 27 02 	lds	r19, 0x0227
    664a:	40 91 28 02 	lds	r20, 0x0228
    664e:	50 91 29 02 	lds	r21, 0x0229
    6652:	0e 94 2e 43 	call	0x865c	; 0x865c <__mulsf3>
    6656:	7b 01       	movw	r14, r22
    6658:	8c 01       	movw	r16, r24
    665a:	60 e0       	ldi	r22, 0x00	; 0
    665c:	70 e0       	ldi	r23, 0x00	; 0
    665e:	cb 01       	movw	r24, r22
    6660:	9b 01       	movw	r18, r22
    6662:	ac 01       	movw	r20, r24
    6664:	5b 01       	movw	r10, r22
    6666:	6c 01       	movw	r12, r24
    6668:	0e 94 93 16 	call	0x2d26	; 0x2d26 <speed>
    666c:	46 cf       	rjmp	.-372    	; 0x64fa <At+0x148>

0000666e <Ad>:
		}
	}
}

void Ad(int x, int y, int z, int sp, int ac, int zsp){
    666e:	2f 92       	push	r2
    6670:	3f 92       	push	r3
    6672:	4f 92       	push	r4
    6674:	5f 92       	push	r5
    6676:	6f 92       	push	r6
    6678:	7f 92       	push	r7
    667a:	8f 92       	push	r8
    667c:	9f 92       	push	r9
    667e:	af 92       	push	r10
    6680:	bf 92       	push	r11
    6682:	cf 92       	push	r12
    6684:	df 92       	push	r13
    6686:	ef 92       	push	r14
    6688:	ff 92       	push	r15
    668a:	0f 93       	push	r16
    668c:	1f 93       	push	r17
    668e:	df 93       	push	r29
    6690:	cf 93       	push	r28
    6692:	cd b7       	in	r28, 0x3d	; 61
    6694:	de b7       	in	r29, 0x3e	; 62
    6696:	6b 97       	sbiw	r28, 0x1b	; 27
    6698:	0f b6       	in	r0, 0x3f	; 63
    669a:	f8 94       	cli
    669c:	de bf       	out	0x3e, r29	; 62
    669e:	0f be       	out	0x3f, r0	; 63
    66a0:	cd bf       	out	0x3d, r28	; 61
    66a2:	5c 01       	movw	r10, r24
    66a4:	3b 01       	movw	r6, r22
    66a6:	4a 01       	movw	r8, r20
    66a8:	29 01       	movw	r4, r18
    66aa:	18 01       	movw	r2, r16
    66ac:	67 01       	movw	r12, r14
	ginit("Ad");
    66ae:	10 92 4b 02 	sts	0x024B, r1
    66b2:	10 92 4a 02 	sts	0x024A, r1
    66b6:	10 92 11 02 	sts	0x0211, r1
    66ba:	10 92 10 02 	sts	0x0210, r1
    66be:	80 91 10 02 	lds	r24, 0x0210
    66c2:	90 91 11 02 	lds	r25, 0x0211
    66c6:	90 93 5a 03 	sts	0x035A, r25
    66ca:	80 93 59 03 	sts	0x0359, r24
    66ce:	80 91 59 03 	lds	r24, 0x0359
    66d2:	90 91 5a 03 	lds	r25, 0x035A
    66d6:	90 93 39 02 	sts	0x0239, r25
    66da:	80 93 38 02 	sts	0x0238, r24
    66de:	20 e0       	ldi	r18, 0x00	; 0
    66e0:	30 e0       	ldi	r19, 0x00	; 0
    66e2:	0f 2e       	mov	r0, r31
    66e4:	f0 e0       	ldi	r31, 0x00	; 0
    66e6:	ef 2e       	mov	r14, r31
    66e8:	f0 e0       	ldi	r31, 0x00	; 0
    66ea:	ff 2e       	mov	r15, r31
    66ec:	f0 e0       	ldi	r31, 0x00	; 0
    66ee:	0f 2f       	mov	r16, r31
    66f0:	f0 e0       	ldi	r31, 0x00	; 0
    66f2:	1f 2f       	mov	r17, r31
    66f4:	f0 2d       	mov	r31, r0
    66f6:	c9 01       	movw	r24, r18
    66f8:	88 0f       	add	r24, r24
    66fa:	99 1f       	adc	r25, r25
    66fc:	88 0f       	add	r24, r24
    66fe:	99 1f       	adc	r25, r25
    6700:	fc 01       	movw	r30, r24
    6702:	e7 5b       	subi	r30, 0xB7	; 183
    6704:	fc 4f       	sbci	r31, 0xFC	; 252
    6706:	e0 82       	st	Z, r14
    6708:	f1 82       	std	Z+1, r15	; 0x01
    670a:	02 83       	std	Z+2, r16	; 0x02
    670c:	13 83       	std	Z+3, r17	; 0x03
    670e:	40 81       	ld	r20, Z
    6710:	51 81       	ldd	r21, Z+1	; 0x01
    6712:	62 81       	ldd	r22, Z+2	; 0x02
    6714:	73 81       	ldd	r23, Z+3	; 0x03
    6716:	fc 01       	movw	r30, r24
    6718:	e9 5c       	subi	r30, 0xC9	; 201
    671a:	fc 4f       	sbci	r31, 0xFC	; 252
    671c:	40 83       	st	Z, r20
    671e:	51 83       	std	Z+1, r21	; 0x01
    6720:	62 83       	std	Z+2, r22	; 0x02
    6722:	73 83       	std	Z+3, r23	; 0x03
    6724:	2f 5f       	subi	r18, 0xFF	; 255
    6726:	3f 4f       	sbci	r19, 0xFF	; 255
    6728:	24 30       	cpi	r18, 0x04	; 4
    672a:	31 05       	cpc	r19, r1
    672c:	21 f7       	brne	.-56     	; 0x66f6 <Ad+0x88>
    672e:	00 d0       	rcall	.+0      	; 0x6730 <Ad+0xc2>
    6730:	00 d0       	rcall	.+0      	; 0x6732 <Ad+0xc4>
    6732:	00 d0       	rcall	.+0      	; 0x6734 <Ad+0xc6>
    6734:	ed b7       	in	r30, 0x3d	; 61
    6736:	fe b7       	in	r31, 0x3e	; 62
    6738:	31 96       	adiw	r30, 0x01	; 1
    673a:	01 e2       	ldi	r16, 0x21	; 33
    673c:	13 e0       	ldi	r17, 0x03	; 3
    673e:	ad b7       	in	r26, 0x3d	; 61
    6740:	be b7       	in	r27, 0x3e	; 62
    6742:	12 96       	adiw	r26, 0x02	; 2
    6744:	1c 93       	st	X, r17
    6746:	0e 93       	st	-X, r16
    6748:	11 97       	sbiw	r26, 0x01	; 1
    674a:	84 eb       	ldi	r24, 0xB4	; 180
    674c:	91 e0       	ldi	r25, 0x01	; 1
    674e:	93 83       	std	Z+3, r25	; 0x03
    6750:	82 83       	std	Z+2, r24	; 0x02
    6752:	8f ee       	ldi	r24, 0xEF	; 239
    6754:	91 e0       	ldi	r25, 0x01	; 1
    6756:	95 83       	std	Z+5, r25	; 0x05
    6758:	84 83       	std	Z+4, r24	; 0x04
    675a:	0e 94 20 40 	call	0x8040	; 0x8040 <sprintf>
    675e:	ed b7       	in	r30, 0x3d	; 61
    6760:	fe b7       	in	r31, 0x3e	; 62
    6762:	36 96       	adiw	r30, 0x06	; 6
    6764:	0f b6       	in	r0, 0x3f	; 63
    6766:	f8 94       	cli
    6768:	fe bf       	out	0x3e, r31	; 62
    676a:	0f be       	out	0x3f, r0	; 63
    676c:	ed bf       	out	0x3d, r30	; 61
    676e:	80 e0       	ldi	r24, 0x00	; 0
    6770:	67 e0       	ldi	r22, 0x07	; 7
    6772:	a8 01       	movw	r20, r16
    6774:	0e 94 67 01 	call	0x2ce	; 0x2ce <LCD>
	double e, s = gyro;
    6778:	80 91 7e 02 	lds	r24, 0x027E
    677c:	90 91 7f 02 	lds	r25, 0x027F
    6780:	a0 91 80 02 	lds	r26, 0x0280
    6784:	b0 91 81 02 	lds	r27, 0x0281
    6788:	8c 83       	std	Y+4, r24	; 0x04
    678a:	9d 83       	std	Y+5, r25	; 0x05
    678c:	ae 83       	std	Y+6, r26	; 0x06
    678e:	bf 83       	std	Y+7, r27	; 0x07
	double na=0;
	
	if(zsp) zacf = 0.2;
    6790:	c1 14       	cp	r12, r1
    6792:	d1 04       	cpc	r13, r1
    6794:	09 f4       	brne	.+2      	; 0x6798 <Ad+0x12a>
    6796:	5b c0       	rjmp	.+182    	; 0x684e <Ad+0x1e0>
    6798:	8d ec       	ldi	r24, 0xCD	; 205
    679a:	9c ec       	ldi	r25, 0xCC	; 204
    679c:	ac e4       	ldi	r26, 0x4C	; 76
    679e:	be e3       	ldi	r27, 0x3E	; 62
    67a0:	80 93 26 02 	sts	0x0226, r24
    67a4:	90 93 27 02 	sts	0x0227, r25
    67a8:	a0 93 28 02 	sts	0x0228, r26
    67ac:	b0 93 29 02 	sts	0x0229, r27
	if(zsp > 1)
    67b0:	92 e0       	ldi	r25, 0x02	; 2
    67b2:	c9 16       	cp	r12, r25
    67b4:	d1 04       	cpc	r13, r1
    67b6:	0c f4       	brge	.+2      	; 0x67ba <Ad+0x14c>
    67b8:	4a c0       	rjmp	.+148    	; 0x684e <Ad+0x1e0>
	{
		O(x,y,0,0);
    67ba:	c5 01       	movw	r24, r10
    67bc:	b3 01       	movw	r22, r6
    67be:	40 e0       	ldi	r20, 0x00	; 0
    67c0:	50 e0       	ldi	r21, 0x00	; 0
    67c2:	20 e0       	ldi	r18, 0x00	; 0
    67c4:	30 e0       	ldi	r19, 0x00	; 0
    67c6:	82 01       	movw	r16, r4
    67c8:	71 01       	movw	r14, r2
    67ca:	0e 94 11 19 	call	0x3222	; 0x3222 <Omni>
		if(x&&y)
    67ce:	a1 14       	cp	r10, r1
    67d0:	b1 04       	cpc	r11, r1
    67d2:	71 f1       	breq	.+92     	; 0x6830 <Ad+0x1c2>
    67d4:	61 14       	cp	r6, r1
    67d6:	71 04       	cpc	r7, r1
    67d8:	59 f1       	breq	.+86     	; 0x6830 <Ad+0x1c2>
			sp *= fabs(sp/hypot(msp[0],msp[1]));
    67da:	b2 01       	movw	r22, r4
    67dc:	88 27       	eor	r24, r24
    67de:	77 fd       	sbrc	r23, 7
    67e0:	80 95       	com	r24
    67e2:	98 2f       	mov	r25, r24
    67e4:	0e 94 6a 41 	call	0x82d4	; 0x82d4 <__floatsisf>
    67e8:	7b 01       	movw	r14, r22
    67ea:	8c 01       	movw	r16, r24
    67ec:	60 91 37 03 	lds	r22, 0x0337
    67f0:	70 91 38 03 	lds	r23, 0x0338
    67f4:	80 91 39 03 	lds	r24, 0x0339
    67f8:	90 91 3a 03 	lds	r25, 0x033A
    67fc:	20 91 3b 03 	lds	r18, 0x033B
    6800:	30 91 3c 03 	lds	r19, 0x033C
    6804:	40 91 3d 03 	lds	r20, 0x033D
    6808:	50 91 3e 03 	lds	r21, 0x033E
    680c:	0e 94 a0 42 	call	0x8540	; 0x8540 <hypot>
    6810:	9b 01       	movw	r18, r22
    6812:	ac 01       	movw	r20, r24
    6814:	c8 01       	movw	r24, r16
    6816:	b7 01       	movw	r22, r14
    6818:	0e 94 cf 40 	call	0x819e	; 0x819e <__divsf3>
    681c:	9b 01       	movw	r18, r22
    681e:	ac 01       	movw	r20, r24
    6820:	5f 77       	andi	r21, 0x7F	; 127
    6822:	c8 01       	movw	r24, r16
    6824:	b7 01       	movw	r22, r14
    6826:	0e 94 2e 43 	call	0x865c	; 0x865c <__mulsf3>
    682a:	0e 94 37 41 	call	0x826e	; 0x826e <__fixsfsi>
    682e:	2b 01       	movw	r4, r22
		tot = O(x,y,0,0);
    6830:	c5 01       	movw	r24, r10
    6832:	b3 01       	movw	r22, r6
    6834:	40 e0       	ldi	r20, 0x00	; 0
    6836:	50 e0       	ldi	r21, 0x00	; 0
    6838:	20 e0       	ldi	r18, 0x00	; 0
    683a:	30 e0       	ldi	r19, 0x00	; 0
    683c:	82 01       	movw	r16, r4
    683e:	71 01       	movw	r14, r2
    6840:	0e 94 11 19 	call	0x3222	; 0x3222 <Omni>
    6844:	90 93 5a 03 	sts	0x035A, r25
    6848:	80 93 59 03 	sts	0x0359, r24
    684c:	54 c0       	rjmp	.+168    	; 0x68f6 <Ad+0x288>
	}

	else 
	{
		O(x,y,z,0);
    684e:	c5 01       	movw	r24, r10
    6850:	b3 01       	movw	r22, r6
    6852:	a4 01       	movw	r20, r8
    6854:	20 e0       	ldi	r18, 0x00	; 0
    6856:	30 e0       	ldi	r19, 0x00	; 0
    6858:	82 01       	movw	r16, r4
    685a:	71 01       	movw	r14, r2
    685c:	0e 94 11 19 	call	0x3222	; 0x3222 <Omni>
		sp *= fabs(sp/hypot(msp[0],msp[1]));
    6860:	b2 01       	movw	r22, r4
    6862:	88 27       	eor	r24, r24
    6864:	77 fd       	sbrc	r23, 7
    6866:	80 95       	com	r24
    6868:	98 2f       	mov	r25, r24
    686a:	0e 94 6a 41 	call	0x82d4	; 0x82d4 <__floatsisf>
    686e:	7b 01       	movw	r14, r22
    6870:	8c 01       	movw	r16, r24
    6872:	60 91 37 03 	lds	r22, 0x0337
    6876:	70 91 38 03 	lds	r23, 0x0338
    687a:	80 91 39 03 	lds	r24, 0x0339
    687e:	90 91 3a 03 	lds	r25, 0x033A
    6882:	20 91 3b 03 	lds	r18, 0x033B
    6886:	30 91 3c 03 	lds	r19, 0x033C
    688a:	40 91 3d 03 	lds	r20, 0x033D
    688e:	50 91 3e 03 	lds	r21, 0x033E
    6892:	0e 94 a0 42 	call	0x8540	; 0x8540 <hypot>
    6896:	9b 01       	movw	r18, r22
    6898:	ac 01       	movw	r20, r24
    689a:	c8 01       	movw	r24, r16
    689c:	b7 01       	movw	r22, r14
    689e:	0e 94 cf 40 	call	0x819e	; 0x819e <__divsf3>
    68a2:	9b 01       	movw	r18, r22
    68a4:	ac 01       	movw	r20, r24
    68a6:	5f 77       	andi	r21, 0x7F	; 127
    68a8:	c8 01       	movw	r24, r16
    68aa:	b7 01       	movw	r22, r14
    68ac:	0e 94 2e 43 	call	0x865c	; 0x865c <__mulsf3>
    68b0:	0e 94 37 41 	call	0x826e	; 0x826e <__fixsfsi>
    68b4:	7b 01       	movw	r14, r22
    68b6:	8c 01       	movw	r16, r24
		tot = O(x,y,z,0);
    68b8:	c5 01       	movw	r24, r10
    68ba:	b3 01       	movw	r22, r6
    68bc:	a4 01       	movw	r20, r8
    68be:	20 e0       	ldi	r18, 0x00	; 0
    68c0:	30 e0       	ldi	r19, 0x00	; 0
    68c2:	87 01       	movw	r16, r14
    68c4:	71 01       	movw	r14, r2
    68c6:	0e 94 11 19 	call	0x3222	; 0x3222 <Omni>
    68ca:	90 93 5a 03 	sts	0x035A, r25
    68ce:	80 93 59 03 	sts	0x0359, r24
		zsp = abs((int)msp[2]);
    68d2:	60 91 3f 03 	lds	r22, 0x033F
    68d6:	70 91 40 03 	lds	r23, 0x0340
    68da:	80 91 41 03 	lds	r24, 0x0341
    68de:	90 91 42 03 	lds	r25, 0x0342
    68e2:	0e 94 37 41 	call	0x826e	; 0x826e <__fixsfsi>
    68e6:	c6 2e       	mov	r12, r22
    68e8:	d7 2e       	mov	r13, r23
    68ea:	d7 fe       	sbrs	r13, 7
    68ec:	04 c0       	rjmp	.+8      	; 0x68f6 <Ad+0x288>
    68ee:	d0 94       	com	r13
    68f0:	c1 94       	neg	r12
    68f2:	d1 08       	sbc	r13, r1
    68f4:	d3 94       	inc	r13
		}
	}
}

void Ad(int x, int y, int z, int sp, int ac, int zsp){
	ginit("Ad");
    68f6:	44 24       	eor	r4, r4
    68f8:	19 82       	std	Y+1, r1	; 0x01
    68fa:	1a 82       	std	Y+2, r1	; 0x02
    68fc:	1b 82       	std	Y+3, r1	; 0x03
		if(!gtc)
		{
			gtc = 1;
			OS

			e = (s-gyro) -z;
    68fe:	c4 01       	movw	r24, r8
    6900:	aa 27       	eor	r26, r26
    6902:	97 fd       	sbrc	r25, 7
    6904:	a0 95       	com	r26
    6906:	ba 2f       	mov	r27, r26
    6908:	88 8b       	std	Y+16, r24	; 0x10
    690a:	99 8b       	std	Y+17, r25	; 0x11
    690c:	aa 8b       	std	Y+18, r26	; 0x12
    690e:	bb 8b       	std	Y+19, r27	; 0x13
			e = (double)LF(zsp, -zsp, e * 5);
    6910:	c6 01       	movw	r24, r12
    6912:	aa 27       	eor	r26, r26
    6914:	97 fd       	sbrc	r25, 7
    6916:	a0 95       	com	r26
    6918:	ba 2f       	mov	r27, r26
    691a:	8c 8b       	std	Y+20, r24	; 0x14
    691c:	9d 8b       	std	Y+21, r25	; 0x15
    691e:	ae 8b       	std	Y+22, r26	; 0x16
    6920:	bf 8b       	std	Y+23, r27	; 0x17
    6922:	d0 94       	com	r13
    6924:	c1 94       	neg	r12
    6926:	d1 08       	sbc	r13, r1
    6928:	d3 94       	inc	r13
    692a:	c6 01       	movw	r24, r12
    692c:	aa 27       	eor	r26, r26
    692e:	97 fd       	sbrc	r25, 7
    6930:	a0 95       	com	r26
    6932:	ba 2f       	mov	r27, r26
    6934:	88 8f       	std	Y+24, r24	; 0x18
    6936:	99 8f       	std	Y+25, r25	; 0x19
    6938:	aa 8f       	std	Y+26, r26	; 0x1a
    693a:	bb 8f       	std	Y+27, r27	; 0x1b
		zsp = abs((int)msp[2]);
	}	

	while(1)
	{
		if(!gtc)
    693c:	80 91 10 02 	lds	r24, 0x0210
    6940:	90 91 11 02 	lds	r25, 0x0211
    6944:	00 97       	sbiw	r24, 0x00	; 0
    6946:	d1 f7       	brne	.-12     	; 0x693c <Ad+0x2ce>
		{
			gtc = 1;
    6948:	a1 e0       	ldi	r26, 0x01	; 1
    694a:	b0 e0       	ldi	r27, 0x00	; 0
    694c:	b0 93 11 02 	sts	0x0211, r27
    6950:	a0 93 10 02 	sts	0x0210, r26
			OS
    6954:	80 91 59 03 	lds	r24, 0x0359
    6958:	90 91 5a 03 	lds	r25, 0x035A
    695c:	b1 01       	movw	r22, r2
    695e:	0e 94 00 1a 	call	0x3400	; 0x3400 <OmniSet>

			e = (s-gyro) -z;
    6962:	20 91 7e 02 	lds	r18, 0x027E
    6966:	30 91 7f 02 	lds	r19, 0x027F
    696a:	40 91 80 02 	lds	r20, 0x0280
    696e:	50 91 81 02 	lds	r21, 0x0281
    6972:	6c 81       	ldd	r22, Y+4	; 0x04
    6974:	7d 81       	ldd	r23, Y+5	; 0x05
    6976:	8e 81       	ldd	r24, Y+6	; 0x06
    6978:	9f 81       	ldd	r25, Y+7	; 0x07
    697a:	0e 94 50 40 	call	0x80a0	; 0x80a0 <__subsf3>
    697e:	7b 01       	movw	r14, r22
    6980:	8c 01       	movw	r16, r24
    6982:	68 89       	ldd	r22, Y+16	; 0x10
    6984:	79 89       	ldd	r23, Y+17	; 0x11
    6986:	8a 89       	ldd	r24, Y+18	; 0x12
    6988:	9b 89       	ldd	r25, Y+19	; 0x13
    698a:	0e 94 6a 41 	call	0x82d4	; 0x82d4 <__floatsisf>
    698e:	9b 01       	movw	r18, r22
    6990:	ac 01       	movw	r20, r24
    6992:	c8 01       	movw	r24, r16
    6994:	b7 01       	movw	r22, r14
    6996:	0e 94 50 40 	call	0x80a0	; 0x80a0 <__subsf3>
			e = (double)LF(zsp, -zsp, e * 5);
    699a:	20 e0       	ldi	r18, 0x00	; 0
    699c:	30 e0       	ldi	r19, 0x00	; 0
    699e:	40 ea       	ldi	r20, 0xA0	; 160
    69a0:	50 e4       	ldi	r21, 0x40	; 64
    69a2:	0e 94 2e 43 	call	0x865c	; 0x865c <__mulsf3>
    69a6:	d6 2e       	mov	r13, r22
    69a8:	c7 2e       	mov	r12, r23
    69aa:	a8 2e       	mov	r10, r24
    69ac:	89 2e       	mov	r8, r25
    69ae:	6c 89       	ldd	r22, Y+20	; 0x14
    69b0:	7d 89       	ldd	r23, Y+21	; 0x15
    69b2:	8e 89       	ldd	r24, Y+22	; 0x16
    69b4:	9f 89       	ldd	r25, Y+23	; 0x17
    69b6:	0e 94 6a 41 	call	0x82d4	; 0x82d4 <__floatsisf>
    69ba:	7b 01       	movw	r14, r22
    69bc:	8c 01       	movw	r16, r24
    69be:	68 8d       	ldd	r22, Y+24	; 0x18
    69c0:	79 8d       	ldd	r23, Y+25	; 0x19
    69c2:	8a 8d       	ldd	r24, Y+26	; 0x1a
    69c4:	9b 8d       	ldd	r25, Y+27	; 0x1b
    69c6:	0e 94 6a 41 	call	0x82d4	; 0x82d4 <__floatsisf>
    69ca:	9b 01       	movw	r18, r22
    69cc:	ac 01       	movw	r20, r24
    69ce:	c8 01       	movw	r24, r16
    69d0:	b7 01       	movw	r22, r14
    69d2:	d6 01       	movw	r26, r12
    69d4:	eb 2e       	mov	r14, r27
    69d6:	fa 2e       	mov	r15, r26
    69d8:	0a 2d       	mov	r16, r10
    69da:	18 2d       	mov	r17, r8
    69dc:	0e 94 49 1e 	call	0x3c92	; 0x3c92 <LF>
    69e0:	4b 01       	movw	r8, r22
    69e2:	5c 01       	movw	r10, r24

			gsp[2] = e*zacf;
    69e4:	20 91 26 02 	lds	r18, 0x0226
    69e8:	30 91 27 02 	lds	r19, 0x0227
    69ec:	40 91 28 02 	lds	r20, 0x0228
    69f0:	50 91 29 02 	lds	r21, 0x0229
    69f4:	0e 94 2e 43 	call	0x865c	; 0x865c <__mulsf3>
    69f8:	9b 01       	movw	r18, r22
    69fa:	ac 01       	movw	r20, r24
    69fc:	20 93 51 03 	sts	0x0351, r18
    6a00:	30 93 52 03 	sts	0x0352, r19
    6a04:	40 93 53 03 	sts	0x0353, r20
    6a08:	50 93 54 03 	sts	0x0354, r21
			na += -gsp[2]/100;
    6a0c:	60 91 51 03 	lds	r22, 0x0351
    6a10:	70 91 52 03 	lds	r23, 0x0352
    6a14:	80 91 53 03 	lds	r24, 0x0353
    6a18:	90 91 54 03 	lds	r25, 0x0354
    6a1c:	90 58       	subi	r25, 0x80	; 128
    6a1e:	20 e0       	ldi	r18, 0x00	; 0
    6a20:	30 e0       	ldi	r19, 0x00	; 0
    6a22:	48 ec       	ldi	r20, 0xC8	; 200
    6a24:	52 e4       	ldi	r21, 0x42	; 66
    6a26:	0e 94 cf 40 	call	0x819e	; 0x819e <__divsf3>
    6a2a:	9b 01       	movw	r18, r22
    6a2c:	ac 01       	movw	r20, r24
    6a2e:	a9 81       	ldd	r26, Y+1	; 0x01
    6a30:	0a 81       	ldd	r16, Y+2	; 0x02
    6a32:	eb 80       	ldd	r14, Y+3	; 0x03
    6a34:	64 2d       	mov	r22, r4
    6a36:	7a 2f       	mov	r23, r26
    6a38:	80 2f       	mov	r24, r16
    6a3a:	9e 2d       	mov	r25, r14
    6a3c:	0e 94 51 40 	call	0x80a2	; 0x80a2 <__addsf3>
    6a40:	e6 2e       	mov	r14, r22
    6a42:	07 2f       	mov	r16, r23
    6a44:	d8 2e       	mov	r13, r24
    6a46:	c9 2e       	mov	r12, r25
    6a48:	46 2e       	mov	r4, r22
    6a4a:	79 83       	std	Y+1, r23	; 0x01
    6a4c:	8a 83       	std	Y+2, r24	; 0x02
    6a4e:	9b 83       	std	Y+3, r25	; 0x03

			if(!oc)oc=1;
    6a50:	80 91 38 02 	lds	r24, 0x0238
    6a54:	90 91 39 02 	lds	r25, 0x0239
    6a58:	00 97       	sbiw	r24, 0x00	; 0
    6a5a:	31 f4       	brne	.+12     	; 0x6a68 <Ad+0x3fa>
    6a5c:	e1 e0       	ldi	r30, 0x01	; 1
    6a5e:	f0 e0       	ldi	r31, 0x00	; 0
    6a60:	f0 93 39 02 	sts	0x0239, r31
    6a64:	e0 93 38 02 	sts	0x0238, r30
			if(oc>tot){gsp[0]=gsp[1]=0;}
    6a68:	80 91 59 03 	lds	r24, 0x0359
    6a6c:	90 91 5a 03 	lds	r25, 0x035A
    6a70:	20 91 38 02 	lds	r18, 0x0238
    6a74:	30 91 39 02 	lds	r19, 0x0239
    6a78:	82 17       	cp	r24, r18
    6a7a:	93 07       	cpc	r25, r19
    6a7c:	dc f4       	brge	.+54     	; 0x6ab4 <Ad+0x446>
    6a7e:	80 e0       	ldi	r24, 0x00	; 0
    6a80:	90 e0       	ldi	r25, 0x00	; 0
    6a82:	dc 01       	movw	r26, r24
    6a84:	80 93 4d 03 	sts	0x034D, r24
    6a88:	90 93 4e 03 	sts	0x034E, r25
    6a8c:	a0 93 4f 03 	sts	0x034F, r26
    6a90:	b0 93 50 03 	sts	0x0350, r27
    6a94:	80 91 4d 03 	lds	r24, 0x034D
    6a98:	90 91 4e 03 	lds	r25, 0x034E
    6a9c:	a0 91 4f 03 	lds	r26, 0x034F
    6aa0:	b0 91 50 03 	lds	r27, 0x0350
    6aa4:	80 93 49 03 	sts	0x0349, r24
    6aa8:	90 93 4a 03 	sts	0x034A, r25
    6aac:	a0 93 4b 03 	sts	0x034B, r26
    6ab0:	b0 93 4c 03 	sts	0x034C, r27
			if(abs(e)<=0.1){gsp[2] = 0;}
    6ab4:	c5 01       	movw	r24, r10
    6ab6:	b4 01       	movw	r22, r8
    6ab8:	0e 94 37 41 	call	0x826e	; 0x826e <__fixsfsi>
    6abc:	77 ff       	sbrs	r23, 7
    6abe:	03 c0       	rjmp	.+6      	; 0x6ac6 <Ad+0x458>
    6ac0:	70 95       	com	r23
    6ac2:	61 95       	neg	r22
    6ac4:	7f 4f       	sbci	r23, 0xFF	; 255
    6ac6:	88 27       	eor	r24, r24
    6ac8:	77 fd       	sbrc	r23, 7
    6aca:	80 95       	com	r24
    6acc:	98 2f       	mov	r25, r24
    6ace:	0e 94 6a 41 	call	0x82d4	; 0x82d4 <__floatsisf>
    6ad2:	55 24       	eor	r5, r5
    6ad4:	53 94       	inc	r5
    6ad6:	2d ec       	ldi	r18, 0xCD	; 205
    6ad8:	3c ec       	ldi	r19, 0xCC	; 204
    6ada:	4c ec       	ldi	r20, 0xCC	; 204
    6adc:	5d e3       	ldi	r21, 0x3D	; 61
    6ade:	0e 94 c8 40 	call	0x8190	; 0x8190 <__cmpsf2>
    6ae2:	18 16       	cp	r1, r24
    6ae4:	14 f4       	brge	.+4      	; 0x6aea <Ad+0x47c>
    6ae6:	55 24       	eor	r5, r5
    6ae8:	0b c0       	rjmp	.+22     	; 0x6b00 <Ad+0x492>
    6aea:	80 e0       	ldi	r24, 0x00	; 0
    6aec:	90 e0       	ldi	r25, 0x00	; 0
    6aee:	dc 01       	movw	r26, r24
    6af0:	80 93 51 03 	sts	0x0351, r24
    6af4:	90 93 52 03 	sts	0x0352, r25
    6af8:	a0 93 53 03 	sts	0x0353, r26
    6afc:	b0 93 54 03 	sts	0x0354, r27
			
			speed(gsp[0],gsp[1],gsp[2],wa+na);
    6b00:	80 91 49 03 	lds	r24, 0x0349
    6b04:	90 91 4a 03 	lds	r25, 0x034A
    6b08:	a0 91 4b 03 	lds	r26, 0x034B
    6b0c:	b0 91 4c 03 	lds	r27, 0x034C
    6b10:	88 87       	std	Y+8, r24	; 0x08
    6b12:	99 87       	std	Y+9, r25	; 0x09
    6b14:	aa 87       	std	Y+10, r26	; 0x0a
    6b16:	bb 87       	std	Y+11, r27	; 0x0b
    6b18:	80 91 4d 03 	lds	r24, 0x034D
    6b1c:	90 91 4e 03 	lds	r25, 0x034E
    6b20:	a0 91 4f 03 	lds	r26, 0x034F
    6b24:	b0 91 50 03 	lds	r27, 0x0350
    6b28:	8c 87       	std	Y+12, r24	; 0x0c
    6b2a:	9d 87       	std	Y+13, r25	; 0x0d
    6b2c:	ae 87       	std	Y+14, r26	; 0x0e
    6b2e:	bf 87       	std	Y+15, r27	; 0x0f
    6b30:	60 90 51 03 	lds	r6, 0x0351
    6b34:	70 90 52 03 	lds	r7, 0x0352
    6b38:	80 90 53 03 	lds	r8, 0x0353
    6b3c:	90 90 54 03 	lds	r9, 0x0354
    6b40:	60 91 5e 02 	lds	r22, 0x025E
    6b44:	70 91 5f 02 	lds	r23, 0x025F
    6b48:	88 27       	eor	r24, r24
    6b4a:	77 fd       	sbrc	r23, 7
    6b4c:	80 95       	com	r24
    6b4e:	98 2f       	mov	r25, r24
    6b50:	0e 94 6a 41 	call	0x82d4	; 0x82d4 <__floatsisf>
    6b54:	f6 01       	movw	r30, r12
    6b56:	2e 2d       	mov	r18, r14
    6b58:	30 2f       	mov	r19, r16
    6b5a:	4f 2f       	mov	r20, r31
    6b5c:	5c 2d       	mov	r21, r12
    6b5e:	0e 94 51 40 	call	0x80a2	; 0x80a2 <__addsf3>
    6b62:	5b 01       	movw	r10, r22
    6b64:	6c 01       	movw	r12, r24
    6b66:	68 85       	ldd	r22, Y+8	; 0x08
    6b68:	79 85       	ldd	r23, Y+9	; 0x09
    6b6a:	8a 85       	ldd	r24, Y+10	; 0x0a
    6b6c:	9b 85       	ldd	r25, Y+11	; 0x0b
    6b6e:	2c 85       	ldd	r18, Y+12	; 0x0c
    6b70:	3d 85       	ldd	r19, Y+13	; 0x0d
    6b72:	4e 85       	ldd	r20, Y+14	; 0x0e
    6b74:	5f 85       	ldd	r21, Y+15	; 0x0f
    6b76:	84 01       	movw	r16, r8
    6b78:	73 01       	movw	r14, r6
    6b7a:	0e 94 93 16 	call	0x2d26	; 0x2d26 <speed>
			if(oc>tot && abs(e)<=0.1) {LE return;}
    6b7e:	80 91 59 03 	lds	r24, 0x0359
    6b82:	90 91 5a 03 	lds	r25, 0x035A
    6b86:	20 91 38 02 	lds	r18, 0x0238
    6b8a:	30 91 39 02 	lds	r19, 0x0239
    6b8e:	82 17       	cp	r24, r18
    6b90:	93 07       	cpc	r25, r19
    6b92:	0c f0       	brlt	.+2      	; 0x6b96 <Ad+0x528>
    6b94:	d3 ce       	rjmp	.-602    	; 0x693c <Ad+0x2ce>
    6b96:	55 20       	and	r5, r5
    6b98:	09 f4       	brne	.+2      	; 0x6b9c <Ad+0x52e>
    6b9a:	d0 ce       	rjmp	.-608    	; 0x693c <Ad+0x2ce>
    6b9c:	10 92 4b 02 	sts	0x024B, r1
    6ba0:	10 92 4a 02 	sts	0x024A, r1
    6ba4:	80 e0       	ldi	r24, 0x00	; 0
    6ba6:	90 e0       	ldi	r25, 0x00	; 0
    6ba8:	dc 01       	movw	r26, r24
    6baa:	80 93 93 02 	sts	0x0293, r24
    6bae:	90 93 94 02 	sts	0x0294, r25
    6bb2:	a0 93 95 02 	sts	0x0295, r26
    6bb6:	b0 93 96 02 	sts	0x0296, r27
    6bba:	80 91 93 02 	lds	r24, 0x0293
    6bbe:	90 91 94 02 	lds	r25, 0x0294
    6bc2:	a0 91 95 02 	lds	r26, 0x0295
    6bc6:	b0 91 96 02 	lds	r27, 0x0296
    6bca:	80 93 1d 03 	sts	0x031D, r24
    6bce:	90 93 1e 03 	sts	0x031E, r25
    6bd2:	a0 93 1f 03 	sts	0x031F, r26
    6bd6:	b0 93 20 03 	sts	0x0320, r27
    6bda:	80 91 1d 03 	lds	r24, 0x031D
    6bde:	90 91 1e 03 	lds	r25, 0x031E
    6be2:	a0 91 1f 03 	lds	r26, 0x031F
    6be6:	b0 91 20 03 	lds	r27, 0x0320
    6bea:	80 93 87 02 	sts	0x0287, r24
    6bee:	90 93 88 02 	sts	0x0288, r25
    6bf2:	a0 93 89 02 	sts	0x0289, r26
    6bf6:	b0 93 8a 02 	sts	0x028A, r27
    6bfa:	60 91 87 02 	lds	r22, 0x0287
    6bfe:	70 91 88 02 	lds	r23, 0x0288
    6c02:	80 91 89 02 	lds	r24, 0x0289
    6c06:	90 91 8a 02 	lds	r25, 0x028A
    6c0a:	0e 94 37 41 	call	0x826e	; 0x826e <__fixsfsi>
    6c0e:	70 93 39 02 	sts	0x0239, r23
    6c12:	60 93 38 02 	sts	0x0238, r22
		}
	}
}
    6c16:	6b 96       	adiw	r28, 0x1b	; 27
    6c18:	0f b6       	in	r0, 0x3f	; 63
    6c1a:	f8 94       	cli
    6c1c:	de bf       	out	0x3e, r29	; 62
    6c1e:	0f be       	out	0x3f, r0	; 63
    6c20:	cd bf       	out	0x3d, r28	; 61
    6c22:	cf 91       	pop	r28
    6c24:	df 91       	pop	r29
    6c26:	1f 91       	pop	r17
    6c28:	0f 91       	pop	r16
    6c2a:	ff 90       	pop	r15
    6c2c:	ef 90       	pop	r14
    6c2e:	df 90       	pop	r13
    6c30:	cf 90       	pop	r12
    6c32:	bf 90       	pop	r11
    6c34:	af 90       	pop	r10
    6c36:	9f 90       	pop	r9
    6c38:	8f 90       	pop	r8
    6c3a:	7f 90       	pop	r7
    6c3c:	6f 90       	pop	r6
    6c3e:	5f 90       	pop	r5
    6c40:	4f 90       	pop	r4
    6c42:	3f 90       	pop	r3
    6c44:	2f 90       	pop	r2
    6c46:	08 95       	ret

00006c48 <Avoid>:

void Avoid(int ps, int pm ,int pm2, int dis, int y, int sp, int ac){
    6c48:	2f 92       	push	r2
    6c4a:	3f 92       	push	r3
    6c4c:	4f 92       	push	r4
    6c4e:	5f 92       	push	r5
    6c50:	6f 92       	push	r6
    6c52:	7f 92       	push	r7
    6c54:	8f 92       	push	r8
    6c56:	9f 92       	push	r9
    6c58:	af 92       	push	r10
    6c5a:	bf 92       	push	r11
    6c5c:	cf 92       	push	r12
    6c5e:	df 92       	push	r13
    6c60:	ef 92       	push	r14
    6c62:	ff 92       	push	r15
    6c64:	0f 93       	push	r16
    6c66:	1f 93       	push	r17
    6c68:	df 93       	push	r29
    6c6a:	cf 93       	push	r28
    6c6c:	cd b7       	in	r28, 0x3d	; 61
    6c6e:	de b7       	in	r29, 0x3e	; 62
    6c70:	68 97       	sbiw	r28, 0x18	; 24
    6c72:	0f b6       	in	r0, 0x3f	; 63
    6c74:	f8 94       	cli
    6c76:	de bf       	out	0x3e, r29	; 62
    6c78:	0f be       	out	0x3f, r0	; 63
    6c7a:	cd bf       	out	0x3d, r28	; 61
    6c7c:	9a 83       	std	Y+2, r25	; 0x02
    6c7e:	89 83       	std	Y+1, r24	; 0x01
    6c80:	7e 83       	std	Y+6, r23	; 0x06
    6c82:	6d 83       	std	Y+5, r22	; 0x05
    6c84:	58 87       	std	Y+8, r21	; 0x08
    6c86:	4f 83       	std	Y+7, r20	; 0x07
    6c88:	3a 87       	std	Y+10, r19	; 0x0a
    6c8a:	29 87       	std	Y+9, r18	; 0x09
    6c8c:	57 01       	movw	r10, r14
    6c8e:	dc 86       	std	Y+12, r13	; 0x0c
    6c90:	cb 86       	std	Y+11, r12	; 0x0b
	ginit("Avoid");	
    6c92:	10 92 4b 02 	sts	0x024B, r1
    6c96:	10 92 4a 02 	sts	0x024A, r1
    6c9a:	10 92 11 02 	sts	0x0211, r1
    6c9e:	10 92 10 02 	sts	0x0210, r1
    6ca2:	80 91 10 02 	lds	r24, 0x0210
    6ca6:	90 91 11 02 	lds	r25, 0x0211
    6caa:	90 93 5a 03 	sts	0x035A, r25
    6cae:	80 93 59 03 	sts	0x0359, r24
    6cb2:	80 91 59 03 	lds	r24, 0x0359
    6cb6:	90 91 5a 03 	lds	r25, 0x035A
    6cba:	90 93 39 02 	sts	0x0239, r25
    6cbe:	80 93 38 02 	sts	0x0238, r24
    6cc2:	60 e0       	ldi	r22, 0x00	; 0
    6cc4:	70 e0       	ldi	r23, 0x00	; 0
    6cc6:	80 e0       	ldi	r24, 0x00	; 0
    6cc8:	90 e0       	ldi	r25, 0x00	; 0
    6cca:	dc 01       	movw	r26, r24
    6ccc:	9b 01       	movw	r18, r22
    6cce:	22 0f       	add	r18, r18
    6cd0:	33 1f       	adc	r19, r19
    6cd2:	22 0f       	add	r18, r18
    6cd4:	33 1f       	adc	r19, r19
    6cd6:	f9 01       	movw	r30, r18
    6cd8:	e7 5b       	subi	r30, 0xB7	; 183
    6cda:	fc 4f       	sbci	r31, 0xFC	; 252
    6cdc:	80 83       	st	Z, r24
    6cde:	91 83       	std	Z+1, r25	; 0x01
    6ce0:	a2 83       	std	Z+2, r26	; 0x02
    6ce2:	b3 83       	std	Z+3, r27	; 0x03
    6ce4:	60 80       	ld	r6, Z
    6ce6:	71 80       	ldd	r7, Z+1	; 0x01
    6ce8:	82 80       	ldd	r8, Z+2	; 0x02
    6cea:	93 80       	ldd	r9, Z+3	; 0x03
    6cec:	29 5c       	subi	r18, 0xC9	; 201
    6cee:	3c 4f       	sbci	r19, 0xFC	; 252
    6cf0:	f9 01       	movw	r30, r18
    6cf2:	60 82       	st	Z, r6
    6cf4:	71 82       	std	Z+1, r7	; 0x01
    6cf6:	82 82       	std	Z+2, r8	; 0x02
    6cf8:	93 82       	std	Z+3, r9	; 0x03
    6cfa:	6f 5f       	subi	r22, 0xFF	; 255
    6cfc:	7f 4f       	sbci	r23, 0xFF	; 255
    6cfe:	64 30       	cpi	r22, 0x04	; 4
    6d00:	71 05       	cpc	r23, r1
    6d02:	21 f7       	brne	.-56     	; 0x6ccc <Avoid+0x84>
    6d04:	00 d0       	rcall	.+0      	; 0x6d06 <Avoid+0xbe>
    6d06:	00 d0       	rcall	.+0      	; 0x6d08 <Avoid+0xc0>
    6d08:	00 d0       	rcall	.+0      	; 0x6d0a <Avoid+0xc2>
    6d0a:	ed b7       	in	r30, 0x3d	; 61
    6d0c:	fe b7       	in	r31, 0x3e	; 62
    6d0e:	31 96       	adiw	r30, 0x01	; 1
    6d10:	51 e2       	ldi	r21, 0x21	; 33
    6d12:	e5 2e       	mov	r14, r21
    6d14:	53 e0       	ldi	r21, 0x03	; 3
    6d16:	f5 2e       	mov	r15, r21
    6d18:	ad b7       	in	r26, 0x3d	; 61
    6d1a:	be b7       	in	r27, 0x3e	; 62
    6d1c:	12 96       	adiw	r26, 0x02	; 2
    6d1e:	fc 92       	st	X, r15
    6d20:	ee 92       	st	-X, r14
    6d22:	11 97       	sbiw	r26, 0x01	; 1
    6d24:	84 eb       	ldi	r24, 0xB4	; 180
    6d26:	91 e0       	ldi	r25, 0x01	; 1
    6d28:	93 83       	std	Z+3, r25	; 0x03
    6d2a:	82 83       	std	Z+2, r24	; 0x02
    6d2c:	82 ef       	ldi	r24, 0xF2	; 242
    6d2e:	91 e0       	ldi	r25, 0x01	; 1
    6d30:	95 83       	std	Z+5, r25	; 0x05
    6d32:	84 83       	std	Z+4, r24	; 0x04
    6d34:	0e 94 20 40 	call	0x8040	; 0x8040 <sprintf>
    6d38:	ed b7       	in	r30, 0x3d	; 61
    6d3a:	fe b7       	in	r31, 0x3e	; 62
    6d3c:	36 96       	adiw	r30, 0x06	; 6
    6d3e:	0f b6       	in	r0, 0x3f	; 63
    6d40:	f8 94       	cli
    6d42:	fe bf       	out	0x3e, r31	; 62
    6d44:	0f be       	out	0x3f, r0	; 63
    6d46:	ed bf       	out	0x3d, r30	; 61
    6d48:	80 e0       	ldi	r24, 0x00	; 0
    6d4a:	67 e0       	ldi	r22, 0x07	; 7
    6d4c:	a7 01       	movw	r20, r14
    6d4e:	0e 94 67 01 	call	0x2ce	; 0x2ce <LCD>
	int zig=0,l=(ps+1)%9,r=(ps+8)%9,d=1;
    6d52:	89 81       	ldd	r24, Y+1	; 0x01
    6d54:	9a 81       	ldd	r25, Y+2	; 0x02
    6d56:	01 96       	adiw	r24, 0x01	; 1
    6d58:	29 e0       	ldi	r18, 0x09	; 9
    6d5a:	30 e0       	ldi	r19, 0x00	; 0
    6d5c:	b9 01       	movw	r22, r18
    6d5e:	0e 94 cc 46 	call	0x8d98	; 0x8d98 <__divmodhi4>
    6d62:	3c 01       	movw	r6, r24
    6d64:	89 81       	ldd	r24, Y+1	; 0x01
    6d66:	9a 81       	ldd	r25, Y+2	; 0x02
    6d68:	08 96       	adiw	r24, 0x08	; 8
    6d6a:	b9 01       	movw	r22, r18
    6d6c:	0e 94 cc 46 	call	0x8d98	; 0x8d98 <__divmodhi4>
    6d70:	1c 01       	movw	r2, r24
	double s=gyro,e;
    6d72:	80 91 7e 02 	lds	r24, 0x027E
    6d76:	90 91 7f 02 	lds	r25, 0x027F
    6d7a:	a0 91 80 02 	lds	r26, 0x0280
    6d7e:	b0 91 81 02 	lds	r27, 0x0281
    6d82:	89 8b       	std	Y+17, r24	; 0x11
    6d84:	9a 8b       	std	Y+18, r25	; 0x12
    6d86:	ab 8b       	std	Y+19, r26	; 0x13
    6d88:	bc 8b       	std	Y+20, r27	; 0x14
	if(y<0) d= -1;
    6d8a:	17 fd       	sbrc	r17, 7
    6d8c:	05 c0       	rjmp	.+10     	; 0x6d98 <Avoid+0x150>
	}
}

void Avoid(int ps, int pm ,int pm2, int dis, int y, int sp, int ac){
	ginit("Avoid");	
	int zig=0,l=(ps+1)%9,r=(ps+8)%9,d=1;
    6d8e:	a1 e0       	ldi	r26, 0x01	; 1
    6d90:	b0 e0       	ldi	r27, 0x00	; 0
    6d92:	bc 83       	std	Y+4, r27	; 0x04
    6d94:	ab 83       	std	Y+3, r26	; 0x03
    6d96:	04 c0       	rjmp	.+8      	; 0x6da0 <Avoid+0x158>
	double s=gyro,e;
	if(y<0) d= -1;
    6d98:	ef ef       	ldi	r30, 0xFF	; 255
    6d9a:	ff ef       	ldi	r31, 0xFF	; 255
    6d9c:	fc 83       	std	Y+4, r31	; 0x04
    6d9e:	eb 83       	std	Y+3, r30	; 0x03
	tot = O(0,y,0,0);
    6da0:	80 e0       	ldi	r24, 0x00	; 0
    6da2:	90 e0       	ldi	r25, 0x00	; 0
    6da4:	b8 01       	movw	r22, r16
    6da6:	40 e0       	ldi	r20, 0x00	; 0
    6da8:	50 e0       	ldi	r21, 0x00	; 0
    6daa:	20 e0       	ldi	r18, 0x00	; 0
    6dac:	30 e0       	ldi	r19, 0x00	; 0
    6dae:	85 01       	movw	r16, r10
    6db0:	eb 84       	ldd	r14, Y+11	; 0x0b
    6db2:	fc 84       	ldd	r15, Y+12	; 0x0c
    6db4:	0e 94 11 19 	call	0x3222	; 0x3222 <Omni>
    6db8:	90 93 5a 03 	sts	0x035A, r25
    6dbc:	80 93 59 03 	sts	0x0359, r24
		{
			gtc = 1;
			OS

			e = s-gyro;
			e *= (sp+10)/10;
    6dc0:	c5 01       	movw	r24, r10
    6dc2:	0a 96       	adiw	r24, 0x0a	; 10
    6dc4:	6a e0       	ldi	r22, 0x0A	; 10
    6dc6:	70 e0       	ldi	r23, 0x00	; 0
    6dc8:	0e 94 cc 46 	call	0x8d98	; 0x8d98 <__divmodhi4>
    6dcc:	cb 01       	movw	r24, r22
    6dce:	aa 27       	eor	r26, r26
    6dd0:	97 fd       	sbrc	r25, 7
    6dd2:	a0 95       	com	r26
    6dd4:	ba 2f       	mov	r27, r26
    6dd6:	8d 8b       	std	Y+21, r24	; 0x15
    6dd8:	9e 8b       	std	Y+22, r25	; 0x16
    6dda:	af 8b       	std	Y+23, r26	; 0x17
    6ddc:	b8 8f       	std	Y+24, r27	; 0x18
			if(fabs(e) > 30) e = 0;
		
			zig=0;
			if(g_psd[l] <= pm) zig += (g_psd[l]-pm)*3.5;
    6dde:	d3 01       	movw	r26, r6
    6de0:	a4 5d       	subi	r26, 0xD4	; 212
    6de2:	bd 4f       	sbci	r27, 0xFD	; 253
    6de4:	be 87       	std	Y+14, r27	; 0x0e
    6de6:	ad 87       	std	Y+13, r26	; 0x0d
			if(g_psd[r] <= pm2) zig += (g_psd[r]-pm2)*-3.5;
    6de8:	f1 01       	movw	r30, r2
    6dea:	e4 5d       	subi	r30, 0xD4	; 212
    6dec:	fd 4f       	sbci	r31, 0xFD	; 253
    6dee:	f8 8b       	std	Y+16, r31	; 0x10
    6df0:	ef 87       	std	Y+15, r30	; 0x0f
	double s=gyro,e;
	if(y<0) d= -1;
	tot = O(0,y,0,0);
	while(1)
	{
		if(!gtc)
    6df2:	80 91 10 02 	lds	r24, 0x0210
    6df6:	90 91 11 02 	lds	r25, 0x0211
    6dfa:	00 97       	sbiw	r24, 0x00	; 0
    6dfc:	d1 f7       	brne	.-12     	; 0x6df2 <Avoid+0x1aa>
		{
			gtc = 1;
    6dfe:	21 e0       	ldi	r18, 0x01	; 1
    6e00:	30 e0       	ldi	r19, 0x00	; 0
    6e02:	30 93 11 02 	sts	0x0211, r19
    6e06:	20 93 10 02 	sts	0x0210, r18
			OS
    6e0a:	80 91 59 03 	lds	r24, 0x0359
    6e0e:	90 91 5a 03 	lds	r25, 0x035A
    6e12:	6b 85       	ldd	r22, Y+11	; 0x0b
    6e14:	7c 85       	ldd	r23, Y+12	; 0x0c
    6e16:	0e 94 00 1a 	call	0x3400	; 0x3400 <OmniSet>

			e = s-gyro;
    6e1a:	20 91 7e 02 	lds	r18, 0x027E
    6e1e:	30 91 7f 02 	lds	r19, 0x027F
    6e22:	40 91 80 02 	lds	r20, 0x0280
    6e26:	50 91 81 02 	lds	r21, 0x0281
    6e2a:	69 89       	ldd	r22, Y+17	; 0x11
    6e2c:	7a 89       	ldd	r23, Y+18	; 0x12
    6e2e:	8b 89       	ldd	r24, Y+19	; 0x13
    6e30:	9c 89       	ldd	r25, Y+20	; 0x14
    6e32:	0e 94 50 40 	call	0x80a0	; 0x80a0 <__subsf3>
    6e36:	66 2e       	mov	r6, r22
    6e38:	a7 2e       	mov	r10, r23
    6e3a:	e8 2e       	mov	r14, r24
    6e3c:	09 2f       	mov	r16, r25
			e *= (sp+10)/10;
    6e3e:	6d 89       	ldd	r22, Y+21	; 0x15
    6e40:	7e 89       	ldd	r23, Y+22	; 0x16
    6e42:	8f 89       	ldd	r24, Y+23	; 0x17
    6e44:	98 8d       	ldd	r25, Y+24	; 0x18
    6e46:	0e 94 6a 41 	call	0x82d4	; 0x82d4 <__floatsisf>
    6e4a:	9b 01       	movw	r18, r22
    6e4c:	ac 01       	movw	r20, r24
    6e4e:	66 2d       	mov	r22, r6
    6e50:	7a 2d       	mov	r23, r10
    6e52:	8e 2d       	mov	r24, r14
    6e54:	90 2f       	mov	r25, r16
    6e56:	0e 94 2e 43 	call	0x865c	; 0x865c <__mulsf3>
    6e5a:	e6 2e       	mov	r14, r22
    6e5c:	f7 2e       	mov	r15, r23
    6e5e:	08 2f       	mov	r16, r24
    6e60:	19 2f       	mov	r17, r25
			if(fabs(e) > 30) e = 0;
    6e62:	c8 01       	movw	r24, r16
    6e64:	b7 01       	movw	r22, r14
    6e66:	9f 77       	andi	r25, 0x7F	; 127
    6e68:	20 e0       	ldi	r18, 0x00	; 0
    6e6a:	30 e0       	ldi	r19, 0x00	; 0
    6e6c:	40 ef       	ldi	r20, 0xF0	; 240
    6e6e:	51 e4       	ldi	r21, 0x41	; 65
    6e70:	0e 94 93 42 	call	0x8526	; 0x8526 <__gesf2>
    6e74:	18 16       	cp	r1, r24
    6e76:	54 f4       	brge	.+20     	; 0x6e8c <Avoid+0x244>
    6e78:	0f 2e       	mov	r0, r31
    6e7a:	f0 e0       	ldi	r31, 0x00	; 0
    6e7c:	ef 2e       	mov	r14, r31
    6e7e:	f0 e0       	ldi	r31, 0x00	; 0
    6e80:	ff 2e       	mov	r15, r31
    6e82:	f0 e0       	ldi	r31, 0x00	; 0
    6e84:	0f 2f       	mov	r16, r31
    6e86:	f0 e0       	ldi	r31, 0x00	; 0
    6e88:	1f 2f       	mov	r17, r31
    6e8a:	f0 2d       	mov	r31, r0
		
			zig=0;
			if(g_psd[l] <= pm) zig += (g_psd[l]-pm)*3.5;
    6e8c:	ad 85       	ldd	r26, Y+13	; 0x0d
    6e8e:	be 85       	ldd	r27, Y+14	; 0x0e
    6e90:	8c 91       	ld	r24, X
    6e92:	90 e0       	ldi	r25, 0x00	; 0
    6e94:	ed 81       	ldd	r30, Y+5	; 0x05
    6e96:	fe 81       	ldd	r31, Y+6	; 0x06
    6e98:	e8 17       	cp	r30, r24
    6e9a:	f9 07       	cpc	r31, r25
    6e9c:	cc f0       	brlt	.+50     	; 0x6ed0 <Avoid+0x288>
    6e9e:	6c 91       	ld	r22, X
    6ea0:	70 e0       	ldi	r23, 0x00	; 0
    6ea2:	6e 1b       	sub	r22, r30
    6ea4:	7f 0b       	sbc	r23, r31
    6ea6:	88 27       	eor	r24, r24
    6ea8:	77 fd       	sbrc	r23, 7
    6eaa:	80 95       	com	r24
    6eac:	98 2f       	mov	r25, r24
    6eae:	0e 94 6a 41 	call	0x82d4	; 0x82d4 <__floatsisf>
    6eb2:	20 e0       	ldi	r18, 0x00	; 0
    6eb4:	30 e0       	ldi	r19, 0x00	; 0
    6eb6:	40 e6       	ldi	r20, 0x60	; 96
    6eb8:	50 e4       	ldi	r21, 0x40	; 64
    6eba:	0e 94 2e 43 	call	0x865c	; 0x865c <__mulsf3>
    6ebe:	20 e0       	ldi	r18, 0x00	; 0
    6ec0:	30 e0       	ldi	r19, 0x00	; 0
    6ec2:	a9 01       	movw	r20, r18
    6ec4:	0e 94 51 40 	call	0x80a2	; 0x80a2 <__addsf3>
    6ec8:	0e 94 37 41 	call	0x826e	; 0x826e <__fixsfsi>
    6ecc:	5b 01       	movw	r10, r22
    6ece:	02 c0       	rjmp	.+4      	; 0x6ed4 <Avoid+0x28c>

			e = s-gyro;
			e *= (sp+10)/10;
			if(fabs(e) > 30) e = 0;
		
			zig=0;
    6ed0:	aa 24       	eor	r10, r10
    6ed2:	bb 24       	eor	r11, r11
			if(g_psd[l] <= pm) zig += (g_psd[l]-pm)*3.5;
			if(g_psd[r] <= pm2) zig += (g_psd[r]-pm2)*-3.5;
    6ed4:	af 85       	ldd	r26, Y+15	; 0x0f
    6ed6:	b8 89       	ldd	r27, Y+16	; 0x10
    6ed8:	8c 91       	ld	r24, X
    6eda:	90 e0       	ldi	r25, 0x00	; 0
    6edc:	ef 81       	ldd	r30, Y+7	; 0x07
    6ede:	f8 85       	ldd	r31, Y+8	; 0x08
    6ee0:	e8 17       	cp	r30, r24
    6ee2:	f9 07       	cpc	r31, r25
    6ee4:	2c f1       	brlt	.+74     	; 0x6f30 <Avoid+0x2e8>
    6ee6:	6c 90       	ld	r6, X
    6ee8:	b5 01       	movw	r22, r10
    6eea:	88 27       	eor	r24, r24
    6eec:	77 fd       	sbrc	r23, 7
    6eee:	80 95       	com	r24
    6ef0:	98 2f       	mov	r25, r24
    6ef2:	0e 94 6a 41 	call	0x82d4	; 0x82d4 <__floatsisf>
    6ef6:	5b 01       	movw	r10, r22
    6ef8:	6c 01       	movw	r12, r24
    6efa:	66 2d       	mov	r22, r6
    6efc:	70 e0       	ldi	r23, 0x00	; 0
    6efe:	2f 81       	ldd	r18, Y+7	; 0x07
    6f00:	38 85       	ldd	r19, Y+8	; 0x08
    6f02:	62 1b       	sub	r22, r18
    6f04:	73 0b       	sbc	r23, r19
    6f06:	88 27       	eor	r24, r24
    6f08:	77 fd       	sbrc	r23, 7
    6f0a:	80 95       	com	r24
    6f0c:	98 2f       	mov	r25, r24
    6f0e:	0e 94 6a 41 	call	0x82d4	; 0x82d4 <__floatsisf>
    6f12:	20 e0       	ldi	r18, 0x00	; 0
    6f14:	30 e0       	ldi	r19, 0x00	; 0
    6f16:	40 e6       	ldi	r20, 0x60	; 96
    6f18:	50 ec       	ldi	r21, 0xC0	; 192
    6f1a:	0e 94 2e 43 	call	0x865c	; 0x865c <__mulsf3>
    6f1e:	9b 01       	movw	r18, r22
    6f20:	ac 01       	movw	r20, r24
    6f22:	c6 01       	movw	r24, r12
    6f24:	b5 01       	movw	r22, r10
    6f26:	0e 94 51 40 	call	0x80a2	; 0x80a2 <__addsf3>
    6f2a:	0e 94 37 41 	call	0x826e	; 0x826e <__fixsfsi>
    6f2e:	5b 01       	movw	r10, r22

			if(dis && SensorIn(ps, dis)) {LE return;} 
    6f30:	89 85       	ldd	r24, Y+9	; 0x09
    6f32:	9a 85       	ldd	r25, Y+10	; 0x0a
    6f34:	00 97       	sbiw	r24, 0x00	; 0
    6f36:	41 f0       	breq	.+16     	; 0x6f48 <Avoid+0x300>
    6f38:	89 81       	ldd	r24, Y+1	; 0x01
    6f3a:	9a 81       	ldd	r25, Y+2	; 0x02
    6f3c:	69 85       	ldd	r22, Y+9	; 0x09
    6f3e:	7a 85       	ldd	r23, Y+10	; 0x0a
    6f40:	0e 94 c2 1d 	call	0x3b84	; 0x3b84 <SensorIn>
    6f44:	00 97       	sbiw	r24, 0x00	; 0
    6f46:	c1 f4       	brne	.+48     	; 0x6f78 <Avoid+0x330>

			if(!oc)oc=1;
    6f48:	80 91 38 02 	lds	r24, 0x0238
    6f4c:	90 91 39 02 	lds	r25, 0x0239
    6f50:	00 97       	sbiw	r24, 0x00	; 0
    6f52:	31 f4       	brne	.+12     	; 0x6f60 <Avoid+0x318>
    6f54:	a1 e0       	ldi	r26, 0x01	; 1
    6f56:	b0 e0       	ldi	r27, 0x00	; 0
    6f58:	b0 93 39 02 	sts	0x0239, r27
    6f5c:	a0 93 38 02 	sts	0x0238, r26
			if(oc>tot){LE return ;}
    6f60:	80 91 59 03 	lds	r24, 0x0359
    6f64:	90 91 5a 03 	lds	r25, 0x035A
    6f68:	20 91 38 02 	lds	r18, 0x0238
    6f6c:	30 91 39 02 	lds	r19, 0x0239
    6f70:	82 17       	cp	r24, r18
    6f72:	93 07       	cpc	r25, r19
    6f74:	0c f0       	brlt	.+2      	; 0x6f78 <Avoid+0x330>
    6f76:	56 c0       	rjmp	.+172    	; 0x7024 <Avoid+0x3dc>
    6f78:	10 92 4b 02 	sts	0x024B, r1
    6f7c:	10 92 4a 02 	sts	0x024A, r1
    6f80:	80 e0       	ldi	r24, 0x00	; 0
    6f82:	90 e0       	ldi	r25, 0x00	; 0
    6f84:	dc 01       	movw	r26, r24
    6f86:	80 93 93 02 	sts	0x0293, r24
    6f8a:	90 93 94 02 	sts	0x0294, r25
    6f8e:	a0 93 95 02 	sts	0x0295, r26
    6f92:	b0 93 96 02 	sts	0x0296, r27
    6f96:	80 91 93 02 	lds	r24, 0x0293
    6f9a:	90 91 94 02 	lds	r25, 0x0294
    6f9e:	a0 91 95 02 	lds	r26, 0x0295
    6fa2:	b0 91 96 02 	lds	r27, 0x0296
    6fa6:	80 93 1d 03 	sts	0x031D, r24
    6faa:	90 93 1e 03 	sts	0x031E, r25
    6fae:	a0 93 1f 03 	sts	0x031F, r26
    6fb2:	b0 93 20 03 	sts	0x0320, r27
    6fb6:	80 91 1d 03 	lds	r24, 0x031D
    6fba:	90 91 1e 03 	lds	r25, 0x031E
    6fbe:	a0 91 1f 03 	lds	r26, 0x031F
    6fc2:	b0 91 20 03 	lds	r27, 0x0320
    6fc6:	80 93 87 02 	sts	0x0287, r24
    6fca:	90 93 88 02 	sts	0x0288, r25
    6fce:	a0 93 89 02 	sts	0x0289, r26
    6fd2:	b0 93 8a 02 	sts	0x028A, r27
    6fd6:	60 91 87 02 	lds	r22, 0x0287
    6fda:	70 91 88 02 	lds	r23, 0x0288
    6fde:	80 91 89 02 	lds	r24, 0x0289
    6fe2:	90 91 8a 02 	lds	r25, 0x028A
    6fe6:	0e 94 37 41 	call	0x826e	; 0x826e <__fixsfsi>
    6fea:	70 93 39 02 	sts	0x0239, r23
    6fee:	60 93 38 02 	sts	0x0238, r22
			speed(-zig*d, gsp[1], (double)e, wa);
		}
	}
}
    6ff2:	68 96       	adiw	r28, 0x18	; 24
    6ff4:	0f b6       	in	r0, 0x3f	; 63
    6ff6:	f8 94       	cli
    6ff8:	de bf       	out	0x3e, r29	; 62
    6ffa:	0f be       	out	0x3f, r0	; 63
    6ffc:	cd bf       	out	0x3d, r28	; 61
    6ffe:	cf 91       	pop	r28
    7000:	df 91       	pop	r29
    7002:	1f 91       	pop	r17
    7004:	0f 91       	pop	r16
    7006:	ff 90       	pop	r15
    7008:	ef 90       	pop	r14
    700a:	df 90       	pop	r13
    700c:	cf 90       	pop	r12
    700e:	bf 90       	pop	r11
    7010:	af 90       	pop	r10
    7012:	9f 90       	pop	r9
    7014:	8f 90       	pop	r8
    7016:	7f 90       	pop	r7
    7018:	6f 90       	pop	r6
    701a:	5f 90       	pop	r5
    701c:	4f 90       	pop	r4
    701e:	3f 90       	pop	r3
    7020:	2f 90       	pop	r2
    7022:	08 95       	ret

			if(dis && SensorIn(ps, dis)) {LE return;} 

			if(!oc)oc=1;
			if(oc>tot){LE return ;}
			speed(-zig*d, gsp[1], (double)e, wa);
    7024:	20 90 4d 03 	lds	r2, 0x034D
    7028:	30 90 4e 03 	lds	r3, 0x034E
    702c:	40 90 4f 03 	lds	r4, 0x034F
    7030:	50 90 50 03 	lds	r5, 0x0350
    7034:	b0 94       	com	r11
    7036:	a1 94       	neg	r10
    7038:	b1 08       	sbc	r11, r1
    703a:	b3 94       	inc	r11
    703c:	eb 81       	ldd	r30, Y+3	; 0x03
    703e:	fc 81       	ldd	r31, Y+4	; 0x04
    7040:	ae 9e       	mul	r10, r30
    7042:	b0 01       	movw	r22, r0
    7044:	af 9e       	mul	r10, r31
    7046:	70 0d       	add	r23, r0
    7048:	be 9e       	mul	r11, r30
    704a:	70 0d       	add	r23, r0
    704c:	11 24       	eor	r1, r1
    704e:	88 27       	eor	r24, r24
    7050:	77 fd       	sbrc	r23, 7
    7052:	80 95       	com	r24
    7054:	98 2f       	mov	r25, r24
    7056:	0e 94 6a 41 	call	0x82d4	; 0x82d4 <__floatsisf>
    705a:	3b 01       	movw	r6, r22
    705c:	4c 01       	movw	r8, r24
    705e:	60 91 5e 02 	lds	r22, 0x025E
    7062:	70 91 5f 02 	lds	r23, 0x025F
    7066:	88 27       	eor	r24, r24
    7068:	77 fd       	sbrc	r23, 7
    706a:	80 95       	com	r24
    706c:	98 2f       	mov	r25, r24
    706e:	0e 94 6a 41 	call	0x82d4	; 0x82d4 <__floatsisf>
    7072:	5b 01       	movw	r10, r22
    7074:	6c 01       	movw	r12, r24
    7076:	c4 01       	movw	r24, r8
    7078:	b3 01       	movw	r22, r6
    707a:	a2 01       	movw	r20, r4
    707c:	91 01       	movw	r18, r2
    707e:	0e 94 93 16 	call	0x2d26	; 0x2d26 <speed>
    7082:	b7 ce       	rjmp	.-658    	; 0x6df2 <Avoid+0x1aa>

00007084 <AB>:
		}
	}
}

void AB(int yp, int ym ,int xp, int xm, int zp, int zm, int xsp, int ysp)
{
    7084:	2f 92       	push	r2
    7086:	3f 92       	push	r3
    7088:	4f 92       	push	r4
    708a:	5f 92       	push	r5
    708c:	6f 92       	push	r6
    708e:	7f 92       	push	r7
    7090:	8f 92       	push	r8
    7092:	9f 92       	push	r9
    7094:	af 92       	push	r10
    7096:	bf 92       	push	r11
    7098:	cf 92       	push	r12
    709a:	df 92       	push	r13
    709c:	ef 92       	push	r14
    709e:	ff 92       	push	r15
    70a0:	0f 93       	push	r16
    70a2:	1f 93       	push	r17
    70a4:	df 93       	push	r29
    70a6:	cf 93       	push	r28
    70a8:	cd b7       	in	r28, 0x3d	; 61
    70aa:	de b7       	in	r29, 0x3e	; 62
    70ac:	e6 97       	sbiw	r28, 0x36	; 54
    70ae:	0f b6       	in	r0, 0x3f	; 63
    70b0:	f8 94       	cli
    70b2:	de bf       	out	0x3e, r29	; 62
    70b4:	0f be       	out	0x3f, r0	; 63
    70b6:	cd bf       	out	0x3d, r28	; 61
    70b8:	98 87       	std	Y+8, r25	; 0x08
    70ba:	8f 83       	std	Y+7, r24	; 0x07
    70bc:	7e 87       	std	Y+14, r23	; 0x0e
    70be:	6d 87       	std	Y+13, r22	; 0x0d
    70c0:	4a 01       	movw	r8, r20
    70c2:	3e 83       	std	Y+6, r19	; 0x06
    70c4:	2d 83       	std	Y+5, r18	; 0x05
    70c6:	38 01       	movw	r6, r16
    70c8:	fe 8a       	std	Y+22, r15	; 0x16
    70ca:	ed 8a       	std	Y+21, r14	; 0x15
	ginit("AB");
    70cc:	10 92 4b 02 	sts	0x024B, r1
    70d0:	10 92 4a 02 	sts	0x024A, r1
    70d4:	10 92 11 02 	sts	0x0211, r1
    70d8:	10 92 10 02 	sts	0x0210, r1
    70dc:	80 91 10 02 	lds	r24, 0x0210
    70e0:	90 91 11 02 	lds	r25, 0x0211
    70e4:	90 93 5a 03 	sts	0x035A, r25
    70e8:	80 93 59 03 	sts	0x0359, r24
    70ec:	80 91 59 03 	lds	r24, 0x0359
    70f0:	90 91 5a 03 	lds	r25, 0x035A
    70f4:	90 93 39 02 	sts	0x0239, r25
    70f8:	80 93 38 02 	sts	0x0238, r24
    70fc:	20 e0       	ldi	r18, 0x00	; 0
    70fe:	30 e0       	ldi	r19, 0x00	; 0
    7100:	0f 2e       	mov	r0, r31
    7102:	f0 e0       	ldi	r31, 0x00	; 0
    7104:	ef 2e       	mov	r14, r31
    7106:	f0 e0       	ldi	r31, 0x00	; 0
    7108:	ff 2e       	mov	r15, r31
    710a:	f0 e0       	ldi	r31, 0x00	; 0
    710c:	0f 2f       	mov	r16, r31
    710e:	f0 e0       	ldi	r31, 0x00	; 0
    7110:	1f 2f       	mov	r17, r31
    7112:	f0 2d       	mov	r31, r0
    7114:	c9 01       	movw	r24, r18
    7116:	88 0f       	add	r24, r24
    7118:	99 1f       	adc	r25, r25
    711a:	88 0f       	add	r24, r24
    711c:	99 1f       	adc	r25, r25
    711e:	fc 01       	movw	r30, r24
    7120:	e7 5b       	subi	r30, 0xB7	; 183
    7122:	fc 4f       	sbci	r31, 0xFC	; 252
    7124:	e0 82       	st	Z, r14
    7126:	f1 82       	std	Z+1, r15	; 0x01
    7128:	02 83       	std	Z+2, r16	; 0x02
    712a:	13 83       	std	Z+3, r17	; 0x03
    712c:	40 81       	ld	r20, Z
    712e:	51 81       	ldd	r21, Z+1	; 0x01
    7130:	62 81       	ldd	r22, Z+2	; 0x02
    7132:	73 81       	ldd	r23, Z+3	; 0x03
    7134:	fc 01       	movw	r30, r24
    7136:	e9 5c       	subi	r30, 0xC9	; 201
    7138:	fc 4f       	sbci	r31, 0xFC	; 252
    713a:	40 83       	st	Z, r20
    713c:	51 83       	std	Z+1, r21	; 0x01
    713e:	62 83       	std	Z+2, r22	; 0x02
    7140:	73 83       	std	Z+3, r23	; 0x03
    7142:	2f 5f       	subi	r18, 0xFF	; 255
    7144:	3f 4f       	sbci	r19, 0xFF	; 255
    7146:	24 30       	cpi	r18, 0x04	; 4
    7148:	31 05       	cpc	r19, r1
    714a:	21 f7       	brne	.-56     	; 0x7114 <AB+0x90>
    714c:	00 d0       	rcall	.+0      	; 0x714e <AB+0xca>
    714e:	00 d0       	rcall	.+0      	; 0x7150 <AB+0xcc>
    7150:	00 d0       	rcall	.+0      	; 0x7152 <AB+0xce>
    7152:	ed b7       	in	r30, 0x3d	; 61
    7154:	fe b7       	in	r31, 0x3e	; 62
    7156:	31 96       	adiw	r30, 0x01	; 1
    7158:	01 e2       	ldi	r16, 0x21	; 33
    715a:	13 e0       	ldi	r17, 0x03	; 3
    715c:	ad b7       	in	r26, 0x3d	; 61
    715e:	be b7       	in	r27, 0x3e	; 62
    7160:	12 96       	adiw	r26, 0x02	; 2
    7162:	1c 93       	st	X, r17
    7164:	0e 93       	st	-X, r16
    7166:	11 97       	sbiw	r26, 0x01	; 1
    7168:	84 eb       	ldi	r24, 0xB4	; 180
    716a:	91 e0       	ldi	r25, 0x01	; 1
    716c:	93 83       	std	Z+3, r25	; 0x03
    716e:	82 83       	std	Z+2, r24	; 0x02
    7170:	88 ef       	ldi	r24, 0xF8	; 248
    7172:	91 e0       	ldi	r25, 0x01	; 1
    7174:	95 83       	std	Z+5, r25	; 0x05
    7176:	84 83       	std	Z+4, r24	; 0x04
    7178:	0e 94 20 40 	call	0x8040	; 0x8040 <sprintf>
    717c:	ed b7       	in	r30, 0x3d	; 61
    717e:	fe b7       	in	r31, 0x3e	; 62
    7180:	36 96       	adiw	r30, 0x06	; 6
    7182:	0f b6       	in	r0, 0x3f	; 63
    7184:	f8 94       	cli
    7186:	fe bf       	out	0x3e, r31	; 62
    7188:	0f be       	out	0x3f, r0	; 63
    718a:	ed bf       	out	0x3d, r30	; 61
    718c:	80 e0       	ldi	r24, 0x00	; 0
    718e:	67 e0       	ldi	r22, 0x07	; 7
    7190:	a8 01       	movw	r20, r16
    7192:	0e 94 67 01 	call	0x2ce	; 0x2ce <LCD>

	int x=0,y=0,z=0;
	int xbo=1,ybo=1,zbo=1;
	double s=gyro,e;
    7196:	80 91 7e 02 	lds	r24, 0x027E
    719a:	90 91 7f 02 	lds	r25, 0x027F
    719e:	a0 91 80 02 	lds	r26, 0x0280
    71a2:	b0 91 81 02 	lds	r27, 0x0281
	double xra, yra;

	int ap = xp+zp; if((xp&&zp)) ap/=2;
    71a6:	b3 01       	movw	r22, r6
    71a8:	68 0d       	add	r22, r8
    71aa:	79 1d       	adc	r23, r9
    71ac:	81 14       	cp	r8, r1
    71ae:	91 04       	cpc	r9, r1
    71b0:	41 f0       	breq	.+16     	; 0x71c2 <AB+0x13e>
    71b2:	61 14       	cp	r6, r1
    71b4:	71 04       	cpc	r7, r1
    71b6:	29 f0       	breq	.+10     	; 0x71c2 <AB+0x13e>
    71b8:	cb 01       	movw	r24, r22
    71ba:	62 e0       	ldi	r22, 0x02	; 2
    71bc:	70 e0       	ldi	r23, 0x00	; 0
    71be:	0e 94 cc 46 	call	0x8d98	; 0x8d98 <__divmodhi4>
	int ya = (abs(yp*40-360) > abs(yp*40))?	yp*40: yp*40-360;
    71c2:	88 e2       	ldi	r24, 0x28	; 40
    71c4:	90 e0       	ldi	r25, 0x00	; 0
    71c6:	4f 81       	ldd	r20, Y+7	; 0x07
    71c8:	58 85       	ldd	r21, Y+8	; 0x08
    71ca:	48 9f       	mul	r20, r24
    71cc:	90 01       	movw	r18, r0
    71ce:	49 9f       	mul	r20, r25
    71d0:	30 0d       	add	r19, r0
    71d2:	58 9f       	mul	r21, r24
    71d4:	30 0d       	add	r19, r0
    71d6:	11 24       	eor	r1, r1
    71d8:	c9 01       	movw	r24, r18
    71da:	88 56       	subi	r24, 0x68	; 104
    71dc:	91 40       	sbci	r25, 0x01	; 1
    71de:	fc 01       	movw	r30, r24
    71e0:	97 ff       	sbrs	r25, 7
    71e2:	04 c0       	rjmp	.+8      	; 0x71ec <AB+0x168>
    71e4:	ee 27       	eor	r30, r30
    71e6:	ff 27       	eor	r31, r31
    71e8:	e8 1b       	sub	r30, r24
    71ea:	f9 0b       	sbc	r31, r25
    71ec:	a9 01       	movw	r20, r18
    71ee:	37 ff       	sbrs	r19, 7
    71f0:	04 c0       	rjmp	.+8      	; 0x71fa <AB+0x176>
    71f2:	44 27       	eor	r20, r20
    71f4:	55 27       	eor	r21, r21
    71f6:	42 1b       	sub	r20, r18
    71f8:	53 0b       	sbc	r21, r19
    71fa:	4e 17       	cp	r20, r30
    71fc:	5f 07       	cpc	r21, r31
    71fe:	0c f4       	brge	.+2      	; 0x7202 <AB+0x17e>
    7200:	c9 01       	movw	r24, r18

	if((ap*40+wa) > 180) xbo*=-1;
    7202:	40 91 5e 02 	lds	r20, 0x025E
    7206:	50 91 5f 02 	lds	r21, 0x025F
    720a:	e8 e2       	ldi	r30, 0x28	; 40
    720c:	f0 e0       	ldi	r31, 0x00	; 0
    720e:	6e 9f       	mul	r22, r30
    7210:	90 01       	movw	r18, r0
    7212:	6f 9f       	mul	r22, r31
    7214:	30 0d       	add	r19, r0
    7216:	7e 9f       	mul	r23, r30
    7218:	30 0d       	add	r19, r0
    721a:	11 24       	eor	r1, r1
    721c:	24 0f       	add	r18, r20
    721e:	35 1f       	adc	r19, r21
    7220:	25 3b       	cpi	r18, 0xB5	; 181
    7222:	31 05       	cpc	r19, r1
    7224:	2c f4       	brge	.+10     	; 0x7230 <AB+0x1ac>
void AB(int yp, int ym ,int xp, int xm, int zp, int zm, int xsp, int ysp)
{
	ginit("AB");

	int x=0,y=0,z=0;
	int xbo=1,ybo=1,zbo=1;
    7226:	61 e0       	ldi	r22, 0x01	; 1
    7228:	70 e0       	ldi	r23, 0x00	; 0
    722a:	7a 83       	std	Y+2, r23	; 0x02
    722c:	69 83       	std	Y+1, r22	; 0x01
    722e:	04 c0       	rjmp	.+8      	; 0x7238 <AB+0x1b4>
	double xra, yra;

	int ap = xp+zp; if((xp&&zp)) ap/=2;
	int ya = (abs(yp*40-360) > abs(yp*40))?	yp*40: yp*40-360;

	if((ap*40+wa) > 180) xbo*=-1;
    7230:	af ef       	ldi	r26, 0xFF	; 255
    7232:	bf ef       	ldi	r27, 0xFF	; 255
    7234:	ba 83       	std	Y+2, r27	; 0x02
    7236:	a9 83       	std	Y+1, r26	; 0x01
	if(abs(ya+wa) < 90) ybo*=-1;
    7238:	84 0f       	add	r24, r20
    723a:	95 1f       	adc	r25, r21
    723c:	87 5a       	subi	r24, 0xA7	; 167
    723e:	9f 4f       	sbci	r25, 0xFF	; 255
    7240:	83 3b       	cpi	r24, 0xB3	; 179
    7242:	91 05       	cpc	r25, r1
    7244:	28 f0       	brcs	.+10     	; 0x7250 <AB+0x1cc>
void AB(int yp, int ym ,int xp, int xm, int zp, int zm, int xsp, int ysp)
{
	ginit("AB");

	int x=0,y=0,z=0;
	int xbo=1,ybo=1,zbo=1;
    7246:	e1 e0       	ldi	r30, 0x01	; 1
    7248:	f0 e0       	ldi	r31, 0x00	; 0
    724a:	f8 8b       	std	Y+16, r31	; 0x10
    724c:	ef 87       	std	Y+15, r30	; 0x0f
    724e:	04 c0       	rjmp	.+8      	; 0x7258 <AB+0x1d4>

	int ap = xp+zp; if((xp&&zp)) ap/=2;
	int ya = (abs(yp*40-360) > abs(yp*40))?	yp*40: yp*40-360;

	if((ap*40+wa) > 180) xbo*=-1;
	if(abs(ya+wa) < 90) ybo*=-1;
    7250:	4f ef       	ldi	r20, 0xFF	; 255
    7252:	5f ef       	ldi	r21, 0xFF	; 255
    7254:	58 8b       	std	Y+16, r21	; 0x10
    7256:	4f 87       	std	Y+15, r20	; 0x0f
	if((ap*40+wa) > 180) zbo = xbo<0? 1:-1;
    7258:	25 3b       	cpi	r18, 0xB5	; 181
    725a:	31 05       	cpc	r19, r1
    725c:	5c f0       	brlt	.+22     	; 0x7274 <AB+0x1f0>
    725e:	69 81       	ldd	r22, Y+1	; 0x01
    7260:	7a 81       	ldd	r23, Y+2	; 0x02
    7262:	8f ef       	ldi	r24, 0xFF	; 255
    7264:	6f 3f       	cpi	r22, 0xFF	; 255
    7266:	78 07       	cpc	r23, r24
    7268:	81 f4       	brne	.+32     	; 0x728a <AB+0x206>
    726a:	a1 e0       	ldi	r26, 0x01	; 1
    726c:	b0 e0       	ldi	r27, 0x00	; 0
    726e:	bc 83       	std	Y+4, r27	; 0x04
    7270:	ab 83       	std	Y+3, r26	; 0x03
    7272:	14 c0       	rjmp	.+40     	; 0x729c <AB+0x218>
	else	zbo = xbo<0? -1:1;
    7274:	e9 81       	ldd	r30, Y+1	; 0x01
    7276:	fa 81       	ldd	r31, Y+2	; 0x02
    7278:	2f ef       	ldi	r18, 0xFF	; 255
    727a:	ef 3f       	cpi	r30, 0xFF	; 255
    727c:	f2 07       	cpc	r31, r18
    727e:	51 f4       	brne	.+20     	; 0x7294 <AB+0x210>
    7280:	4f ef       	ldi	r20, 0xFF	; 255
    7282:	5f ef       	ldi	r21, 0xFF	; 255
    7284:	5c 83       	std	Y+4, r21	; 0x04
    7286:	4b 83       	std	Y+3, r20	; 0x03
    7288:	09 c0       	rjmp	.+18     	; 0x729c <AB+0x218>
	int ap = xp+zp; if((xp&&zp)) ap/=2;
	int ya = (abs(yp*40-360) > abs(yp*40))?	yp*40: yp*40-360;

	if((ap*40+wa) > 180) xbo*=-1;
	if(abs(ya+wa) < 90) ybo*=-1;
	if((ap*40+wa) > 180) zbo = xbo<0? 1:-1;
    728a:	6f ef       	ldi	r22, 0xFF	; 255
    728c:	7f ef       	ldi	r23, 0xFF	; 255
    728e:	7c 83       	std	Y+4, r23	; 0x04
    7290:	6b 83       	std	Y+3, r22	; 0x03
    7292:	04 c0       	rjmp	.+8      	; 0x729c <AB+0x218>
	else	zbo = xbo<0? -1:1;
    7294:	81 e0       	ldi	r24, 0x01	; 1
    7296:	90 e0       	ldi	r25, 0x00	; 0
    7298:	9c 83       	std	Y+4, r25	; 0x04
    729a:	8b 83       	std	Y+3, r24	; 0x03
	
	xra = (xm-10)/xsp;
    729c:	8d 81       	ldd	r24, Y+5	; 0x05
    729e:	9e 81       	ldd	r25, Y+6	; 0x06
    72a0:	0a 97       	sbiw	r24, 0x0a	; 10
    72a2:	b6 01       	movw	r22, r12
    72a4:	0e 94 cc 46 	call	0x8d98	; 0x8d98 <__divmodhi4>
    72a8:	88 27       	eor	r24, r24
    72aa:	77 fd       	sbrc	r23, 7
    72ac:	80 95       	com	r24
    72ae:	98 2f       	mov	r25, r24
    72b0:	0e 94 6a 41 	call	0x82d4	; 0x82d4 <__floatsisf>
    72b4:	6d 8f       	std	Y+29, r22	; 0x1d
    72b6:	7e 8f       	std	Y+30, r23	; 0x1e
    72b8:	8f 8f       	std	Y+31, r24	; 0x1f
    72ba:	98 a3       	std	Y+32, r25	; 0x20
	yra = (ym-10)/ysp;
    72bc:	8d 85       	ldd	r24, Y+13	; 0x0d
    72be:	9e 85       	ldd	r25, Y+14	; 0x0e
    72c0:	0a 97       	sbiw	r24, 0x0a	; 10
    72c2:	b5 01       	movw	r22, r10
    72c4:	0e 94 cc 46 	call	0x8d98	; 0x8d98 <__divmodhi4>
    72c8:	88 27       	eor	r24, r24
    72ca:	77 fd       	sbrc	r23, 7
    72cc:	80 95       	com	r24
    72ce:	98 2f       	mov	r25, r24
    72d0:	0e 94 6a 41 	call	0x82d4	; 0x82d4 <__floatsisf>
    72d4:	69 a3       	std	Y+33, r22	; 0x21
    72d6:	7a a3       	std	Y+34, r23	; 0x22
    72d8:	8b a3       	std	Y+35, r24	; 0x23
    72da:	9c a3       	std	Y+36, r25	; 0x24

void AB(int yp, int ym ,int xp, int xm, int zp, int zm, int xsp, int ysp)
{
	ginit("AB");

	int x=0,y=0,z=0;
    72dc:	22 24       	eor	r2, r2
    72de:	33 24       	eor	r3, r3
    72e0:	44 24       	eor	r4, r4
    72e2:	55 24       	eor	r5, r5
    72e4:	20 e0       	ldi	r18, 0x00	; 0
    72e6:	30 e0       	ldi	r19, 0x00	; 0
			}

			if(zm)
				z=(psd[xp]-psd[zp]-xm+zm)*zbo* 1.2;

			x= (int)LF(xsp,-xsp,x);
    72e8:	a6 01       	movw	r20, r12
    72ea:	66 27       	eor	r22, r22
    72ec:	57 fd       	sbrc	r21, 7
    72ee:	60 95       	com	r22
    72f0:	76 2f       	mov	r23, r22
    72f2:	4d a3       	std	Y+37, r20	; 0x25
    72f4:	5e a3       	std	Y+38, r21	; 0x26
    72f6:	6f a3       	std	Y+39, r22	; 0x27
    72f8:	78 a7       	std	Y+40, r23	; 0x28
    72fa:	d0 94       	com	r13
    72fc:	c1 94       	neg	r12
    72fe:	d1 08       	sbc	r13, r1
    7300:	d3 94       	inc	r13
    7302:	b6 01       	movw	r22, r12
    7304:	88 27       	eor	r24, r24
    7306:	77 fd       	sbrc	r23, 7
    7308:	80 95       	com	r24
    730a:	98 2f       	mov	r25, r24
    730c:	69 a7       	std	Y+41, r22	; 0x29
    730e:	7a a7       	std	Y+42, r23	; 0x2a
    7310:	8b a7       	std	Y+43, r24	; 0x2b
    7312:	9c a7       	std	Y+44, r25	; 0x2c
			y= (int)LF(ysp,-ysp,y);
    7314:	c5 01       	movw	r24, r10
    7316:	aa 27       	eor	r26, r26
    7318:	97 fd       	sbrc	r25, 7
    731a:	a0 95       	com	r26
    731c:	ba 2f       	mov	r27, r26
    731e:	8d a7       	std	Y+45, r24	; 0x2d
    7320:	9e a7       	std	Y+46, r25	; 0x2e
    7322:	af a7       	std	Y+47, r26	; 0x2f
    7324:	b8 ab       	std	Y+48, r27	; 0x30
    7326:	b0 94       	com	r11
    7328:	a1 94       	neg	r10
    732a:	b1 08       	sbc	r11, r1
    732c:	b3 94       	inc	r11
    732e:	a5 01       	movw	r20, r10
    7330:	66 27       	eor	r22, r22
    7332:	57 fd       	sbrc	r21, 7
    7334:	60 95       	com	r22
    7336:	76 2f       	mov	r23, r22
    7338:	49 ab       	std	Y+49, r20	; 0x31
    733a:	5a ab       	std	Y+50, r21	; 0x32
    733c:	6b ab       	std	Y+51, r22	; 0x33
    733e:	7c ab       	std	Y+52, r23	; 0x34
				x=(psd[xp]-xm)*xbo;
				x/=xra;
			}

			if(zm)
				z=(psd[xp]-psd[zp]-xm+zm)*zbo* 1.2;
    7340:	b4 01       	movw	r22, r8
    7342:	60 5c       	subi	r22, 0xC0	; 192
    7344:	7d 4f       	sbci	r23, 0xFD	; 253
    7346:	78 8f       	std	Y+24, r23	; 0x18
    7348:	6f 8b       	std	Y+23, r22	; 0x17
    734a:	c3 01       	movw	r24, r6
    734c:	80 5c       	subi	r24, 0xC0	; 192
    734e:	9d 4f       	sbci	r25, 0xFD	; 253
    7350:	9e ab       	std	Y+54, r25	; 0x36
    7352:	8d ab       	std	Y+53, r24	; 0x35
		if(!gtc)
		{
			gtc = 1;
			if(ym)
			{
				y=(psd[yp]-ym)*ybo;
    7354:	af 81       	ldd	r26, Y+7	; 0x07
    7356:	b8 85       	ldd	r27, Y+8	; 0x08
    7358:	a0 5c       	subi	r26, 0xC0	; 192
    735a:	bd 4f       	sbci	r27, 0xFD	; 253
    735c:	b8 87       	std	Y+8, r27	; 0x08
    735e:	af 83       	std	Y+7, r26	; 0x07
    7360:	3a 8f       	std	Y+26, r19	; 0x1a
    7362:	29 8f       	std	Y+25, r18	; 0x19
	yra = (ym-10)/ysp;


	while(1)
	{
		if(!gtc)
    7364:	80 91 10 02 	lds	r24, 0x0210
    7368:	90 91 11 02 	lds	r25, 0x0211
    736c:	00 97       	sbiw	r24, 0x00	; 0
    736e:	d1 f7       	brne	.-12     	; 0x7364 <AB+0x2e0>
		{
			gtc = 1;
    7370:	e1 e0       	ldi	r30, 0x01	; 1
    7372:	f0 e0       	ldi	r31, 0x00	; 0
    7374:	f0 93 11 02 	sts	0x0211, r31
    7378:	e0 93 10 02 	sts	0x0210, r30
			if(ym)
    737c:	2d 85       	ldd	r18, Y+13	; 0x0d
    737e:	3e 85       	ldd	r19, Y+14	; 0x0e
    7380:	21 15       	cp	r18, r1
    7382:	31 05       	cpc	r19, r1
    7384:	11 f1       	breq	.+68     	; 0x73ca <AB+0x346>
			{
				y=(psd[yp]-ym)*ybo;
    7386:	af 81       	ldd	r26, Y+7	; 0x07
    7388:	b8 85       	ldd	r27, Y+8	; 0x08
    738a:	8c 91       	ld	r24, X
    738c:	90 e0       	ldi	r25, 0x00	; 0
    738e:	82 1b       	sub	r24, r18
    7390:	93 0b       	sbc	r25, r19
    7392:	ef 85       	ldd	r30, Y+15	; 0x0f
    7394:	f8 89       	ldd	r31, Y+16	; 0x10
    7396:	e8 9f       	mul	r30, r24
    7398:	b0 01       	movw	r22, r0
    739a:	e9 9f       	mul	r30, r25
    739c:	70 0d       	add	r23, r0
    739e:	f8 9f       	mul	r31, r24
    73a0:	70 0d       	add	r23, r0
    73a2:	11 24       	eor	r1, r1
				y/=yra;
    73a4:	88 27       	eor	r24, r24
    73a6:	77 fd       	sbrc	r23, 7
    73a8:	80 95       	com	r24
    73aa:	98 2f       	mov	r25, r24
    73ac:	0e 94 6a 41 	call	0x82d4	; 0x82d4 <__floatsisf>
    73b0:	b9 a1       	ldd	r27, Y+33	; 0x21
    73b2:	aa a1       	ldd	r26, Y+34	; 0x22
    73b4:	0b a1       	ldd	r16, Y+35	; 0x23
    73b6:	ec a0       	ldd	r14, Y+36	; 0x24
    73b8:	2b 2f       	mov	r18, r27
    73ba:	3a 2f       	mov	r19, r26
    73bc:	40 2f       	mov	r20, r16
    73be:	5e 2d       	mov	r21, r14
    73c0:	0e 94 cf 40 	call	0x819e	; 0x819e <__divsf3>
    73c4:	0e 94 37 41 	call	0x826e	; 0x826e <__fixsfsi>
    73c8:	2b 01       	movw	r4, r22
			}

			if(xm)
    73ca:	2d 81       	ldd	r18, Y+5	; 0x05
    73cc:	3e 81       	ldd	r19, Y+6	; 0x06
    73ce:	21 15       	cp	r18, r1
    73d0:	31 05       	cpc	r19, r1
    73d2:	19 f1       	breq	.+70     	; 0x741a <AB+0x396>
			{
				x=(psd[xp]-xm)*xbo;
    73d4:	af 89       	ldd	r26, Y+23	; 0x17
    73d6:	b8 8d       	ldd	r27, Y+24	; 0x18
    73d8:	8c 91       	ld	r24, X
    73da:	90 e0       	ldi	r25, 0x00	; 0
    73dc:	82 1b       	sub	r24, r18
    73de:	93 0b       	sbc	r25, r19
    73e0:	e9 81       	ldd	r30, Y+1	; 0x01
    73e2:	fa 81       	ldd	r31, Y+2	; 0x02
    73e4:	e8 9f       	mul	r30, r24
    73e6:	b0 01       	movw	r22, r0
    73e8:	e9 9f       	mul	r30, r25
    73ea:	70 0d       	add	r23, r0
    73ec:	f8 9f       	mul	r31, r24
    73ee:	70 0d       	add	r23, r0
    73f0:	11 24       	eor	r1, r1
				x/=xra;
    73f2:	88 27       	eor	r24, r24
    73f4:	77 fd       	sbrc	r23, 7
    73f6:	80 95       	com	r24
    73f8:	98 2f       	mov	r25, r24
    73fa:	0e 94 6a 41 	call	0x82d4	; 0x82d4 <__floatsisf>
    73fe:	bd 8d       	ldd	r27, Y+29	; 0x1d
    7400:	ae 8d       	ldd	r26, Y+30	; 0x1e
    7402:	0f 8d       	ldd	r16, Y+31	; 0x1f
    7404:	e8 a0       	ldd	r14, Y+32	; 0x20
    7406:	2b 2f       	mov	r18, r27
    7408:	3a 2f       	mov	r19, r26
    740a:	40 2f       	mov	r20, r16
    740c:	5e 2d       	mov	r21, r14
    740e:	0e 94 cf 40 	call	0x819e	; 0x819e <__divsf3>
    7412:	0e 94 37 41 	call	0x826e	; 0x826e <__fixsfsi>
    7416:	7a 8f       	std	Y+26, r23	; 0x1a
    7418:	69 8f       	std	Y+25, r22	; 0x19
			}

			if(zm)
    741a:	2d 89       	ldd	r18, Y+21	; 0x15
    741c:	3e 89       	ldd	r19, Y+22	; 0x16
    741e:	21 15       	cp	r18, r1
    7420:	31 05       	cpc	r19, r1
    7422:	49 f1       	breq	.+82     	; 0x7476 <AB+0x3f2>
				z=(psd[xp]-psd[zp]-xm+zm)*zbo* 1.2;
    7424:	af 89       	ldd	r26, Y+23	; 0x17
    7426:	b8 8d       	ldd	r27, Y+24	; 0x18
    7428:	8c 91       	ld	r24, X
    742a:	ed a9       	ldd	r30, Y+53	; 0x35
    742c:	fe a9       	ldd	r31, Y+54	; 0x36
    742e:	20 81       	ld	r18, Z
    7430:	90 e0       	ldi	r25, 0x00	; 0
    7432:	4d 81       	ldd	r20, Y+5	; 0x05
    7434:	5e 81       	ldd	r21, Y+6	; 0x06
    7436:	84 1b       	sub	r24, r20
    7438:	95 0b       	sbc	r25, r21
    743a:	6d 89       	ldd	r22, Y+21	; 0x15
    743c:	7e 89       	ldd	r23, Y+22	; 0x16
    743e:	86 0f       	add	r24, r22
    7440:	97 1f       	adc	r25, r23
    7442:	82 1b       	sub	r24, r18
    7444:	91 09       	sbc	r25, r1
    7446:	ab 81       	ldd	r26, Y+3	; 0x03
    7448:	bc 81       	ldd	r27, Y+4	; 0x04
    744a:	a8 9f       	mul	r26, r24
    744c:	b0 01       	movw	r22, r0
    744e:	a9 9f       	mul	r26, r25
    7450:	70 0d       	add	r23, r0
    7452:	b8 9f       	mul	r27, r24
    7454:	70 0d       	add	r23, r0
    7456:	11 24       	eor	r1, r1
    7458:	88 27       	eor	r24, r24
    745a:	77 fd       	sbrc	r23, 7
    745c:	80 95       	com	r24
    745e:	98 2f       	mov	r25, r24
    7460:	0e 94 6a 41 	call	0x82d4	; 0x82d4 <__floatsisf>
    7464:	2a e9       	ldi	r18, 0x9A	; 154
    7466:	39 e9       	ldi	r19, 0x99	; 153
    7468:	49 e9       	ldi	r20, 0x99	; 153
    746a:	5f e3       	ldi	r21, 0x3F	; 63
    746c:	0e 94 2e 43 	call	0x865c	; 0x865c <__mulsf3>
    7470:	0e 94 37 41 	call	0x826e	; 0x826e <__fixsfsi>
    7474:	1b 01       	movw	r2, r22

			x= (int)LF(xsp,-xsp,x);
    7476:	6d a1       	ldd	r22, Y+37	; 0x25
    7478:	7e a1       	ldd	r23, Y+38	; 0x26
    747a:	8f a1       	ldd	r24, Y+39	; 0x27
    747c:	98 a5       	ldd	r25, Y+40	; 0x28
    747e:	0e 94 6a 41 	call	0x82d4	; 0x82d4 <__floatsisf>
    7482:	69 87       	std	Y+9, r22	; 0x09
    7484:	7a 87       	std	Y+10, r23	; 0x0a
    7486:	8b 87       	std	Y+11, r24	; 0x0b
    7488:	9c 87       	std	Y+12, r25	; 0x0c
    748a:	69 a5       	ldd	r22, Y+41	; 0x29
    748c:	7a a5       	ldd	r23, Y+42	; 0x2a
    748e:	8b a5       	ldd	r24, Y+43	; 0x2b
    7490:	9c a5       	ldd	r25, Y+44	; 0x2c
    7492:	0e 94 6a 41 	call	0x82d4	; 0x82d4 <__floatsisf>
    7496:	69 8b       	std	Y+17, r22	; 0x11
    7498:	7a 8b       	std	Y+18, r23	; 0x12
    749a:	8b 8b       	std	Y+19, r24	; 0x13
    749c:	9c 8b       	std	Y+20, r25	; 0x14
    749e:	e9 8d       	ldd	r30, Y+25	; 0x19
    74a0:	fa 8d       	ldd	r31, Y+26	; 0x1a
    74a2:	bf 01       	movw	r22, r30
    74a4:	88 27       	eor	r24, r24
    74a6:	77 fd       	sbrc	r23, 7
    74a8:	80 95       	com	r24
    74aa:	98 2f       	mov	r25, r24
    74ac:	0e 94 6a 41 	call	0x82d4	; 0x82d4 <__floatsisf>
    74b0:	7b 01       	movw	r14, r22
    74b2:	8c 01       	movw	r16, r24
    74b4:	69 85       	ldd	r22, Y+9	; 0x09
    74b6:	7a 85       	ldd	r23, Y+10	; 0x0a
    74b8:	8b 85       	ldd	r24, Y+11	; 0x0b
    74ba:	9c 85       	ldd	r25, Y+12	; 0x0c
    74bc:	29 89       	ldd	r18, Y+17	; 0x11
    74be:	3a 89       	ldd	r19, Y+18	; 0x12
    74c0:	4b 89       	ldd	r20, Y+19	; 0x13
    74c2:	5c 89       	ldd	r21, Y+20	; 0x14
    74c4:	0e 94 49 1e 	call	0x3c92	; 0x3c92 <LF>
    74c8:	69 8f       	std	Y+25, r22	; 0x19
    74ca:	7a 8f       	std	Y+26, r23	; 0x1a
    74cc:	8b 8f       	std	Y+27, r24	; 0x1b
    74ce:	9c 8f       	std	Y+28, r25	; 0x1c
			y= (int)LF(ysp,-ysp,y);
    74d0:	6d a5       	ldd	r22, Y+45	; 0x2d
    74d2:	7e a5       	ldd	r23, Y+46	; 0x2e
    74d4:	8f a5       	ldd	r24, Y+47	; 0x2f
    74d6:	98 a9       	ldd	r25, Y+48	; 0x30
    74d8:	0e 94 6a 41 	call	0x82d4	; 0x82d4 <__floatsisf>
    74dc:	5b 01       	movw	r10, r22
    74de:	6c 01       	movw	r12, r24
    74e0:	69 a9       	ldd	r22, Y+49	; 0x31
    74e2:	7a a9       	ldd	r23, Y+50	; 0x32
    74e4:	8b a9       	ldd	r24, Y+51	; 0x33
    74e6:	9c a9       	ldd	r25, Y+52	; 0x34
    74e8:	0e 94 6a 41 	call	0x82d4	; 0x82d4 <__floatsisf>
    74ec:	3b 01       	movw	r6, r22
    74ee:	4c 01       	movw	r8, r24
    74f0:	b2 01       	movw	r22, r4
    74f2:	88 27       	eor	r24, r24
    74f4:	77 fd       	sbrc	r23, 7
    74f6:	80 95       	com	r24
    74f8:	98 2f       	mov	r25, r24
    74fa:	0e 94 6a 41 	call	0x82d4	; 0x82d4 <__floatsisf>
    74fe:	7b 01       	movw	r14, r22
    7500:	8c 01       	movw	r16, r24
    7502:	c6 01       	movw	r24, r12
    7504:	b5 01       	movw	r22, r10
    7506:	a4 01       	movw	r20, r8
    7508:	93 01       	movw	r18, r6
    750a:	0e 94 49 1e 	call	0x3c92	; 0x3c92 <LF>
    750e:	5b 01       	movw	r10, r22
    7510:	6c 01       	movw	r12, r24
			z= (int)LF(xsp,-xsp,z);
    7512:	b1 01       	movw	r22, r2
    7514:	88 27       	eor	r24, r24
    7516:	77 fd       	sbrc	r23, 7
    7518:	80 95       	com	r24
    751a:	98 2f       	mov	r25, r24
    751c:	0e 94 6a 41 	call	0x82d4	; 0x82d4 <__floatsisf>
    7520:	7b 01       	movw	r14, r22
    7522:	8c 01       	movw	r16, r24
    7524:	69 85       	ldd	r22, Y+9	; 0x09
    7526:	7a 85       	ldd	r23, Y+10	; 0x0a
    7528:	8b 85       	ldd	r24, Y+11	; 0x0b
    752a:	9c 85       	ldd	r25, Y+12	; 0x0c
    752c:	29 89       	ldd	r18, Y+17	; 0x11
    752e:	3a 89       	ldd	r19, Y+18	; 0x12
    7530:	4b 89       	ldd	r20, Y+19	; 0x13
    7532:	5c 89       	ldd	r21, Y+20	; 0x14
    7534:	0e 94 49 1e 	call	0x3c92	; 0x3c92 <LF>
    7538:	7b 01       	movw	r14, r22
    753a:	8c 01       	movw	r16, r24

			if(!oc)oc=1;
    753c:	80 91 38 02 	lds	r24, 0x0238
    7540:	90 91 39 02 	lds	r25, 0x0239
    7544:	00 97       	sbiw	r24, 0x00	; 0
    7546:	31 f4       	brne	.+12     	; 0x7554 <AB+0x4d0>
    7548:	21 e0       	ldi	r18, 0x01	; 1
    754a:	30 e0       	ldi	r19, 0x00	; 0
    754c:	30 93 39 02 	sts	0x0239, r19
    7550:	20 93 38 02 	sts	0x0238, r18
			if(oc>500){LE return;}
    7554:	80 91 38 02 	lds	r24, 0x0238
    7558:	90 91 39 02 	lds	r25, 0x0239
    755c:	31 e0       	ldi	r19, 0x01	; 1
    755e:	85 3f       	cpi	r24, 0xF5	; 245
    7560:	93 07       	cpc	r25, r19
    7562:	04 f5       	brge	.+64     	; 0x75a4 <AB+0x520>
			}

			if(zm)
				z=(psd[xp]-psd[zp]-xm+zm)*zbo* 1.2;

			x= (int)LF(xsp,-xsp,x);
    7564:	69 8d       	ldd	r22, Y+25	; 0x19
    7566:	7a 8d       	ldd	r23, Y+26	; 0x1a
    7568:	8b 8d       	ldd	r24, Y+27	; 0x1b
    756a:	9c 8d       	ldd	r25, Y+28	; 0x1c
    756c:	0e 94 37 41 	call	0x826e	; 0x826e <__fixsfsi>
    7570:	7a 8f       	std	Y+26, r23	; 0x1a
    7572:	69 8f       	std	Y+25, r22	; 0x19
			y= (int)LF(ysp,-ysp,y);
    7574:	c6 01       	movw	r24, r12
    7576:	b5 01       	movw	r22, r10
    7578:	0e 94 37 41 	call	0x826e	; 0x826e <__fixsfsi>
    757c:	2b 01       	movw	r4, r22
			z= (int)LF(xsp,-xsp,z);
    757e:	c8 01       	movw	r24, r16
    7580:	b7 01       	movw	r22, r14
    7582:	0e 94 37 41 	call	0x826e	; 0x826e <__fixsfsi>
    7586:	1b 01       	movw	r2, r22

			if(!oc)oc=1;
			if(oc>500){LE return;}
			if(abs(y)<1 && abs(x)<1 && abs(z)<1){LE return;}
    7588:	41 14       	cp	r4, r1
    758a:	51 04       	cpc	r5, r1
    758c:	09 f0       	breq	.+2      	; 0x7590 <AB+0x50c>
    758e:	60 c0       	rjmp	.+192    	; 0x7650 <AB+0x5cc>
    7590:	49 8d       	ldd	r20, Y+25	; 0x19
    7592:	5a 8d       	ldd	r21, Y+26	; 0x1a
    7594:	41 15       	cp	r20, r1
    7596:	51 05       	cpc	r21, r1
    7598:	09 f0       	breq	.+2      	; 0x759c <AB+0x518>
    759a:	5a c0       	rjmp	.+180    	; 0x7650 <AB+0x5cc>
    759c:	61 15       	cp	r22, r1
    759e:	71 05       	cpc	r23, r1
    75a0:	09 f0       	breq	.+2      	; 0x75a4 <AB+0x520>
    75a2:	56 c0       	rjmp	.+172    	; 0x7650 <AB+0x5cc>
    75a4:	10 92 4b 02 	sts	0x024B, r1
    75a8:	10 92 4a 02 	sts	0x024A, r1
    75ac:	80 e0       	ldi	r24, 0x00	; 0
    75ae:	90 e0       	ldi	r25, 0x00	; 0
    75b0:	dc 01       	movw	r26, r24
    75b2:	80 93 93 02 	sts	0x0293, r24
    75b6:	90 93 94 02 	sts	0x0294, r25
    75ba:	a0 93 95 02 	sts	0x0295, r26
    75be:	b0 93 96 02 	sts	0x0296, r27
    75c2:	80 91 93 02 	lds	r24, 0x0293
    75c6:	90 91 94 02 	lds	r25, 0x0294
    75ca:	a0 91 95 02 	lds	r26, 0x0295
    75ce:	b0 91 96 02 	lds	r27, 0x0296
    75d2:	80 93 1d 03 	sts	0x031D, r24
    75d6:	90 93 1e 03 	sts	0x031E, r25
    75da:	a0 93 1f 03 	sts	0x031F, r26
    75de:	b0 93 20 03 	sts	0x0320, r27
    75e2:	80 91 1d 03 	lds	r24, 0x031D
    75e6:	90 91 1e 03 	lds	r25, 0x031E
    75ea:	a0 91 1f 03 	lds	r26, 0x031F
    75ee:	b0 91 20 03 	lds	r27, 0x0320
    75f2:	80 93 87 02 	sts	0x0287, r24
    75f6:	90 93 88 02 	sts	0x0288, r25
    75fa:	a0 93 89 02 	sts	0x0289, r26
    75fe:	b0 93 8a 02 	sts	0x028A, r27
    7602:	60 91 87 02 	lds	r22, 0x0287
    7606:	70 91 88 02 	lds	r23, 0x0288
    760a:	80 91 89 02 	lds	r24, 0x0289
    760e:	90 91 8a 02 	lds	r25, 0x028A
    7612:	0e 94 37 41 	call	0x826e	; 0x826e <__fixsfsi>
    7616:	70 93 39 02 	sts	0x0239, r23
    761a:	60 93 38 02 	sts	0x0238, r22
			speed(acf*x,cacf*y,acf*z,wa);
		}
	}
}
    761e:	e6 96       	adiw	r28, 0x36	; 54
    7620:	0f b6       	in	r0, 0x3f	; 63
    7622:	f8 94       	cli
    7624:	de bf       	out	0x3e, r29	; 62
    7626:	0f be       	out	0x3f, r0	; 63
    7628:	cd bf       	out	0x3d, r28	; 61
    762a:	cf 91       	pop	r28
    762c:	df 91       	pop	r29
    762e:	1f 91       	pop	r17
    7630:	0f 91       	pop	r16
    7632:	ff 90       	pop	r15
    7634:	ef 90       	pop	r14
    7636:	df 90       	pop	r13
    7638:	cf 90       	pop	r12
    763a:	bf 90       	pop	r11
    763c:	af 90       	pop	r10
    763e:	9f 90       	pop	r9
    7640:	8f 90       	pop	r8
    7642:	7f 90       	pop	r7
    7644:	6f 90       	pop	r6
    7646:	5f 90       	pop	r5
    7648:	4f 90       	pop	r4
    764a:	3f 90       	pop	r3
    764c:	2f 90       	pop	r2
    764e:	08 95       	ret
			z= (int)LF(xsp,-xsp,z);

			if(!oc)oc=1;
			if(oc>500){LE return;}
			if(abs(y)<1 && abs(x)<1 && abs(z)<1){LE return;}
			speed(acf*x,cacf*y,acf*z,wa);
    7650:	e0 90 22 02 	lds	r14, 0x0222
    7654:	f0 90 23 02 	lds	r15, 0x0223
    7658:	00 91 24 02 	lds	r16, 0x0224
    765c:	10 91 25 02 	lds	r17, 0x0225
    7660:	a9 8d       	ldd	r26, Y+25	; 0x19
    7662:	ba 8d       	ldd	r27, Y+26	; 0x1a
    7664:	bd 01       	movw	r22, r26
    7666:	88 27       	eor	r24, r24
    7668:	77 fd       	sbrc	r23, 7
    766a:	80 95       	com	r24
    766c:	98 2f       	mov	r25, r24
    766e:	0e 94 6a 41 	call	0x82d4	; 0x82d4 <__floatsisf>
    7672:	9b 01       	movw	r18, r22
    7674:	ac 01       	movw	r20, r24
    7676:	c8 01       	movw	r24, r16
    7678:	b7 01       	movw	r22, r14
    767a:	0e 94 2e 43 	call	0x865c	; 0x865c <__mulsf3>
    767e:	69 87       	std	Y+9, r22	; 0x09
    7680:	7a 87       	std	Y+10, r23	; 0x0a
    7682:	8b 87       	std	Y+11, r24	; 0x0b
    7684:	9c 87       	std	Y+12, r25	; 0x0c
    7686:	b2 01       	movw	r22, r4
    7688:	88 27       	eor	r24, r24
    768a:	77 fd       	sbrc	r23, 7
    768c:	80 95       	com	r24
    768e:	98 2f       	mov	r25, r24
    7690:	0e 94 6a 41 	call	0x82d4	; 0x82d4 <__floatsisf>
    7694:	20 91 3c 02 	lds	r18, 0x023C
    7698:	30 91 3d 02 	lds	r19, 0x023D
    769c:	40 91 3e 02 	lds	r20, 0x023E
    76a0:	50 91 3f 02 	lds	r21, 0x023F
    76a4:	0e 94 2e 43 	call	0x865c	; 0x865c <__mulsf3>
    76a8:	3b 01       	movw	r6, r22
    76aa:	4c 01       	movw	r8, r24
    76ac:	b1 01       	movw	r22, r2
    76ae:	88 27       	eor	r24, r24
    76b0:	77 fd       	sbrc	r23, 7
    76b2:	80 95       	com	r24
    76b4:	98 2f       	mov	r25, r24
    76b6:	0e 94 6a 41 	call	0x82d4	; 0x82d4 <__floatsisf>
    76ba:	9b 01       	movw	r18, r22
    76bc:	ac 01       	movw	r20, r24
    76be:	c8 01       	movw	r24, r16
    76c0:	b7 01       	movw	r22, r14
    76c2:	0e 94 2e 43 	call	0x865c	; 0x865c <__mulsf3>
    76c6:	7b 01       	movw	r14, r22
    76c8:	8c 01       	movw	r16, r24
    76ca:	60 91 5e 02 	lds	r22, 0x025E
    76ce:	70 91 5f 02 	lds	r23, 0x025F
    76d2:	88 27       	eor	r24, r24
    76d4:	77 fd       	sbrc	r23, 7
    76d6:	80 95       	com	r24
    76d8:	98 2f       	mov	r25, r24
    76da:	0e 94 6a 41 	call	0x82d4	; 0x82d4 <__floatsisf>
    76de:	5b 01       	movw	r10, r22
    76e0:	6c 01       	movw	r12, r24
    76e2:	69 85       	ldd	r22, Y+9	; 0x09
    76e4:	7a 85       	ldd	r23, Y+10	; 0x0a
    76e6:	8b 85       	ldd	r24, Y+11	; 0x0b
    76e8:	9c 85       	ldd	r25, Y+12	; 0x0c
    76ea:	a4 01       	movw	r20, r8
    76ec:	93 01       	movw	r18, r6
    76ee:	0e 94 93 16 	call	0x2d26	; 0x2d26 <speed>
    76f2:	38 ce       	rjmp	.-912    	; 0x7364 <AB+0x2e0>

000076f4 <LS>:
}

int LS(){
	int lines = 0;
	
	if(IR_1 == 0 && IR_2 == 0 && IR_3 ==0 ) lines=  0;
    76f4:	80 91 91 02 	lds	r24, 0x0291
    76f8:	90 91 92 02 	lds	r25, 0x0292
    76fc:	00 97       	sbiw	r24, 0x00	; 0
    76fe:	51 f4       	brne	.+20     	; 0x7714 <LS+0x20>
    7700:	80 91 8d 02 	lds	r24, 0x028D
    7704:	90 91 8e 02 	lds	r25, 0x028E
    7708:	00 97       	sbiw	r24, 0x00	; 0
    770a:	21 f4       	brne	.+8      	; 0x7714 <LS+0x20>
    770c:	80 91 47 03 	lds	r24, 0x0347
    7710:	90 91 48 03 	lds	r25, 0x0348
	if(IR_1 == 1 && IR_2 == 0 && IR_3 ==0 ) lines=  1;
    7714:	80 91 91 02 	lds	r24, 0x0291
    7718:	90 91 92 02 	lds	r25, 0x0292
    771c:	81 30       	cpi	r24, 0x01	; 1
    771e:	91 05       	cpc	r25, r1
    7720:	71 f4       	brne	.+28     	; 0x773e <LS+0x4a>
    7722:	80 91 8d 02 	lds	r24, 0x028D
    7726:	90 91 8e 02 	lds	r25, 0x028E
    772a:	00 97       	sbiw	r24, 0x00	; 0
    772c:	41 f4       	brne	.+16     	; 0x773e <LS+0x4a>
    772e:	80 91 47 03 	lds	r24, 0x0347
    7732:	90 91 48 03 	lds	r25, 0x0348
    7736:	21 e0       	ldi	r18, 0x01	; 1
    7738:	30 e0       	ldi	r19, 0x00	; 0
    773a:	00 97       	sbiw	r24, 0x00	; 0
    773c:	11 f0       	breq	.+4      	; 0x7742 <LS+0x4e>
    773e:	20 e0       	ldi	r18, 0x00	; 0
    7740:	30 e0       	ldi	r19, 0x00	; 0
	if(IR_1 == 1 && IR_2 == 1 && IR_3 ==0 ) lines=  2;
    7742:	80 91 91 02 	lds	r24, 0x0291
    7746:	90 91 92 02 	lds	r25, 0x0292
    774a:	81 30       	cpi	r24, 0x01	; 1
    774c:	91 05       	cpc	r25, r1
    774e:	79 f4       	brne	.+30     	; 0x776e <LS+0x7a>
    7750:	80 91 8d 02 	lds	r24, 0x028D
    7754:	90 91 8e 02 	lds	r25, 0x028E
    7758:	81 30       	cpi	r24, 0x01	; 1
    775a:	91 05       	cpc	r25, r1
    775c:	41 f4       	brne	.+16     	; 0x776e <LS+0x7a>
    775e:	80 91 47 03 	lds	r24, 0x0347
    7762:	90 91 48 03 	lds	r25, 0x0348
    7766:	00 97       	sbiw	r24, 0x00	; 0
    7768:	11 f4       	brne	.+4      	; 0x776e <LS+0x7a>
    776a:	22 e0       	ldi	r18, 0x02	; 2
    776c:	30 e0       	ldi	r19, 0x00	; 0
	if(IR_1 == 0 && IR_2 == 1 && IR_3 ==0 ) lines=  3;
    776e:	80 91 91 02 	lds	r24, 0x0291
    7772:	90 91 92 02 	lds	r25, 0x0292
    7776:	00 97       	sbiw	r24, 0x00	; 0
    7778:	79 f4       	brne	.+30     	; 0x7798 <LS+0xa4>
    777a:	80 91 8d 02 	lds	r24, 0x028D
    777e:	90 91 8e 02 	lds	r25, 0x028E
    7782:	81 30       	cpi	r24, 0x01	; 1
    7784:	91 05       	cpc	r25, r1
    7786:	41 f4       	brne	.+16     	; 0x7798 <LS+0xa4>
    7788:	80 91 47 03 	lds	r24, 0x0347
    778c:	90 91 48 03 	lds	r25, 0x0348
    7790:	00 97       	sbiw	r24, 0x00	; 0
    7792:	11 f4       	brne	.+4      	; 0x7798 <LS+0xa4>
    7794:	23 e0       	ldi	r18, 0x03	; 3
    7796:	30 e0       	ldi	r19, 0x00	; 0
	if(IR_1 == 0 && IR_2 == 1 && IR_3 ==1 ) lines=  4;
    7798:	80 91 91 02 	lds	r24, 0x0291
    779c:	90 91 92 02 	lds	r25, 0x0292
    77a0:	00 97       	sbiw	r24, 0x00	; 0
    77a2:	81 f4       	brne	.+32     	; 0x77c4 <LS+0xd0>
    77a4:	80 91 8d 02 	lds	r24, 0x028D
    77a8:	90 91 8e 02 	lds	r25, 0x028E
    77ac:	81 30       	cpi	r24, 0x01	; 1
    77ae:	91 05       	cpc	r25, r1
    77b0:	49 f4       	brne	.+18     	; 0x77c4 <LS+0xd0>
    77b2:	80 91 47 03 	lds	r24, 0x0347
    77b6:	90 91 48 03 	lds	r25, 0x0348
    77ba:	81 30       	cpi	r24, 0x01	; 1
    77bc:	91 05       	cpc	r25, r1
    77be:	11 f4       	brne	.+4      	; 0x77c4 <LS+0xd0>
    77c0:	24 e0       	ldi	r18, 0x04	; 4
    77c2:	30 e0       	ldi	r19, 0x00	; 0
	if(IR_1 == 0 && IR_2 == 0 && IR_3 ==1 ) lines=  5;
    77c4:	80 91 91 02 	lds	r24, 0x0291
    77c8:	90 91 92 02 	lds	r25, 0x0292
    77cc:	00 97       	sbiw	r24, 0x00	; 0
    77ce:	79 f4       	brne	.+30     	; 0x77ee <LS+0xfa>
    77d0:	80 91 8d 02 	lds	r24, 0x028D
    77d4:	90 91 8e 02 	lds	r25, 0x028E
    77d8:	00 97       	sbiw	r24, 0x00	; 0
    77da:	49 f4       	brne	.+18     	; 0x77ee <LS+0xfa>
    77dc:	80 91 47 03 	lds	r24, 0x0347
    77e0:	90 91 48 03 	lds	r25, 0x0348
    77e4:	81 30       	cpi	r24, 0x01	; 1
    77e6:	91 05       	cpc	r25, r1
    77e8:	11 f4       	brne	.+4      	; 0x77ee <LS+0xfa>
    77ea:	25 e0       	ldi	r18, 0x05	; 5
    77ec:	30 e0       	ldi	r19, 0x00	; 0

	if(IR_1 == 1 && IR_2 == 1 && IR_3 ==1 ) lines=  10;
    77ee:	80 91 91 02 	lds	r24, 0x0291
    77f2:	90 91 92 02 	lds	r25, 0x0292
    77f6:	81 30       	cpi	r24, 0x01	; 1
    77f8:	91 05       	cpc	r25, r1
    77fa:	81 f4       	brne	.+32     	; 0x781c <LS+0x128>
    77fc:	80 91 8d 02 	lds	r24, 0x028D
    7800:	90 91 8e 02 	lds	r25, 0x028E
    7804:	81 30       	cpi	r24, 0x01	; 1
    7806:	91 05       	cpc	r25, r1
    7808:	49 f4       	brne	.+18     	; 0x781c <LS+0x128>
    780a:	80 91 47 03 	lds	r24, 0x0347
    780e:	90 91 48 03 	lds	r25, 0x0348
    7812:	81 30       	cpi	r24, 0x01	; 1
    7814:	91 05       	cpc	r25, r1
    7816:	11 f4       	brne	.+4      	; 0x781c <LS+0x128>
    7818:	2a e0       	ldi	r18, 0x0A	; 10
    781a:	30 e0       	ldi	r19, 0x00	; 0

	return lines;
}
    781c:	c9 01       	movw	r24, r18
    781e:	08 95       	ret

00007820 <LC>:
int LC(int lines){
    7820:	df 93       	push	r29
    7822:	cf 93       	push	r28
    7824:	cd b7       	in	r28, 0x3d	; 61
    7826:	de b7       	in	r29, 0x3e	; 62
    7828:	66 97       	sbiw	r28, 0x16	; 22
    782a:	0f b6       	in	r0, 0x3f	; 63
    782c:	f8 94       	cli
    782e:	de bf       	out	0x3e, r29	; 62
    7830:	0f be       	out	0x3f, r0	; 63
    7832:	cd bf       	out	0x3d, r28	; 61
	int hd[11] = {0,100,50,0,-50,-100};
    7834:	fe 01       	movw	r30, r28
    7836:	31 96       	adiw	r30, 0x01	; 1
    7838:	26 e1       	ldi	r18, 0x16	; 22
    783a:	df 01       	movw	r26, r30
    783c:	1d 92       	st	X+, r1
    783e:	2a 95       	dec	r18
    7840:	e9 f7       	brne	.-6      	; 0x783c <LC+0x1c>
    7842:	24 e6       	ldi	r18, 0x64	; 100
    7844:	30 e0       	ldi	r19, 0x00	; 0
    7846:	3c 83       	std	Y+4, r19	; 0x04
    7848:	2b 83       	std	Y+3, r18	; 0x03
    784a:	22 e3       	ldi	r18, 0x32	; 50
    784c:	30 e0       	ldi	r19, 0x00	; 0
    784e:	3e 83       	std	Y+6, r19	; 0x06
    7850:	2d 83       	std	Y+5, r18	; 0x05
    7852:	2e ec       	ldi	r18, 0xCE	; 206
    7854:	3f ef       	ldi	r19, 0xFF	; 255
    7856:	3a 87       	std	Y+10, r19	; 0x0a
    7858:	29 87       	std	Y+9, r18	; 0x09
    785a:	2c e9       	ldi	r18, 0x9C	; 156
    785c:	3f ef       	ldi	r19, 0xFF	; 255
    785e:	3c 87       	std	Y+12, r19	; 0x0c
    7860:	2b 87       	std	Y+11, r18	; 0x0b


	return (int)(hd[lines] * 0.25);
    7862:	dc 01       	movw	r26, r24
    7864:	aa 0f       	add	r26, r26
    7866:	bb 1f       	adc	r27, r27
    7868:	ae 0f       	add	r26, r30
    786a:	bf 1f       	adc	r27, r31
    786c:	6d 91       	ld	r22, X+
    786e:	7c 91       	ld	r23, X
    7870:	88 27       	eor	r24, r24
    7872:	77 fd       	sbrc	r23, 7
    7874:	80 95       	com	r24
    7876:	98 2f       	mov	r25, r24
    7878:	0e 94 6a 41 	call	0x82d4	; 0x82d4 <__floatsisf>
    787c:	20 e0       	ldi	r18, 0x00	; 0
    787e:	30 e0       	ldi	r19, 0x00	; 0
    7880:	40 e8       	ldi	r20, 0x80	; 128
    7882:	5e e3       	ldi	r21, 0x3E	; 62
    7884:	0e 94 2e 43 	call	0x865c	; 0x865c <__mulsf3>
    7888:	0e 94 37 41 	call	0x826e	; 0x826e <__fixsfsi>
}
    788c:	cb 01       	movw	r24, r22
    788e:	66 96       	adiw	r28, 0x16	; 22
    7890:	0f b6       	in	r0, 0x3f	; 63
    7892:	f8 94       	cli
    7894:	de bf       	out	0x3e, r29	; 62
    7896:	0f be       	out	0x3f, r0	; 63
    7898:	cd bf       	out	0x3d, r28	; 61
    789a:	cf 91       	pop	r28
    789c:	df 91       	pop	r29
    789e:	08 95       	ret

000078a0 <MoveLine>:
			speed(gsp[0],gsp[1],gsp[2],wa);
		}
	}
}

void MoveLine(int check, int sel ,int cm, int sp, int ac){
    78a0:	2f 92       	push	r2
    78a2:	3f 92       	push	r3
    78a4:	4f 92       	push	r4
    78a6:	5f 92       	push	r5
    78a8:	6f 92       	push	r6
    78aa:	7f 92       	push	r7
    78ac:	8f 92       	push	r8
    78ae:	9f 92       	push	r9
    78b0:	af 92       	push	r10
    78b2:	bf 92       	push	r11
    78b4:	cf 92       	push	r12
    78b6:	df 92       	push	r13
    78b8:	ef 92       	push	r14
    78ba:	ff 92       	push	r15
    78bc:	0f 93       	push	r16
    78be:	1f 93       	push	r17
    78c0:	cf 93       	push	r28
    78c2:	df 93       	push	r29
    78c4:	2c 01       	movw	r4, r24
    78c6:	7a 01       	movw	r14, r20
    78c8:	e9 01       	movw	r28, r18
    78ca:	18 01       	movw	r2, r16
	ginit("MoveLine");
    78cc:	10 92 4b 02 	sts	0x024B, r1
    78d0:	10 92 4a 02 	sts	0x024A, r1
    78d4:	10 92 11 02 	sts	0x0211, r1
    78d8:	10 92 10 02 	sts	0x0210, r1
    78dc:	80 91 10 02 	lds	r24, 0x0210
    78e0:	90 91 11 02 	lds	r25, 0x0211
    78e4:	90 93 5a 03 	sts	0x035A, r25
    78e8:	80 93 59 03 	sts	0x0359, r24
    78ec:	80 91 59 03 	lds	r24, 0x0359
    78f0:	90 91 5a 03 	lds	r25, 0x035A
    78f4:	90 93 39 02 	sts	0x0239, r25
    78f8:	80 93 38 02 	sts	0x0238, r24
    78fc:	60 e0       	ldi	r22, 0x00	; 0
    78fe:	70 e0       	ldi	r23, 0x00	; 0
    7900:	80 e0       	ldi	r24, 0x00	; 0
    7902:	90 e0       	ldi	r25, 0x00	; 0
    7904:	dc 01       	movw	r26, r24
    7906:	8b 01       	movw	r16, r22
    7908:	00 0f       	add	r16, r16
    790a:	11 1f       	adc	r17, r17
    790c:	00 0f       	add	r16, r16
    790e:	11 1f       	adc	r17, r17
    7910:	98 01       	movw	r18, r16
    7912:	27 5b       	subi	r18, 0xB7	; 183
    7914:	3c 4f       	sbci	r19, 0xFC	; 252
    7916:	f9 01       	movw	r30, r18
    7918:	80 83       	st	Z, r24
    791a:	91 83       	std	Z+1, r25	; 0x01
    791c:	a2 83       	std	Z+2, r26	; 0x02
    791e:	b3 83       	std	Z+3, r27	; 0x03
    7920:	20 81       	ld	r18, Z
    7922:	31 81       	ldd	r19, Z+1	; 0x01
    7924:	42 81       	ldd	r20, Z+2	; 0x02
    7926:	53 81       	ldd	r21, Z+3	; 0x03
    7928:	f8 01       	movw	r30, r16
    792a:	e9 5c       	subi	r30, 0xC9	; 201
    792c:	fc 4f       	sbci	r31, 0xFC	; 252
    792e:	20 83       	st	Z, r18
    7930:	31 83       	std	Z+1, r19	; 0x01
    7932:	42 83       	std	Z+2, r20	; 0x02
    7934:	53 83       	std	Z+3, r21	; 0x03
    7936:	6f 5f       	subi	r22, 0xFF	; 255
    7938:	7f 4f       	sbci	r23, 0xFF	; 255
    793a:	64 30       	cpi	r22, 0x04	; 4
    793c:	71 05       	cpc	r23, r1
    793e:	19 f7       	brne	.-58     	; 0x7906 <MoveLine+0x66>
    7940:	00 d0       	rcall	.+0      	; 0x7942 <MoveLine+0xa2>
    7942:	00 d0       	rcall	.+0      	; 0x7944 <MoveLine+0xa4>
    7944:	00 d0       	rcall	.+0      	; 0x7946 <MoveLine+0xa6>
    7946:	ed b7       	in	r30, 0x3d	; 61
    7948:	fe b7       	in	r31, 0x3e	; 62
    794a:	31 96       	adiw	r30, 0x01	; 1
    794c:	01 e2       	ldi	r16, 0x21	; 33
    794e:	13 e0       	ldi	r17, 0x03	; 3
    7950:	ad b7       	in	r26, 0x3d	; 61
    7952:	be b7       	in	r27, 0x3e	; 62
    7954:	12 96       	adiw	r26, 0x02	; 2
    7956:	1c 93       	st	X, r17
    7958:	0e 93       	st	-X, r16
    795a:	11 97       	sbiw	r26, 0x01	; 1
    795c:	84 eb       	ldi	r24, 0xB4	; 180
    795e:	91 e0       	ldi	r25, 0x01	; 1
    7960:	93 83       	std	Z+3, r25	; 0x03
    7962:	82 83       	std	Z+2, r24	; 0x02
    7964:	8b ef       	ldi	r24, 0xFB	; 251
    7966:	91 e0       	ldi	r25, 0x01	; 1
    7968:	95 83       	std	Z+5, r25	; 0x05
    796a:	84 83       	std	Z+4, r24	; 0x04
    796c:	0e 94 20 40 	call	0x8040	; 0x8040 <sprintf>
    7970:	ed b7       	in	r30, 0x3d	; 61
    7972:	fe b7       	in	r31, 0x3e	; 62
    7974:	36 96       	adiw	r30, 0x06	; 6
    7976:	0f b6       	in	r0, 0x3f	; 63
    7978:	f8 94       	cli
    797a:	fe bf       	out	0x3e, r31	; 62
    797c:	0f be       	out	0x3f, r0	; 63
    797e:	ed bf       	out	0x3d, r30	; 61
    7980:	80 e0       	ldi	r24, 0x00	; 0
    7982:	67 e0       	ldi	r22, 0x07	; 7
    7984:	a8 01       	movw	r20, r16
    7986:	0e 94 67 01 	call	0x2ce	; 0x2ce <LCD>
	int c = 0, lines= 0;

	tot = O(0,cm,0,0)
    798a:	80 e0       	ldi	r24, 0x00	; 0
    798c:	90 e0       	ldi	r25, 0x00	; 0
    798e:	b7 01       	movw	r22, r14
    7990:	40 e0       	ldi	r20, 0x00	; 0
    7992:	50 e0       	ldi	r21, 0x00	; 0
    7994:	20 e0       	ldi	r18, 0x00	; 0
    7996:	30 e0       	ldi	r19, 0x00	; 0
    7998:	8e 01       	movw	r16, r28
    799a:	71 01       	movw	r14, r2
    799c:	0e 94 11 19 	call	0x3222	; 0x3222 <Omni>
    79a0:	90 93 5a 03 	sts	0x035A, r25
    79a4:	80 93 59 03 	sts	0x0359, r24
	while(1){
		OS
		
		if(!gtc)
		{
			gtc = 1;
    79a8:	c1 e0       	ldi	r28, 0x01	; 1
    79aa:	d0 e0       	ldi	r29, 0x00	; 0
	int c = 0, lines= 0;

	tot = O(0,cm,0,0)

	while(1){
		OS
    79ac:	80 91 59 03 	lds	r24, 0x0359
    79b0:	90 91 5a 03 	lds	r25, 0x035A
    79b4:	b1 01       	movw	r22, r2
    79b6:	0e 94 00 1a 	call	0x3400	; 0x3400 <OmniSet>
		
		if(!gtc)
    79ba:	80 91 10 02 	lds	r24, 0x0210
    79be:	90 91 11 02 	lds	r25, 0x0211
    79c2:	00 97       	sbiw	r24, 0x00	; 0
    79c4:	99 f7       	brne	.-26     	; 0x79ac <MoveLine+0x10c>
		{
			gtc = 1;
    79c6:	d0 93 11 02 	sts	0x0211, r29
    79ca:	c0 93 10 02 	sts	0x0210, r28
			lines = LS();
    79ce:	0e 94 7a 3b 	call	0x76f4	; 0x76f4 <LS>
    79d2:	8c 01       	movw	r16, r24
			if(lines != 6) c = LC(lines);
    79d4:	86 30       	cpi	r24, 0x06	; 6
    79d6:	91 05       	cpc	r25, r1
    79d8:	19 f0       	breq	.+6      	; 0x79e0 <MoveLine+0x140>
    79da:	0e 94 10 3c 	call	0x7820	; 0x7820 <LC>
    79de:	02 c0       	rjmp	.+4      	; 0x79e4 <MoveLine+0x144>
			else c=  0;
    79e0:	80 e0       	ldi	r24, 0x00	; 0
    79e2:	90 e0       	ldi	r25, 0x00	; 0
			if(check == 2 && IR_4 && IR_5) {LE return;}
    79e4:	f2 e0       	ldi	r31, 0x02	; 2
    79e6:	4f 16       	cp	r4, r31
    79e8:	51 04       	cpc	r5, r1
    79ea:	79 f4       	brne	.+30     	; 0x7a0a <MoveLine+0x16a>
    79ec:	20 91 8f 02 	lds	r18, 0x028F
    79f0:	30 91 90 02 	lds	r19, 0x0290
    79f4:	21 15       	cp	r18, r1
    79f6:	31 05       	cpc	r19, r1
    79f8:	b1 f0       	breq	.+44     	; 0x7a26 <MoveLine+0x186>
    79fa:	20 91 1b 03 	lds	r18, 0x031B
    79fe:	30 91 1c 03 	lds	r19, 0x031C
    7a02:	21 15       	cp	r18, r1
    7a04:	31 05       	cpc	r19, r1
    7a06:	79 f0       	breq	.+30     	; 0x7a26 <MoveLine+0x186>
    7a08:	4b c0       	rjmp	.+150    	; 0x7aa0 <MoveLine+0x200>
			if(check == 1 && lines == 10) {LE return;}
    7a0a:	21 e0       	ldi	r18, 0x01	; 1
    7a0c:	42 16       	cp	r4, r18
    7a0e:	51 04       	cpc	r5, r1
    7a10:	21 f4       	brne	.+8      	; 0x7a1a <MoveLine+0x17a>
    7a12:	0a 30       	cpi	r16, 0x0A	; 10
    7a14:	11 05       	cpc	r17, r1
    7a16:	39 f4       	brne	.+14     	; 0x7a26 <MoveLine+0x186>
    7a18:	43 c0       	rjmp	.+134    	; 0x7aa0 <MoveLine+0x200>
			if(check == 0 && lines == 0) {LE return;}
    7a1a:	41 14       	cp	r4, r1
    7a1c:	51 04       	cpc	r5, r1
    7a1e:	19 f4       	brne	.+6      	; 0x7a26 <MoveLine+0x186>
    7a20:	01 15       	cp	r16, r1
    7a22:	11 05       	cpc	r17, r1
    7a24:	e9 f1       	breq	.+122    	; 0x7aa0 <MoveLine+0x200>

			speed(0,gsp[1],-c,wa);
    7a26:	60 90 4d 03 	lds	r6, 0x034D
    7a2a:	70 90 4e 03 	lds	r7, 0x034E
    7a2e:	80 90 4f 03 	lds	r8, 0x034F
    7a32:	90 90 50 03 	lds	r9, 0x0350
    7a36:	66 27       	eor	r22, r22
    7a38:	77 27       	eor	r23, r23
    7a3a:	68 1b       	sub	r22, r24
    7a3c:	79 0b       	sbc	r23, r25
    7a3e:	88 27       	eor	r24, r24
    7a40:	77 fd       	sbrc	r23, 7
    7a42:	80 95       	com	r24
    7a44:	98 2f       	mov	r25, r24
    7a46:	0e 94 6a 41 	call	0x82d4	; 0x82d4 <__floatsisf>
    7a4a:	7b 01       	movw	r14, r22
    7a4c:	8c 01       	movw	r16, r24
    7a4e:	60 91 5e 02 	lds	r22, 0x025E
    7a52:	70 91 5f 02 	lds	r23, 0x025F
    7a56:	88 27       	eor	r24, r24
    7a58:	77 fd       	sbrc	r23, 7
    7a5a:	80 95       	com	r24
    7a5c:	98 2f       	mov	r25, r24
    7a5e:	0e 94 6a 41 	call	0x82d4	; 0x82d4 <__floatsisf>
    7a62:	5b 01       	movw	r10, r22
    7a64:	6c 01       	movw	r12, r24
    7a66:	60 e0       	ldi	r22, 0x00	; 0
    7a68:	70 e0       	ldi	r23, 0x00	; 0
    7a6a:	cb 01       	movw	r24, r22
    7a6c:	a4 01       	movw	r20, r8
    7a6e:	93 01       	movw	r18, r6
    7a70:	0e 94 93 16 	call	0x2d26	; 0x2d26 <speed>

			if(!oc) oc = 1;
    7a74:	80 91 38 02 	lds	r24, 0x0238
    7a78:	90 91 39 02 	lds	r25, 0x0239
    7a7c:	00 97       	sbiw	r24, 0x00	; 0
    7a7e:	21 f4       	brne	.+8      	; 0x7a88 <MoveLine+0x1e8>
    7a80:	d0 93 39 02 	sts	0x0239, r29
    7a84:	c0 93 38 02 	sts	0x0238, r28
			if(oc > tot) {LE return;}
    7a88:	80 91 59 03 	lds	r24, 0x0359
    7a8c:	90 91 5a 03 	lds	r25, 0x035A
    7a90:	20 91 38 02 	lds	r18, 0x0238
    7a94:	30 91 39 02 	lds	r19, 0x0239
    7a98:	82 17       	cp	r24, r18
    7a9a:	93 07       	cpc	r25, r19
    7a9c:	0c f0       	brlt	.+2      	; 0x7aa0 <MoveLine+0x200>
    7a9e:	86 cf       	rjmp	.-244    	; 0x79ac <MoveLine+0x10c>
    7aa0:	10 92 4b 02 	sts	0x024B, r1
    7aa4:	10 92 4a 02 	sts	0x024A, r1
    7aa8:	80 e0       	ldi	r24, 0x00	; 0
    7aaa:	90 e0       	ldi	r25, 0x00	; 0
    7aac:	dc 01       	movw	r26, r24
    7aae:	80 93 93 02 	sts	0x0293, r24
    7ab2:	90 93 94 02 	sts	0x0294, r25
    7ab6:	a0 93 95 02 	sts	0x0295, r26
    7aba:	b0 93 96 02 	sts	0x0296, r27
    7abe:	80 91 93 02 	lds	r24, 0x0293
    7ac2:	90 91 94 02 	lds	r25, 0x0294
    7ac6:	a0 91 95 02 	lds	r26, 0x0295
    7aca:	b0 91 96 02 	lds	r27, 0x0296
    7ace:	80 93 1d 03 	sts	0x031D, r24
    7ad2:	90 93 1e 03 	sts	0x031E, r25
    7ad6:	a0 93 1f 03 	sts	0x031F, r26
    7ada:	b0 93 20 03 	sts	0x0320, r27
    7ade:	80 91 1d 03 	lds	r24, 0x031D
    7ae2:	90 91 1e 03 	lds	r25, 0x031E
    7ae6:	a0 91 1f 03 	lds	r26, 0x031F
    7aea:	b0 91 20 03 	lds	r27, 0x0320
    7aee:	80 93 87 02 	sts	0x0287, r24
    7af2:	90 93 88 02 	sts	0x0288, r25
    7af6:	a0 93 89 02 	sts	0x0289, r26
    7afa:	b0 93 8a 02 	sts	0x028A, r27
    7afe:	60 91 87 02 	lds	r22, 0x0287
    7b02:	70 91 88 02 	lds	r23, 0x0288
    7b06:	80 91 89 02 	lds	r24, 0x0289
    7b0a:	90 91 8a 02 	lds	r25, 0x028A
    7b0e:	0e 94 37 41 	call	0x826e	; 0x826e <__fixsfsi>
    7b12:	70 93 39 02 	sts	0x0239, r23
    7b16:	60 93 38 02 	sts	0x0238, r22
		}
	}
}
    7b1a:	df 91       	pop	r29
    7b1c:	cf 91       	pop	r28
    7b1e:	1f 91       	pop	r17
    7b20:	0f 91       	pop	r16
    7b22:	ff 90       	pop	r15
    7b24:	ef 90       	pop	r14
    7b26:	df 90       	pop	r13
    7b28:	cf 90       	pop	r12
    7b2a:	bf 90       	pop	r11
    7b2c:	af 90       	pop	r10
    7b2e:	9f 90       	pop	r9
    7b30:	8f 90       	pop	r8
    7b32:	7f 90       	pop	r7
    7b34:	6f 90       	pop	r6
    7b36:	5f 90       	pop	r5
    7b38:	4f 90       	pop	r4
    7b3a:	3f 90       	pop	r3
    7b3c:	2f 90       	pop	r2
    7b3e:	08 95       	ret

00007b40 <V1>:


	return (int)(hd[lines] * 0.25);
}

int V1(){
    7b40:	af 92       	push	r10
    7b42:	bf 92       	push	r11
    7b44:	cf 92       	push	r12
    7b46:	df 92       	push	r13
    7b48:	ef 92       	push	r14
    7b4a:	ff 92       	push	r15
    7b4c:	0f 93       	push	r16
    7b4e:	1f 93       	push	r17
    7b50:	df 93       	push	r29
    7b52:	cf 93       	push	r28
    7b54:	cd b7       	in	r28, 0x3d	; 61
    7b56:	de b7       	in	r29, 0x3e	; 62
    7b58:	c0 59       	subi	r28, 0x90	; 144
    7b5a:	d1 40       	sbci	r29, 0x01	; 1
    7b5c:	0f b6       	in	r0, 0x3f	; 63
    7b5e:	f8 94       	cli
    7b60:	de bf       	out	0x3e, r29	; 62
    7b62:	0f be       	out	0x3f, r0	; 63
    7b64:	cd bf       	out	0x3d, r28	; 61
	for(int i = 0;  i < 9 ; i++)
    7b66:	80 e0       	ldi	r24, 0x00	; 0
    7b68:	90 e0       	ldi	r25, 0x00	; 0
		for(int j = 0 ; j< 5 ; j++)
			pro[i][j] = 0;
    7b6a:	fc 01       	movw	r30, r24
    7b6c:	ee 0f       	add	r30, r30
    7b6e:	ff 1f       	adc	r31, r31
    7b70:	9c 01       	movw	r18, r24
    7b72:	43 e0       	ldi	r20, 0x03	; 3
    7b74:	22 0f       	add	r18, r18
    7b76:	33 1f       	adc	r19, r19
    7b78:	4a 95       	dec	r20
    7b7a:	e1 f7       	brne	.-8      	; 0x7b74 <V1+0x34>
    7b7c:	e2 0f       	add	r30, r18
    7b7e:	f3 1f       	adc	r31, r19
    7b80:	e7 56       	subi	r30, 0x67	; 103
    7b82:	fd 4f       	sbci	r31, 0xFD	; 253
    7b84:	11 82       	std	Z+1, r1	; 0x01
    7b86:	10 82       	st	Z, r1
    7b88:	13 82       	std	Z+3, r1	; 0x03
    7b8a:	12 82       	std	Z+2, r1	; 0x02
    7b8c:	15 82       	std	Z+5, r1	; 0x05
    7b8e:	14 82       	std	Z+4, r1	; 0x04
    7b90:	17 82       	std	Z+7, r1	; 0x07
    7b92:	16 82       	std	Z+6, r1	; 0x06
    7b94:	11 86       	std	Z+9, r1	; 0x09
    7b96:	10 86       	std	Z+8, r1	; 0x08

	return (int)(hd[lines] * 0.25);
}

int V1(){
	for(int i = 0;  i < 9 ; i++)
    7b98:	01 96       	adiw	r24, 0x01	; 1
    7b9a:	89 30       	cpi	r24, 0x09	; 9
    7b9c:	91 05       	cpc	r25, r1
    7b9e:	29 f7       	brne	.-54     	; 0x7b6a <V1+0x2a>

	int am,str[200];

	while(1){
		rx1_flg = 0;
		gtc = 50;
    7ba0:	02 e3       	ldi	r16, 0x32	; 50
    7ba2:	10 e0       	ldi	r17, 0x00	; 0
	

	int am,str[200];

	while(1){
		rx1_flg = 0;
    7ba4:	10 92 04 02 	sts	0x0204, r1
		gtc = 50;
    7ba8:	10 93 11 02 	sts	0x0211, r17
    7bac:	00 93 10 02 	sts	0x0210, r16

		while(!rx1_flg) if(!gtc) {return 0;}
    7bb0:	07 c0       	rjmp	.+14     	; 0x7bc0 <V1+0x80>
    7bb2:	80 91 10 02 	lds	r24, 0x0210
    7bb6:	90 91 11 02 	lds	r25, 0x0211
    7bba:	00 97       	sbiw	r24, 0x00	; 0
    7bbc:	09 f4       	brne	.+2      	; 0x7bc0 <V1+0x80>
    7bbe:	17 c1       	rjmp	.+558    	; 0x7dee <V1+0x2ae>
    7bc0:	80 91 04 02 	lds	r24, 0x0204
    7bc4:	88 23       	and	r24, r24
    7bc6:	a9 f3       	breq	.-22     	; 0x7bb2 <V1+0x72>

		if(getchar1() == 'V'){
    7bc8:	0e 94 2b 01 	call	0x256	; 0x256 <getchar1>
    7bcc:	86 35       	cpi	r24, 0x56	; 86
    7bce:	51 f7       	brne	.-44     	; 0x7ba4 <V1+0x64>
			rx1_flg=  0;
    7bd0:	10 92 04 02 	sts	0x0204, r1
			while(!rx1_flg);
    7bd4:	80 91 04 02 	lds	r24, 0x0204
    7bd8:	88 23       	and	r24, r24
    7bda:	e1 f3       	breq	.-8      	; 0x7bd4 <V1+0x94>

			am = getchar1() - '0';
    7bdc:	0e 94 2b 01 	call	0x256	; 0x256 <getchar1>
    7be0:	a8 2e       	mov	r10, r24
    7be2:	bb 24       	eor	r11, r11
    7be4:	80 ed       	ldi	r24, 0xD0	; 208
    7be6:	9f ef       	ldi	r25, 0xFF	; 255
    7be8:	a8 0e       	add	r10, r24
    7bea:	b9 1e       	adc	r11, r25
	
			for(int i = 0 ; i  < am  *15 ; i++){
    7bec:	75 01       	movw	r14, r10
    7bee:	84 e0       	ldi	r24, 0x04	; 4
    7bf0:	ee 0c       	add	r14, r14
    7bf2:	ff 1c       	adc	r15, r15
    7bf4:	8a 95       	dec	r24
    7bf6:	e1 f7       	brne	.-8      	; 0x7bf0 <V1+0xb0>
    7bf8:	ea 18       	sub	r14, r10
    7bfa:	fb 08       	sbc	r15, r11
    7bfc:	6e 01       	movw	r12, r28
    7bfe:	08 94       	sec
    7c00:	c1 1c       	adc	r12, r1
    7c02:	d1 1c       	adc	r13, r1
    7c04:	00 e0       	ldi	r16, 0x00	; 0
    7c06:	10 e0       	ldi	r17, 0x00	; 0
    7c08:	10 c0       	rjmp	.+32     	; 0x7c2a <V1+0xea>
				rx1_flg=  0;
    7c0a:	10 92 04 02 	sts	0x0204, r1
				while(!rx1_flg);
    7c0e:	80 91 04 02 	lds	r24, 0x0204
    7c12:	88 23       	and	r24, r24
    7c14:	e1 f3       	breq	.-8      	; 0x7c0e <V1+0xce>
				str[i] = getchar1() - '0';
    7c16:	0e 94 2b 01 	call	0x256	; 0x256 <getchar1>
    7c1a:	90 e0       	ldi	r25, 0x00	; 0
    7c1c:	c0 97       	sbiw	r24, 0x30	; 48
    7c1e:	f6 01       	movw	r30, r12
    7c20:	81 93       	st	Z+, r24
    7c22:	91 93       	st	Z+, r25
    7c24:	6f 01       	movw	r12, r30
			rx1_flg=  0;
			while(!rx1_flg);

			am = getchar1() - '0';
	
			for(int i = 0 ; i  < am  *15 ; i++){
    7c26:	0f 5f       	subi	r16, 0xFF	; 255
    7c28:	1f 4f       	sbci	r17, 0xFF	; 255
    7c2a:	0e 15       	cp	r16, r14
    7c2c:	1f 05       	cpc	r17, r15
    7c2e:	6c f3       	brlt	.-38     	; 0x7c0a <V1+0xca>
    7c30:	fe 01       	movw	r30, r28
    7c32:	31 96       	adiw	r30, 0x01	; 1
    7c34:	80 e0       	ldi	r24, 0x00	; 0
    7c36:	90 e0       	ldi	r25, 0x00	; 0
		}
	}

	for(int i = 0 ; i < am ; i++){
		pro[i][0] = str[i * 15 + 1];
		pro[i][1] = str[i * 15 + 3]* 100 + str[i * 15 + 4]  *10 + str[i * 15 + 5];
    7c38:	44 e6       	ldi	r20, 0x64	; 100
    7c3a:	50 e0       	ldi	r21, 0x00	; 0
    7c3c:	94 c0       	rjmp	.+296    	; 0x7d66 <V1+0x226>
			break;
		}
	}

	for(int i = 0 ; i < am ; i++){
		pro[i][0] = str[i * 15 + 1];
    7c3e:	22 81       	ldd	r18, Z+2	; 0x02
    7c40:	33 81       	ldd	r19, Z+3	; 0x03
    7c42:	dc 01       	movw	r26, r24
    7c44:	aa 0f       	add	r26, r26
    7c46:	bb 1f       	adc	r27, r27
    7c48:	bc 01       	movw	r22, r24
    7c4a:	13 e0       	ldi	r17, 0x03	; 3
    7c4c:	66 0f       	add	r22, r22
    7c4e:	77 1f       	adc	r23, r23
    7c50:	1a 95       	dec	r17
    7c52:	e1 f7       	brne	.-8      	; 0x7c4c <V1+0x10c>
    7c54:	a6 0f       	add	r26, r22
    7c56:	b7 1f       	adc	r27, r23
    7c58:	a7 56       	subi	r26, 0x67	; 103
    7c5a:	bd 4f       	sbci	r27, 0xFD	; 253
    7c5c:	11 96       	adiw	r26, 0x01	; 1
    7c5e:	3c 93       	st	X, r19
    7c60:	2e 93       	st	-X, r18
		pro[i][1] = str[i * 15 + 3]* 100 + str[i * 15 + 4]  *10 + str[i * 15 + 5];
    7c62:	66 81       	ldd	r22, Z+6	; 0x06
    7c64:	77 81       	ldd	r23, Z+7	; 0x07
    7c66:	64 9f       	mul	r22, r20
    7c68:	90 01       	movw	r18, r0
    7c6a:	65 9f       	mul	r22, r21
    7c6c:	30 0d       	add	r19, r0
    7c6e:	74 9f       	mul	r23, r20
    7c70:	30 0d       	add	r19, r0
    7c72:	11 24       	eor	r1, r1
    7c74:	60 85       	ldd	r22, Z+8	; 0x08
    7c76:	71 85       	ldd	r23, Z+9	; 0x09
    7c78:	8b 01       	movw	r16, r22
    7c7a:	00 0f       	add	r16, r16
    7c7c:	11 1f       	adc	r17, r17
    7c7e:	66 0f       	add	r22, r22
    7c80:	77 1f       	adc	r23, r23
    7c82:	66 0f       	add	r22, r22
    7c84:	77 1f       	adc	r23, r23
    7c86:	66 0f       	add	r22, r22
    7c88:	77 1f       	adc	r23, r23
    7c8a:	06 0f       	add	r16, r22
    7c8c:	17 1f       	adc	r17, r23
    7c8e:	20 0f       	add	r18, r16
    7c90:	31 1f       	adc	r19, r17
    7c92:	62 85       	ldd	r22, Z+10	; 0x0a
    7c94:	73 85       	ldd	r23, Z+11	; 0x0b
    7c96:	26 0f       	add	r18, r22
    7c98:	37 1f       	adc	r19, r23
    7c9a:	13 96       	adiw	r26, 0x03	; 3
    7c9c:	3c 93       	st	X, r19
    7c9e:	2e 93       	st	-X, r18
    7ca0:	12 97       	sbiw	r26, 0x02	; 2
		pro[i][2] = str[i * 15 + 6]* 100 + str[i * 15 + 7]  *10 + str[i * 15 + 8];
    7ca2:	64 85       	ldd	r22, Z+12	; 0x0c
    7ca4:	75 85       	ldd	r23, Z+13	; 0x0d
    7ca6:	64 9f       	mul	r22, r20
    7ca8:	90 01       	movw	r18, r0
    7caa:	65 9f       	mul	r22, r21
    7cac:	30 0d       	add	r19, r0
    7cae:	74 9f       	mul	r23, r20
    7cb0:	30 0d       	add	r19, r0
    7cb2:	11 24       	eor	r1, r1
    7cb4:	66 85       	ldd	r22, Z+14	; 0x0e
    7cb6:	77 85       	ldd	r23, Z+15	; 0x0f
    7cb8:	8b 01       	movw	r16, r22
    7cba:	00 0f       	add	r16, r16
    7cbc:	11 1f       	adc	r17, r17
    7cbe:	66 0f       	add	r22, r22
    7cc0:	77 1f       	adc	r23, r23
    7cc2:	66 0f       	add	r22, r22
    7cc4:	77 1f       	adc	r23, r23
    7cc6:	66 0f       	add	r22, r22
    7cc8:	77 1f       	adc	r23, r23
    7cca:	06 0f       	add	r16, r22
    7ccc:	17 1f       	adc	r17, r23
    7cce:	20 0f       	add	r18, r16
    7cd0:	31 1f       	adc	r19, r17
    7cd2:	60 89       	ldd	r22, Z+16	; 0x10
    7cd4:	71 89       	ldd	r23, Z+17	; 0x11
    7cd6:	26 0f       	add	r18, r22
    7cd8:	37 1f       	adc	r19, r23
    7cda:	15 96       	adiw	r26, 0x05	; 5
    7cdc:	3c 93       	st	X, r19
    7cde:	2e 93       	st	-X, r18
    7ce0:	14 97       	sbiw	r26, 0x04	; 4
		pro[i][3] = str[i * 15 + 9]* 100 + str[i * 15 + 10]  *10 + str[i * 15 + 11];
    7ce2:	62 89       	ldd	r22, Z+18	; 0x12
    7ce4:	73 89       	ldd	r23, Z+19	; 0x13
    7ce6:	64 9f       	mul	r22, r20
    7ce8:	90 01       	movw	r18, r0
    7cea:	65 9f       	mul	r22, r21
    7cec:	30 0d       	add	r19, r0
    7cee:	74 9f       	mul	r23, r20
    7cf0:	30 0d       	add	r19, r0
    7cf2:	11 24       	eor	r1, r1
    7cf4:	64 89       	ldd	r22, Z+20	; 0x14
    7cf6:	75 89       	ldd	r23, Z+21	; 0x15
    7cf8:	8b 01       	movw	r16, r22
    7cfa:	00 0f       	add	r16, r16
    7cfc:	11 1f       	adc	r17, r17
    7cfe:	66 0f       	add	r22, r22
    7d00:	77 1f       	adc	r23, r23
    7d02:	66 0f       	add	r22, r22
    7d04:	77 1f       	adc	r23, r23
    7d06:	66 0f       	add	r22, r22
    7d08:	77 1f       	adc	r23, r23
    7d0a:	06 0f       	add	r16, r22
    7d0c:	17 1f       	adc	r17, r23
    7d0e:	20 0f       	add	r18, r16
    7d10:	31 1f       	adc	r19, r17
    7d12:	66 89       	ldd	r22, Z+22	; 0x16
    7d14:	77 89       	ldd	r23, Z+23	; 0x17
    7d16:	26 0f       	add	r18, r22
    7d18:	37 1f       	adc	r19, r23
    7d1a:	17 96       	adiw	r26, 0x07	; 7
    7d1c:	3c 93       	st	X, r19
    7d1e:	2e 93       	st	-X, r18
    7d20:	16 97       	sbiw	r26, 0x06	; 6
		pro[i][4] = str[i * 15 + 12]* 100 + str[i * 15 + 13]  *10 + str[i * 15 + 14];
    7d22:	60 8d       	ldd	r22, Z+24	; 0x18
    7d24:	71 8d       	ldd	r23, Z+25	; 0x19
    7d26:	64 9f       	mul	r22, r20
    7d28:	90 01       	movw	r18, r0
    7d2a:	65 9f       	mul	r22, r21
    7d2c:	30 0d       	add	r19, r0
    7d2e:	74 9f       	mul	r23, r20
    7d30:	30 0d       	add	r19, r0
    7d32:	11 24       	eor	r1, r1
    7d34:	62 8d       	ldd	r22, Z+26	; 0x1a
    7d36:	73 8d       	ldd	r23, Z+27	; 0x1b
    7d38:	8b 01       	movw	r16, r22
    7d3a:	00 0f       	add	r16, r16
    7d3c:	11 1f       	adc	r17, r17
    7d3e:	66 0f       	add	r22, r22
    7d40:	77 1f       	adc	r23, r23
    7d42:	66 0f       	add	r22, r22
    7d44:	77 1f       	adc	r23, r23
    7d46:	66 0f       	add	r22, r22
    7d48:	77 1f       	adc	r23, r23
    7d4a:	06 0f       	add	r16, r22
    7d4c:	17 1f       	adc	r17, r23
    7d4e:	20 0f       	add	r18, r16
    7d50:	31 1f       	adc	r19, r17
    7d52:	64 8d       	ldd	r22, Z+28	; 0x1c
    7d54:	75 8d       	ldd	r23, Z+29	; 0x1d
    7d56:	26 0f       	add	r18, r22
    7d58:	37 1f       	adc	r19, r23
    7d5a:	19 96       	adiw	r26, 0x09	; 9
    7d5c:	3c 93       	st	X, r19
    7d5e:	2e 93       	st	-X, r18
    7d60:	18 97       	sbiw	r26, 0x08	; 8
			}
			break;
		}
	}

	for(int i = 0 ; i < am ; i++){
    7d62:	01 96       	adiw	r24, 0x01	; 1
    7d64:	7e 96       	adiw	r30, 0x1e	; 30
    7d66:	8a 15       	cp	r24, r10
    7d68:	9b 05       	cpc	r25, r11
    7d6a:	0c f4       	brge	.+2      	; 0x7d6e <V1+0x22e>
    7d6c:	68 cf       	rjmp	.-304    	; 0x7c3e <V1+0xfe>
		pro[i][1] = str[i * 15 + 3]* 100 + str[i * 15 + 4]  *10 + str[i * 15 + 5];
		pro[i][2] = str[i * 15 + 6]* 100 + str[i * 15 + 7]  *10 + str[i * 15 + 8];
		pro[i][3] = str[i * 15 + 9]* 100 + str[i * 15 + 10]  *10 + str[i * 15 + 11];
		pro[i][4] = str[i * 15 + 12]* 100 + str[i * 15 + 13]  *10 + str[i * 15 + 14];
	}
	LE return 1;
    7d6e:	10 92 4b 02 	sts	0x024B, r1
    7d72:	10 92 4a 02 	sts	0x024A, r1
    7d76:	80 e0       	ldi	r24, 0x00	; 0
    7d78:	90 e0       	ldi	r25, 0x00	; 0
    7d7a:	dc 01       	movw	r26, r24
    7d7c:	80 93 93 02 	sts	0x0293, r24
    7d80:	90 93 94 02 	sts	0x0294, r25
    7d84:	a0 93 95 02 	sts	0x0295, r26
    7d88:	b0 93 96 02 	sts	0x0296, r27
    7d8c:	80 91 93 02 	lds	r24, 0x0293
    7d90:	90 91 94 02 	lds	r25, 0x0294
    7d94:	a0 91 95 02 	lds	r26, 0x0295
    7d98:	b0 91 96 02 	lds	r27, 0x0296
    7d9c:	80 93 1d 03 	sts	0x031D, r24
    7da0:	90 93 1e 03 	sts	0x031E, r25
    7da4:	a0 93 1f 03 	sts	0x031F, r26
    7da8:	b0 93 20 03 	sts	0x0320, r27
    7dac:	80 91 1d 03 	lds	r24, 0x031D
    7db0:	90 91 1e 03 	lds	r25, 0x031E
    7db4:	a0 91 1f 03 	lds	r26, 0x031F
    7db8:	b0 91 20 03 	lds	r27, 0x0320
    7dbc:	80 93 87 02 	sts	0x0287, r24
    7dc0:	90 93 88 02 	sts	0x0288, r25
    7dc4:	a0 93 89 02 	sts	0x0289, r26
    7dc8:	b0 93 8a 02 	sts	0x028A, r27
    7dcc:	60 91 87 02 	lds	r22, 0x0287
    7dd0:	70 91 88 02 	lds	r23, 0x0288
    7dd4:	80 91 89 02 	lds	r24, 0x0289
    7dd8:	90 91 8a 02 	lds	r25, 0x028A
    7ddc:	0e 94 37 41 	call	0x826e	; 0x826e <__fixsfsi>
    7de0:	70 93 39 02 	sts	0x0239, r23
    7de4:	60 93 38 02 	sts	0x0238, r22
    7de8:	21 e0       	ldi	r18, 0x01	; 1
    7dea:	30 e0       	ldi	r19, 0x00	; 0
    7dec:	02 c0       	rjmp	.+4      	; 0x7df2 <V1+0x2b2>

	while(1){
		rx1_flg = 0;
		gtc = 50;

		while(!rx1_flg) if(!gtc) {return 0;}
    7dee:	20 e0       	ldi	r18, 0x00	; 0
    7df0:	30 e0       	ldi	r19, 0x00	; 0
		pro[i][2] = str[i * 15 + 6]* 100 + str[i * 15 + 7]  *10 + str[i * 15 + 8];
		pro[i][3] = str[i * 15 + 9]* 100 + str[i * 15 + 10]  *10 + str[i * 15 + 11];
		pro[i][4] = str[i * 15 + 12]* 100 + str[i * 15 + 13]  *10 + str[i * 15 + 14];
	}
	LE return 1;
}
    7df2:	c9 01       	movw	r24, r18
    7df4:	c0 57       	subi	r28, 0x70	; 112
    7df6:	de 4f       	sbci	r29, 0xFE	; 254
    7df8:	0f b6       	in	r0, 0x3f	; 63
    7dfa:	f8 94       	cli
    7dfc:	de bf       	out	0x3e, r29	; 62
    7dfe:	0f be       	out	0x3f, r0	; 63
    7e00:	cd bf       	out	0x3d, r28	; 61
    7e02:	cf 91       	pop	r28
    7e04:	df 91       	pop	r29
    7e06:	1f 91       	pop	r17
    7e08:	0f 91       	pop	r16
    7e0a:	ff 90       	pop	r15
    7e0c:	ef 90       	pop	r14
    7e0e:	df 90       	pop	r13
    7e10:	cf 90       	pop	r12
    7e12:	bf 90       	pop	r11
    7e14:	af 90       	pop	r10
    7e16:	08 95       	ret

00007e18 <Camera_init>:
    7e18:	8b e0       	ldi	r24, 0x0B	; 11
    7e1a:	0e 94 3e 01 	call	0x27c	; 0x27c <putchar1>
    7e1e:	80 91 04 02 	lds	r24, 0x0204
    7e22:	88 23       	and	r24, r24
    7e24:	e1 f3       	breq	.-8      	; 0x7e1e <Camera_init+0x6>
    7e26:	0e 94 2b 01 	call	0x256	; 0x256 <getchar1>
    7e2a:	88 23       	and	r24, r24
    7e2c:	a9 f3       	breq	.-22     	; 0x7e18 <Camera_init>
    7e2e:	81 e1       	ldi	r24, 0x11	; 17
    7e30:	0e 94 3e 01 	call	0x27c	; 0x27c <putchar1>
    7e34:	8f ef       	ldi	r24, 0xFF	; 255
    7e36:	0e 94 3e 01 	call	0x27c	; 0x27c <putchar1>
    7e3a:	80 91 04 02 	lds	r24, 0x0204
    7e3e:	88 23       	and	r24, r24
    7e40:	e1 f3       	breq	.-8      	; 0x7e3a <Camera_init+0x22>
    7e42:	0e 94 2b 01 	call	0x256	; 0x256 <getchar1>
    7e46:	88 23       	and	r24, r24
    7e48:	91 f3       	breq	.-28     	; 0x7e2e <Camera_init+0x16>
    7e4a:	08 95       	ret

00007e4c <Cmd>:
    7e4c:	df 93       	push	r29
    7e4e:	cf 93       	push	r28
    7e50:	00 d0       	rcall	.+0      	; 0x7e52 <Cmd+0x6>
    7e52:	cd b7       	in	r28, 0x3d	; 61
    7e54:	de b7       	in	r29, 0x3e	; 62
    7e56:	19 82       	std	Y+1, r1	; 0x01
    7e58:	1a 82       	std	Y+2, r1	; 0x02
    7e5a:	88 0f       	add	r24, r24
    7e5c:	98 2f       	mov	r25, r24
    7e5e:	99 0f       	add	r25, r25
    7e60:	99 0f       	add	r25, r25
    7e62:	98 0f       	add	r25, r24
    7e64:	69 0f       	add	r22, r25
    7e66:	6a 83       	std	Y+2, r22	; 0x02
    7e68:	8a 81       	ldd	r24, Y+2	; 0x02
    7e6a:	0e 94 3e 01 	call	0x27c	; 0x27c <putchar1>
    7e6e:	80 91 04 02 	lds	r24, 0x0204
    7e72:	88 23       	and	r24, r24
    7e74:	e1 f3       	breq	.-8      	; 0x7e6e <Cmd+0x22>
    7e76:	0e 94 2b 01 	call	0x256	; 0x256 <getchar1>
    7e7a:	89 83       	std	Y+1, r24	; 0x01
    7e7c:	89 81       	ldd	r24, Y+1	; 0x01
    7e7e:	0f 90       	pop	r0
    7e80:	0f 90       	pop	r0
    7e82:	cf 91       	pop	r28
    7e84:	df 91       	pop	r29
    7e86:	08 95       	ret

00007e88 <Setting>:
    7e88:	0f 93       	push	r16
    7e8a:	1f 93       	push	r17
    7e8c:	cf 93       	push	r28
    7e8e:	df 93       	push	r29
    7e90:	18 2f       	mov	r17, r24
    7e92:	08 2f       	mov	r16, r24
    7e94:	06 5f       	subi	r16, 0xF6	; 246
    7e96:	c8 2f       	mov	r28, r24
    7e98:	d0 e0       	ldi	r29, 0x00	; 0
    7e9a:	2a 97       	sbiw	r28, 0x0a	; 10
    7e9c:	04 c0       	rjmp	.+8      	; 0x7ea6 <Setting+0x1e>
    7e9e:	80 e0       	ldi	r24, 0x00	; 0
    7ea0:	61 2f       	mov	r22, r17
    7ea2:	0e 94 26 3f 	call	0x7e4c	; 0x7e4c <Cmd>
    7ea6:	80 e0       	ldi	r24, 0x00	; 0
    7ea8:	60 2f       	mov	r22, r16
    7eaa:	0e 94 26 3f 	call	0x7e4c	; 0x7e4c <Cmd>
    7eae:	28 2f       	mov	r18, r24
    7eb0:	30 e0       	ldi	r19, 0x00	; 0
    7eb2:	2c 17       	cp	r18, r28
    7eb4:	3d 07       	cpc	r19, r29
    7eb6:	99 f7       	brne	.-26     	; 0x7e9e <Setting+0x16>
    7eb8:	df 91       	pop	r29
    7eba:	cf 91       	pop	r28
    7ebc:	1f 91       	pop	r17
    7ebe:	0f 91       	pop	r16
    7ec0:	08 95       	ret

00007ec2 <Sensor_init>:
    7ec2:	82 b1       	in	r24, 0x02	; 2
    7ec4:	83 7e       	andi	r24, 0xE3	; 227
    7ec6:	82 b9       	out	0x02, r24	; 2
    7ec8:	e4 e6       	ldi	r30, 0x64	; 100
    7eca:	f0 e0       	ldi	r31, 0x00	; 0
    7ecc:	80 81       	ld	r24, Z
    7ece:	87 7e       	andi	r24, 0xE7	; 231
    7ed0:	80 83       	st	Z, r24
    7ed2:	1b b8       	out	0x0b, r1	; 11
    7ed4:	88 e9       	ldi	r24, 0x98	; 152
    7ed6:	8a b9       	out	0x0a, r24	; 10
    7ed8:	86 e0       	ldi	r24, 0x06	; 6
    7eda:	80 93 95 00 	sts	0x0095, r24
    7ede:	10 92 90 00 	sts	0x0090, r1
    7ee2:	8f e0       	ldi	r24, 0x0F	; 15
    7ee4:	89 b9       	out	0x09, r24	; 9
    7ee6:	78 94       	sei
    7ee8:	08 95       	ret

00007eea <__vector_18>:
    7eea:	1f 92       	push	r1
    7eec:	0f 92       	push	r0
    7eee:	0f b6       	in	r0, 0x3f	; 63
    7ef0:	0f 92       	push	r0
    7ef2:	0b b6       	in	r0, 0x3b	; 59
    7ef4:	0f 92       	push	r0
    7ef6:	11 24       	eor	r1, r1
    7ef8:	0f 93       	push	r16
    7efa:	1f 93       	push	r17
    7efc:	2f 93       	push	r18
    7efe:	3f 93       	push	r19
    7f00:	4f 93       	push	r20
    7f02:	5f 93       	push	r21
    7f04:	6f 93       	push	r22
    7f06:	7f 93       	push	r23
    7f08:	8f 93       	push	r24
    7f0a:	9f 93       	push	r25
    7f0c:	af 93       	push	r26
    7f0e:	bf 93       	push	r27
    7f10:	cf 93       	push	r28
    7f12:	df 93       	push	r29
    7f14:	ef 93       	push	r30
    7f16:	ff 93       	push	r31
    7f18:	9c b1       	in	r25, 0x0c	; 12
    7f1a:	8b b1       	in	r24, 0x0b	; 11
    7f1c:	88 7b       	andi	r24, 0xB8	; 184
    7f1e:	e9 f3       	breq	.-6      	; 0x7f1a <__vector_18+0x30>
    7f20:	9f 3f       	cpi	r25, 0xFF	; 255
    7f22:	21 f4       	brne	.+8      	; 0x7f2c <__vector_18+0x42>
    7f24:	81 e0       	ldi	r24, 0x01	; 1
    7f26:	80 93 1f 02 	sts	0x021F, r24
    7f2a:	70 c0       	rjmp	.+224    	; 0x800c <__vector_18+0x122>
    7f2c:	80 91 1f 02 	lds	r24, 0x021F
    7f30:	81 30       	cpi	r24, 0x01	; 1
    7f32:	09 f0       	breq	.+2      	; 0x7f36 <__vector_18+0x4c>
    7f34:	6b c0       	rjmp	.+214    	; 0x800c <__vector_18+0x122>
    7f36:	80 91 1e 02 	lds	r24, 0x021E
    7f3a:	e8 2f       	mov	r30, r24
    7f3c:	f0 e0       	ldi	r31, 0x00	; 0
    7f3e:	ee 5e       	subi	r30, 0xEE	; 238
    7f40:	fd 4f       	sbci	r31, 0xFD	; 253
    7f42:	90 83       	st	Z, r25
    7f44:	8f 5f       	subi	r24, 0xFF	; 255
    7f46:	80 93 1e 02 	sts	0x021E, r24
    7f4a:	80 91 1e 02 	lds	r24, 0x021E
    7f4e:	8b 30       	cpi	r24, 0x0B	; 11
    7f50:	08 f4       	brcc	.+2      	; 0x7f54 <__vector_18+0x6a>
    7f52:	5c c0       	rjmp	.+184    	; 0x800c <__vector_18+0x122>
    7f54:	10 92 1e 02 	sts	0x021E, r1
    7f58:	80 91 1e 02 	lds	r24, 0x021E
    7f5c:	80 93 1f 02 	sts	0x021F, r24
    7f60:	80 e0       	ldi	r24, 0x00	; 0
    7f62:	90 e0       	ldi	r25, 0x00	; 0
    7f64:	30 91 1d 02 	lds	r19, 0x021D
    7f68:	fc 01       	movw	r30, r24
    7f6a:	ee 5e       	subi	r30, 0xEE	; 238
    7f6c:	fd 4f       	sbci	r31, 0xFD	; 253
    7f6e:	20 81       	ld	r18, Z
    7f70:	23 0f       	add	r18, r19
    7f72:	20 93 1d 02 	sts	0x021D, r18
    7f76:	01 96       	adiw	r24, 0x01	; 1
    7f78:	8a 30       	cpi	r24, 0x0A	; 10
    7f7a:	91 05       	cpc	r25, r1
    7f7c:	99 f7       	brne	.-26     	; 0x7f64 <__vector_18+0x7a>
    7f7e:	80 91 1d 02 	lds	r24, 0x021D
    7f82:	8f 3f       	cpi	r24, 0xFF	; 255
    7f84:	29 f4       	brne	.+10     	; 0x7f90 <__vector_18+0xa6>
    7f86:	80 91 1d 02 	lds	r24, 0x021D
    7f8a:	8f 5f       	subi	r24, 0xFF	; 255
    7f8c:	80 93 1d 02 	sts	0x021D, r24
    7f90:	90 91 1d 02 	lds	r25, 0x021D
    7f94:	80 91 1c 02 	lds	r24, 0x021C
    7f98:	98 17       	cp	r25, r24
    7f9a:	b1 f5       	brne	.+108    	; 0x8008 <__vector_18+0x11e>
    7f9c:	c0 e0       	ldi	r28, 0x00	; 0
    7f9e:	d0 e0       	ldi	r29, 0x00	; 0
    7fa0:	00 e5       	ldi	r16, 0x50	; 80
    7fa2:	1c 2f       	mov	r17, r28
    7fa4:	fe 01       	movw	r30, r28
    7fa6:	ee 5e       	subi	r30, 0xEE	; 238
    7fa8:	fd 4f       	sbci	r31, 0xFD	; 253
    7faa:	80 81       	ld	r24, Z
    7fac:	8a 30       	cpi	r24, 0x0A	; 10
    7fae:	41 f1       	breq	.+80     	; 0x8000 <__vector_18+0x116>
    7fb0:	80 81       	ld	r24, Z
    7fb2:	fe 01       	movw	r30, r28
    7fb4:	e0 5c       	subi	r30, 0xC0	; 192
    7fb6:	fd 4f       	sbci	r31, 0xFD	; 253
    7fb8:	80 83       	st	Z, r24
    7fba:	60 81       	ld	r22, Z
    7fbc:	70 e0       	ldi	r23, 0x00	; 0
    7fbe:	88 27       	eor	r24, r24
    7fc0:	77 fd       	sbrc	r23, 7
    7fc2:	80 95       	com	r24
    7fc4:	98 2f       	mov	r25, r24
    7fc6:	0e 94 6a 41 	call	0x82d4	; 0x82d4 <__floatsisf>
    7fca:	9b 01       	movw	r18, r22
    7fcc:	ac 01       	movw	r20, r24
    7fce:	60 e0       	ldi	r22, 0x00	; 0
    7fd0:	70 e2       	ldi	r23, 0x20	; 32
    7fd2:	8c ef       	ldi	r24, 0xFC	; 252
    7fd4:	94 e4       	ldi	r25, 0x44	; 68
    7fd6:	0e 94 cf 40 	call	0x819e	; 0x819e <__divsf3>
    7fda:	0e 94 3c 41 	call	0x8278	; 0x8278 <__fixunssfsi>
    7fde:	fe 01       	movw	r30, r28
    7fe0:	e4 5d       	subi	r30, 0xD4	; 212
    7fe2:	fd 4f       	sbci	r31, 0xFD	; 253
    7fe4:	60 83       	st	Z, r22
    7fe6:	17 70       	andi	r17, 0x07	; 7
    7fe8:	12 30       	cpi	r17, 0x02	; 2
    7fea:	18 f0       	brcs	.+6      	; 0x7ff2 <__vector_18+0x108>
    7fec:	80 81       	ld	r24, Z
    7fee:	86 95       	lsr	r24
    7ff0:	80 83       	st	Z, r24
    7ff2:	fe 01       	movw	r30, r28
    7ff4:	e4 5d       	subi	r30, 0xD4	; 212
    7ff6:	fd 4f       	sbci	r31, 0xFD	; 253
    7ff8:	80 81       	ld	r24, Z
    7ffa:	81 35       	cpi	r24, 0x51	; 81
    7ffc:	08 f0       	brcs	.+2      	; 0x8000 <__vector_18+0x116>
    7ffe:	00 83       	st	Z, r16
    8000:	21 96       	adiw	r28, 0x01	; 1
    8002:	ca 30       	cpi	r28, 0x0A	; 10
    8004:	d1 05       	cpc	r29, r1
    8006:	69 f6       	brne	.-102    	; 0x7fa2 <__vector_18+0xb8>
    8008:	10 92 1d 02 	sts	0x021D, r1
    800c:	ff 91       	pop	r31
    800e:	ef 91       	pop	r30
    8010:	df 91       	pop	r29
    8012:	cf 91       	pop	r28
    8014:	bf 91       	pop	r27
    8016:	af 91       	pop	r26
    8018:	9f 91       	pop	r25
    801a:	8f 91       	pop	r24
    801c:	7f 91       	pop	r23
    801e:	6f 91       	pop	r22
    8020:	5f 91       	pop	r21
    8022:	4f 91       	pop	r20
    8024:	3f 91       	pop	r19
    8026:	2f 91       	pop	r18
    8028:	1f 91       	pop	r17
    802a:	0f 91       	pop	r16
    802c:	0f 90       	pop	r0
    802e:	0b be       	out	0x3b, r0	; 59
    8030:	0f 90       	pop	r0
    8032:	0f be       	out	0x3f, r0	; 63
    8034:	0f 90       	pop	r0
    8036:	1f 90       	pop	r1
    8038:	18 95       	reti

0000803a <exit>:
    803a:	f8 94       	cli
    803c:	0c 94 f3 46 	jmp	0x8de6	; 0x8de6 <_exit>

00008040 <sprintf>:
    8040:	0f 93       	push	r16
    8042:	1f 93       	push	r17
    8044:	df 93       	push	r29
    8046:	cf 93       	push	r28
    8048:	cd b7       	in	r28, 0x3d	; 61
    804a:	de b7       	in	r29, 0x3e	; 62
    804c:	2e 97       	sbiw	r28, 0x0e	; 14
    804e:	0f b6       	in	r0, 0x3f	; 63
    8050:	f8 94       	cli
    8052:	de bf       	out	0x3e, r29	; 62
    8054:	0f be       	out	0x3f, r0	; 63
    8056:	cd bf       	out	0x3d, r28	; 61
    8058:	0d 89       	ldd	r16, Y+21	; 0x15
    805a:	1e 89       	ldd	r17, Y+22	; 0x16
    805c:	86 e0       	ldi	r24, 0x06	; 6
    805e:	8c 83       	std	Y+4, r24	; 0x04
    8060:	1a 83       	std	Y+2, r17	; 0x02
    8062:	09 83       	std	Y+1, r16	; 0x01
    8064:	8f ef       	ldi	r24, 0xFF	; 255
    8066:	9f e7       	ldi	r25, 0x7F	; 127
    8068:	9e 83       	std	Y+6, r25	; 0x06
    806a:	8d 83       	std	Y+5, r24	; 0x05
    806c:	9e 01       	movw	r18, r28
    806e:	27 5e       	subi	r18, 0xE7	; 231
    8070:	3f 4f       	sbci	r19, 0xFF	; 255
    8072:	ce 01       	movw	r24, r28
    8074:	01 96       	adiw	r24, 0x01	; 1
    8076:	6f 89       	ldd	r22, Y+23	; 0x17
    8078:	78 8d       	ldd	r23, Y+24	; 0x18
    807a:	a9 01       	movw	r20, r18
    807c:	0e 94 d3 43 	call	0x87a6	; 0x87a6 <vfprintf>
    8080:	ef 81       	ldd	r30, Y+7	; 0x07
    8082:	f8 85       	ldd	r31, Y+8	; 0x08
    8084:	e0 0f       	add	r30, r16
    8086:	f1 1f       	adc	r31, r17
    8088:	10 82       	st	Z, r1
    808a:	2e 96       	adiw	r28, 0x0e	; 14
    808c:	0f b6       	in	r0, 0x3f	; 63
    808e:	f8 94       	cli
    8090:	de bf       	out	0x3e, r29	; 62
    8092:	0f be       	out	0x3f, r0	; 63
    8094:	cd bf       	out	0x3d, r28	; 61
    8096:	cf 91       	pop	r28
    8098:	df 91       	pop	r29
    809a:	1f 91       	pop	r17
    809c:	0f 91       	pop	r16
    809e:	08 95       	ret

000080a0 <__subsf3>:
    80a0:	50 58       	subi	r21, 0x80	; 128

000080a2 <__addsf3>:
    80a2:	bb 27       	eor	r27, r27
    80a4:	aa 27       	eor	r26, r26
    80a6:	0e d0       	rcall	.+28     	; 0x80c4 <__addsf3x>
    80a8:	dc c1       	rjmp	.+952    	; 0x8462 <__fp_round>
    80aa:	a5 d1       	rcall	.+842    	; 0x83f6 <__fp_pscA>
    80ac:	30 f0       	brcs	.+12     	; 0x80ba <__addsf3+0x18>
    80ae:	aa d1       	rcall	.+852    	; 0x8404 <__fp_pscB>
    80b0:	20 f0       	brcs	.+8      	; 0x80ba <__addsf3+0x18>
    80b2:	31 f4       	brne	.+12     	; 0x80c0 <__addsf3+0x1e>
    80b4:	9f 3f       	cpi	r25, 0xFF	; 255
    80b6:	11 f4       	brne	.+4      	; 0x80bc <__addsf3+0x1a>
    80b8:	1e f4       	brtc	.+6      	; 0x80c0 <__addsf3+0x1e>
    80ba:	9a c1       	rjmp	.+820    	; 0x83f0 <__fp_nan>
    80bc:	0e f4       	brtc	.+2      	; 0x80c0 <__addsf3+0x1e>
    80be:	e0 95       	com	r30
    80c0:	e7 fb       	bst	r30, 7
    80c2:	67 c1       	rjmp	.+718    	; 0x8392 <__fp_inf>

000080c4 <__addsf3x>:
    80c4:	e9 2f       	mov	r30, r25
    80c6:	ef d1       	rcall	.+990    	; 0x84a6 <__fp_split3>
    80c8:	80 f3       	brcs	.-32     	; 0x80aa <__addsf3+0x8>
    80ca:	ba 17       	cp	r27, r26
    80cc:	62 07       	cpc	r22, r18
    80ce:	73 07       	cpc	r23, r19
    80d0:	84 07       	cpc	r24, r20
    80d2:	95 07       	cpc	r25, r21
    80d4:	18 f0       	brcs	.+6      	; 0x80dc <__addsf3x+0x18>
    80d6:	71 f4       	brne	.+28     	; 0x80f4 <__addsf3x+0x30>
    80d8:	9e f5       	brtc	.+102    	; 0x8140 <__addsf3x+0x7c>
    80da:	1e c2       	rjmp	.+1084   	; 0x8518 <__fp_zero>
    80dc:	0e f4       	brtc	.+2      	; 0x80e0 <__addsf3x+0x1c>
    80de:	e0 95       	com	r30
    80e0:	0b 2e       	mov	r0, r27
    80e2:	ba 2f       	mov	r27, r26
    80e4:	a0 2d       	mov	r26, r0
    80e6:	0b 01       	movw	r0, r22
    80e8:	b9 01       	movw	r22, r18
    80ea:	90 01       	movw	r18, r0
    80ec:	0c 01       	movw	r0, r24
    80ee:	ca 01       	movw	r24, r20
    80f0:	a0 01       	movw	r20, r0
    80f2:	11 24       	eor	r1, r1
    80f4:	ff 27       	eor	r31, r31
    80f6:	59 1b       	sub	r21, r25
    80f8:	99 f0       	breq	.+38     	; 0x8120 <__addsf3x+0x5c>
    80fa:	59 3f       	cpi	r21, 0xF9	; 249
    80fc:	50 f4       	brcc	.+20     	; 0x8112 <__addsf3x+0x4e>
    80fe:	50 3e       	cpi	r21, 0xE0	; 224
    8100:	68 f1       	brcs	.+90     	; 0x815c <__addsf3x+0x98>
    8102:	1a 16       	cp	r1, r26
    8104:	f0 40       	sbci	r31, 0x00	; 0
    8106:	a2 2f       	mov	r26, r18
    8108:	23 2f       	mov	r18, r19
    810a:	34 2f       	mov	r19, r20
    810c:	44 27       	eor	r20, r20
    810e:	58 5f       	subi	r21, 0xF8	; 248
    8110:	f3 cf       	rjmp	.-26     	; 0x80f8 <__addsf3x+0x34>
    8112:	46 95       	lsr	r20
    8114:	37 95       	ror	r19
    8116:	27 95       	ror	r18
    8118:	a7 95       	ror	r26
    811a:	f0 40       	sbci	r31, 0x00	; 0
    811c:	53 95       	inc	r21
    811e:	c9 f7       	brne	.-14     	; 0x8112 <__addsf3x+0x4e>
    8120:	7e f4       	brtc	.+30     	; 0x8140 <__addsf3x+0x7c>
    8122:	1f 16       	cp	r1, r31
    8124:	ba 0b       	sbc	r27, r26
    8126:	62 0b       	sbc	r22, r18
    8128:	73 0b       	sbc	r23, r19
    812a:	84 0b       	sbc	r24, r20
    812c:	ba f0       	brmi	.+46     	; 0x815c <__addsf3x+0x98>
    812e:	91 50       	subi	r25, 0x01	; 1
    8130:	a1 f0       	breq	.+40     	; 0x815a <__addsf3x+0x96>
    8132:	ff 0f       	add	r31, r31
    8134:	bb 1f       	adc	r27, r27
    8136:	66 1f       	adc	r22, r22
    8138:	77 1f       	adc	r23, r23
    813a:	88 1f       	adc	r24, r24
    813c:	c2 f7       	brpl	.-16     	; 0x812e <__addsf3x+0x6a>
    813e:	0e c0       	rjmp	.+28     	; 0x815c <__addsf3x+0x98>
    8140:	ba 0f       	add	r27, r26
    8142:	62 1f       	adc	r22, r18
    8144:	73 1f       	adc	r23, r19
    8146:	84 1f       	adc	r24, r20
    8148:	48 f4       	brcc	.+18     	; 0x815c <__addsf3x+0x98>
    814a:	87 95       	ror	r24
    814c:	77 95       	ror	r23
    814e:	67 95       	ror	r22
    8150:	b7 95       	ror	r27
    8152:	f7 95       	ror	r31
    8154:	9e 3f       	cpi	r25, 0xFE	; 254
    8156:	08 f0       	brcs	.+2      	; 0x815a <__addsf3x+0x96>
    8158:	b3 cf       	rjmp	.-154    	; 0x80c0 <__addsf3+0x1e>
    815a:	93 95       	inc	r25
    815c:	88 0f       	add	r24, r24
    815e:	08 f0       	brcs	.+2      	; 0x8162 <__addsf3x+0x9e>
    8160:	99 27       	eor	r25, r25
    8162:	ee 0f       	add	r30, r30
    8164:	97 95       	ror	r25
    8166:	87 95       	ror	r24
    8168:	08 95       	ret

0000816a <ceil>:
    816a:	bf d1       	rcall	.+894    	; 0x84ea <__fp_trunc>
    816c:	80 f0       	brcs	.+32     	; 0x818e <ceil+0x24>
    816e:	9f 37       	cpi	r25, 0x7F	; 127
    8170:	40 f4       	brcc	.+16     	; 0x8182 <ceil+0x18>
    8172:	91 11       	cpse	r25, r1
    8174:	0e f4       	brtc	.+2      	; 0x8178 <ceil+0xe>
    8176:	d1 c1       	rjmp	.+930    	; 0x851a <__fp_szero>
    8178:	60 e0       	ldi	r22, 0x00	; 0
    817a:	70 e0       	ldi	r23, 0x00	; 0
    817c:	80 e8       	ldi	r24, 0x80	; 128
    817e:	9f e3       	ldi	r25, 0x3F	; 63
    8180:	08 95       	ret
    8182:	26 f0       	brts	.+8      	; 0x818c <ceil+0x22>
    8184:	1b 16       	cp	r1, r27
    8186:	61 1d       	adc	r22, r1
    8188:	71 1d       	adc	r23, r1
    818a:	81 1d       	adc	r24, r1
    818c:	08 c1       	rjmp	.+528    	; 0x839e <__fp_mintl>
    818e:	22 c1       	rjmp	.+580    	; 0x83d4 <__fp_mpack>

00008190 <__cmpsf2>:
    8190:	dc d0       	rcall	.+440    	; 0x834a <__fp_cmp>
    8192:	08 f4       	brcc	.+2      	; 0x8196 <__cmpsf2+0x6>
    8194:	81 e0       	ldi	r24, 0x01	; 1
    8196:	08 95       	ret

00008198 <cos>:
    8198:	3d d1       	rcall	.+634    	; 0x8414 <__fp_rempio2>
    819a:	e3 95       	inc	r30
    819c:	73 c1       	rjmp	.+742    	; 0x8484 <__fp_sinus>

0000819e <__divsf3>:
    819e:	0c d0       	rcall	.+24     	; 0x81b8 <__divsf3x>
    81a0:	60 c1       	rjmp	.+704    	; 0x8462 <__fp_round>
    81a2:	30 d1       	rcall	.+608    	; 0x8404 <__fp_pscB>
    81a4:	40 f0       	brcs	.+16     	; 0x81b6 <__divsf3+0x18>
    81a6:	27 d1       	rcall	.+590    	; 0x83f6 <__fp_pscA>
    81a8:	30 f0       	brcs	.+12     	; 0x81b6 <__divsf3+0x18>
    81aa:	21 f4       	brne	.+8      	; 0x81b4 <__divsf3+0x16>
    81ac:	5f 3f       	cpi	r21, 0xFF	; 255
    81ae:	19 f0       	breq	.+6      	; 0x81b6 <__divsf3+0x18>
    81b0:	f0 c0       	rjmp	.+480    	; 0x8392 <__fp_inf>
    81b2:	51 11       	cpse	r21, r1
    81b4:	b2 c1       	rjmp	.+868    	; 0x851a <__fp_szero>
    81b6:	1c c1       	rjmp	.+568    	; 0x83f0 <__fp_nan>

000081b8 <__divsf3x>:
    81b8:	76 d1       	rcall	.+748    	; 0x84a6 <__fp_split3>
    81ba:	98 f3       	brcs	.-26     	; 0x81a2 <__divsf3+0x4>

000081bc <__divsf3_pse>:
    81bc:	99 23       	and	r25, r25
    81be:	c9 f3       	breq	.-14     	; 0x81b2 <__divsf3+0x14>
    81c0:	55 23       	and	r21, r21
    81c2:	b1 f3       	breq	.-20     	; 0x81b0 <__divsf3+0x12>
    81c4:	95 1b       	sub	r25, r21
    81c6:	55 0b       	sbc	r21, r21
    81c8:	bb 27       	eor	r27, r27
    81ca:	aa 27       	eor	r26, r26
    81cc:	62 17       	cp	r22, r18
    81ce:	73 07       	cpc	r23, r19
    81d0:	84 07       	cpc	r24, r20
    81d2:	38 f0       	brcs	.+14     	; 0x81e2 <__divsf3_pse+0x26>
    81d4:	9f 5f       	subi	r25, 0xFF	; 255
    81d6:	5f 4f       	sbci	r21, 0xFF	; 255
    81d8:	22 0f       	add	r18, r18
    81da:	33 1f       	adc	r19, r19
    81dc:	44 1f       	adc	r20, r20
    81de:	aa 1f       	adc	r26, r26
    81e0:	a9 f3       	breq	.-22     	; 0x81cc <__divsf3_pse+0x10>
    81e2:	33 d0       	rcall	.+102    	; 0x824a <__divsf3_pse+0x8e>
    81e4:	0e 2e       	mov	r0, r30
    81e6:	3a f0       	brmi	.+14     	; 0x81f6 <__divsf3_pse+0x3a>
    81e8:	e0 e8       	ldi	r30, 0x80	; 128
    81ea:	30 d0       	rcall	.+96     	; 0x824c <__divsf3_pse+0x90>
    81ec:	91 50       	subi	r25, 0x01	; 1
    81ee:	50 40       	sbci	r21, 0x00	; 0
    81f0:	e6 95       	lsr	r30
    81f2:	00 1c       	adc	r0, r0
    81f4:	ca f7       	brpl	.-14     	; 0x81e8 <__divsf3_pse+0x2c>
    81f6:	29 d0       	rcall	.+82     	; 0x824a <__divsf3_pse+0x8e>
    81f8:	fe 2f       	mov	r31, r30
    81fa:	27 d0       	rcall	.+78     	; 0x824a <__divsf3_pse+0x8e>
    81fc:	66 0f       	add	r22, r22
    81fe:	77 1f       	adc	r23, r23
    8200:	88 1f       	adc	r24, r24
    8202:	bb 1f       	adc	r27, r27
    8204:	26 17       	cp	r18, r22
    8206:	37 07       	cpc	r19, r23
    8208:	48 07       	cpc	r20, r24
    820a:	ab 07       	cpc	r26, r27
    820c:	b0 e8       	ldi	r27, 0x80	; 128
    820e:	09 f0       	breq	.+2      	; 0x8212 <__divsf3_pse+0x56>
    8210:	bb 0b       	sbc	r27, r27
    8212:	80 2d       	mov	r24, r0
    8214:	bf 01       	movw	r22, r30
    8216:	ff 27       	eor	r31, r31
    8218:	93 58       	subi	r25, 0x83	; 131
    821a:	5f 4f       	sbci	r21, 0xFF	; 255
    821c:	2a f0       	brmi	.+10     	; 0x8228 <__divsf3_pse+0x6c>
    821e:	9e 3f       	cpi	r25, 0xFE	; 254
    8220:	51 05       	cpc	r21, r1
    8222:	68 f0       	brcs	.+26     	; 0x823e <__divsf3_pse+0x82>
    8224:	b6 c0       	rjmp	.+364    	; 0x8392 <__fp_inf>
    8226:	79 c1       	rjmp	.+754    	; 0x851a <__fp_szero>
    8228:	5f 3f       	cpi	r21, 0xFF	; 255
    822a:	ec f3       	brlt	.-6      	; 0x8226 <__divsf3_pse+0x6a>
    822c:	98 3e       	cpi	r25, 0xE8	; 232
    822e:	dc f3       	brlt	.-10     	; 0x8226 <__divsf3_pse+0x6a>
    8230:	86 95       	lsr	r24
    8232:	77 95       	ror	r23
    8234:	67 95       	ror	r22
    8236:	b7 95       	ror	r27
    8238:	f7 95       	ror	r31
    823a:	9f 5f       	subi	r25, 0xFF	; 255
    823c:	c9 f7       	brne	.-14     	; 0x8230 <__divsf3_pse+0x74>
    823e:	88 0f       	add	r24, r24
    8240:	91 1d       	adc	r25, r1
    8242:	96 95       	lsr	r25
    8244:	87 95       	ror	r24
    8246:	97 f9       	bld	r25, 7
    8248:	08 95       	ret
    824a:	e1 e0       	ldi	r30, 0x01	; 1
    824c:	66 0f       	add	r22, r22
    824e:	77 1f       	adc	r23, r23
    8250:	88 1f       	adc	r24, r24
    8252:	bb 1f       	adc	r27, r27
    8254:	62 17       	cp	r22, r18
    8256:	73 07       	cpc	r23, r19
    8258:	84 07       	cpc	r24, r20
    825a:	ba 07       	cpc	r27, r26
    825c:	20 f0       	brcs	.+8      	; 0x8266 <__divsf3_pse+0xaa>
    825e:	62 1b       	sub	r22, r18
    8260:	73 0b       	sbc	r23, r19
    8262:	84 0b       	sbc	r24, r20
    8264:	ba 0b       	sbc	r27, r26
    8266:	ee 1f       	adc	r30, r30
    8268:	88 f7       	brcc	.-30     	; 0x824c <__divsf3_pse+0x90>
    826a:	e0 95       	com	r30
    826c:	08 95       	ret

0000826e <__fixsfsi>:
    826e:	04 d0       	rcall	.+8      	; 0x8278 <__fixunssfsi>
    8270:	68 94       	set
    8272:	b1 11       	cpse	r27, r1
    8274:	52 c1       	rjmp	.+676    	; 0x851a <__fp_szero>
    8276:	08 95       	ret

00008278 <__fixunssfsi>:
    8278:	1e d1       	rcall	.+572    	; 0x84b6 <__fp_splitA>
    827a:	88 f0       	brcs	.+34     	; 0x829e <__fixunssfsi+0x26>
    827c:	9f 57       	subi	r25, 0x7F	; 127
    827e:	90 f0       	brcs	.+36     	; 0x82a4 <__fixunssfsi+0x2c>
    8280:	b9 2f       	mov	r27, r25
    8282:	99 27       	eor	r25, r25
    8284:	b7 51       	subi	r27, 0x17	; 23
    8286:	a0 f0       	brcs	.+40     	; 0x82b0 <__fixunssfsi+0x38>
    8288:	d1 f0       	breq	.+52     	; 0x82be <__fixunssfsi+0x46>
    828a:	66 0f       	add	r22, r22
    828c:	77 1f       	adc	r23, r23
    828e:	88 1f       	adc	r24, r24
    8290:	99 1f       	adc	r25, r25
    8292:	1a f0       	brmi	.+6      	; 0x829a <__fixunssfsi+0x22>
    8294:	ba 95       	dec	r27
    8296:	c9 f7       	brne	.-14     	; 0x828a <__fixunssfsi+0x12>
    8298:	12 c0       	rjmp	.+36     	; 0x82be <__fixunssfsi+0x46>
    829a:	b1 30       	cpi	r27, 0x01	; 1
    829c:	81 f0       	breq	.+32     	; 0x82be <__fixunssfsi+0x46>
    829e:	3c d1       	rcall	.+632    	; 0x8518 <__fp_zero>
    82a0:	b1 e0       	ldi	r27, 0x01	; 1
    82a2:	08 95       	ret
    82a4:	39 c1       	rjmp	.+626    	; 0x8518 <__fp_zero>
    82a6:	67 2f       	mov	r22, r23
    82a8:	78 2f       	mov	r23, r24
    82aa:	88 27       	eor	r24, r24
    82ac:	b8 5f       	subi	r27, 0xF8	; 248
    82ae:	39 f0       	breq	.+14     	; 0x82be <__fixunssfsi+0x46>
    82b0:	b9 3f       	cpi	r27, 0xF9	; 249
    82b2:	cc f3       	brlt	.-14     	; 0x82a6 <__fixunssfsi+0x2e>
    82b4:	86 95       	lsr	r24
    82b6:	77 95       	ror	r23
    82b8:	67 95       	ror	r22
    82ba:	b3 95       	inc	r27
    82bc:	d9 f7       	brne	.-10     	; 0x82b4 <__fixunssfsi+0x3c>
    82be:	3e f4       	brtc	.+14     	; 0x82ce <__fixunssfsi+0x56>
    82c0:	90 95       	com	r25
    82c2:	80 95       	com	r24
    82c4:	70 95       	com	r23
    82c6:	61 95       	neg	r22
    82c8:	7f 4f       	sbci	r23, 0xFF	; 255
    82ca:	8f 4f       	sbci	r24, 0xFF	; 255
    82cc:	9f 4f       	sbci	r25, 0xFF	; 255
    82ce:	08 95       	ret

000082d0 <__floatunsisf>:
    82d0:	e8 94       	clt
    82d2:	09 c0       	rjmp	.+18     	; 0x82e6 <__floatsisf+0x12>

000082d4 <__floatsisf>:
    82d4:	97 fb       	bst	r25, 7
    82d6:	3e f4       	brtc	.+14     	; 0x82e6 <__floatsisf+0x12>
    82d8:	90 95       	com	r25
    82da:	80 95       	com	r24
    82dc:	70 95       	com	r23
    82de:	61 95       	neg	r22
    82e0:	7f 4f       	sbci	r23, 0xFF	; 255
    82e2:	8f 4f       	sbci	r24, 0xFF	; 255
    82e4:	9f 4f       	sbci	r25, 0xFF	; 255
    82e6:	99 23       	and	r25, r25
    82e8:	a9 f0       	breq	.+42     	; 0x8314 <__floatsisf+0x40>
    82ea:	f9 2f       	mov	r31, r25
    82ec:	96 e9       	ldi	r25, 0x96	; 150
    82ee:	bb 27       	eor	r27, r27
    82f0:	93 95       	inc	r25
    82f2:	f6 95       	lsr	r31
    82f4:	87 95       	ror	r24
    82f6:	77 95       	ror	r23
    82f8:	67 95       	ror	r22
    82fa:	b7 95       	ror	r27
    82fc:	f1 11       	cpse	r31, r1
    82fe:	f8 cf       	rjmp	.-16     	; 0x82f0 <__floatsisf+0x1c>
    8300:	fa f4       	brpl	.+62     	; 0x8340 <__floatsisf+0x6c>
    8302:	bb 0f       	add	r27, r27
    8304:	11 f4       	brne	.+4      	; 0x830a <__floatsisf+0x36>
    8306:	60 ff       	sbrs	r22, 0
    8308:	1b c0       	rjmp	.+54     	; 0x8340 <__floatsisf+0x6c>
    830a:	6f 5f       	subi	r22, 0xFF	; 255
    830c:	7f 4f       	sbci	r23, 0xFF	; 255
    830e:	8f 4f       	sbci	r24, 0xFF	; 255
    8310:	9f 4f       	sbci	r25, 0xFF	; 255
    8312:	16 c0       	rjmp	.+44     	; 0x8340 <__floatsisf+0x6c>
    8314:	88 23       	and	r24, r24
    8316:	11 f0       	breq	.+4      	; 0x831c <__floatsisf+0x48>
    8318:	96 e9       	ldi	r25, 0x96	; 150
    831a:	11 c0       	rjmp	.+34     	; 0x833e <__floatsisf+0x6a>
    831c:	77 23       	and	r23, r23
    831e:	21 f0       	breq	.+8      	; 0x8328 <__floatsisf+0x54>
    8320:	9e e8       	ldi	r25, 0x8E	; 142
    8322:	87 2f       	mov	r24, r23
    8324:	76 2f       	mov	r23, r22
    8326:	05 c0       	rjmp	.+10     	; 0x8332 <__floatsisf+0x5e>
    8328:	66 23       	and	r22, r22
    832a:	71 f0       	breq	.+28     	; 0x8348 <__floatsisf+0x74>
    832c:	96 e8       	ldi	r25, 0x86	; 134
    832e:	86 2f       	mov	r24, r22
    8330:	70 e0       	ldi	r23, 0x00	; 0
    8332:	60 e0       	ldi	r22, 0x00	; 0
    8334:	2a f0       	brmi	.+10     	; 0x8340 <__floatsisf+0x6c>
    8336:	9a 95       	dec	r25
    8338:	66 0f       	add	r22, r22
    833a:	77 1f       	adc	r23, r23
    833c:	88 1f       	adc	r24, r24
    833e:	da f7       	brpl	.-10     	; 0x8336 <__floatsisf+0x62>
    8340:	88 0f       	add	r24, r24
    8342:	96 95       	lsr	r25
    8344:	87 95       	ror	r24
    8346:	97 f9       	bld	r25, 7
    8348:	08 95       	ret

0000834a <__fp_cmp>:
    834a:	99 0f       	add	r25, r25
    834c:	00 08       	sbc	r0, r0
    834e:	55 0f       	add	r21, r21
    8350:	aa 0b       	sbc	r26, r26
    8352:	e0 e8       	ldi	r30, 0x80	; 128
    8354:	fe ef       	ldi	r31, 0xFE	; 254
    8356:	16 16       	cp	r1, r22
    8358:	17 06       	cpc	r1, r23
    835a:	e8 07       	cpc	r30, r24
    835c:	f9 07       	cpc	r31, r25
    835e:	c0 f0       	brcs	.+48     	; 0x8390 <__fp_cmp+0x46>
    8360:	12 16       	cp	r1, r18
    8362:	13 06       	cpc	r1, r19
    8364:	e4 07       	cpc	r30, r20
    8366:	f5 07       	cpc	r31, r21
    8368:	98 f0       	brcs	.+38     	; 0x8390 <__fp_cmp+0x46>
    836a:	62 1b       	sub	r22, r18
    836c:	73 0b       	sbc	r23, r19
    836e:	84 0b       	sbc	r24, r20
    8370:	95 0b       	sbc	r25, r21
    8372:	39 f4       	brne	.+14     	; 0x8382 <__fp_cmp+0x38>
    8374:	0a 26       	eor	r0, r26
    8376:	61 f0       	breq	.+24     	; 0x8390 <__fp_cmp+0x46>
    8378:	23 2b       	or	r18, r19
    837a:	24 2b       	or	r18, r20
    837c:	25 2b       	or	r18, r21
    837e:	21 f4       	brne	.+8      	; 0x8388 <__fp_cmp+0x3e>
    8380:	08 95       	ret
    8382:	0a 26       	eor	r0, r26
    8384:	09 f4       	brne	.+2      	; 0x8388 <__fp_cmp+0x3e>
    8386:	a1 40       	sbci	r26, 0x01	; 1
    8388:	a6 95       	lsr	r26
    838a:	8f ef       	ldi	r24, 0xFF	; 255
    838c:	81 1d       	adc	r24, r1
    838e:	81 1d       	adc	r24, r1
    8390:	08 95       	ret

00008392 <__fp_inf>:
    8392:	97 f9       	bld	r25, 7
    8394:	9f 67       	ori	r25, 0x7F	; 127
    8396:	80 e8       	ldi	r24, 0x80	; 128
    8398:	70 e0       	ldi	r23, 0x00	; 0
    839a:	60 e0       	ldi	r22, 0x00	; 0
    839c:	08 95       	ret

0000839e <__fp_mintl>:
    839e:	88 23       	and	r24, r24
    83a0:	71 f4       	brne	.+28     	; 0x83be <__fp_mintl+0x20>
    83a2:	77 23       	and	r23, r23
    83a4:	21 f0       	breq	.+8      	; 0x83ae <__fp_mintl+0x10>
    83a6:	98 50       	subi	r25, 0x08	; 8
    83a8:	87 2b       	or	r24, r23
    83aa:	76 2f       	mov	r23, r22
    83ac:	07 c0       	rjmp	.+14     	; 0x83bc <__fp_mintl+0x1e>
    83ae:	66 23       	and	r22, r22
    83b0:	11 f4       	brne	.+4      	; 0x83b6 <__fp_mintl+0x18>
    83b2:	99 27       	eor	r25, r25
    83b4:	0d c0       	rjmp	.+26     	; 0x83d0 <__fp_mintl+0x32>
    83b6:	90 51       	subi	r25, 0x10	; 16
    83b8:	86 2b       	or	r24, r22
    83ba:	70 e0       	ldi	r23, 0x00	; 0
    83bc:	60 e0       	ldi	r22, 0x00	; 0
    83be:	2a f0       	brmi	.+10     	; 0x83ca <__fp_mintl+0x2c>
    83c0:	9a 95       	dec	r25
    83c2:	66 0f       	add	r22, r22
    83c4:	77 1f       	adc	r23, r23
    83c6:	88 1f       	adc	r24, r24
    83c8:	da f7       	brpl	.-10     	; 0x83c0 <__fp_mintl+0x22>
    83ca:	88 0f       	add	r24, r24
    83cc:	96 95       	lsr	r25
    83ce:	87 95       	ror	r24
    83d0:	97 f9       	bld	r25, 7
    83d2:	08 95       	ret

000083d4 <__fp_mpack>:
    83d4:	9f 3f       	cpi	r25, 0xFF	; 255
    83d6:	31 f0       	breq	.+12     	; 0x83e4 <__fp_mpack_finite+0xc>

000083d8 <__fp_mpack_finite>:
    83d8:	91 50       	subi	r25, 0x01	; 1
    83da:	20 f4       	brcc	.+8      	; 0x83e4 <__fp_mpack_finite+0xc>
    83dc:	87 95       	ror	r24
    83de:	77 95       	ror	r23
    83e0:	67 95       	ror	r22
    83e2:	b7 95       	ror	r27
    83e4:	88 0f       	add	r24, r24
    83e6:	91 1d       	adc	r25, r1
    83e8:	96 95       	lsr	r25
    83ea:	87 95       	ror	r24
    83ec:	97 f9       	bld	r25, 7
    83ee:	08 95       	ret

000083f0 <__fp_nan>:
    83f0:	9f ef       	ldi	r25, 0xFF	; 255
    83f2:	80 ec       	ldi	r24, 0xC0	; 192
    83f4:	08 95       	ret

000083f6 <__fp_pscA>:
    83f6:	00 24       	eor	r0, r0
    83f8:	0a 94       	dec	r0
    83fa:	16 16       	cp	r1, r22
    83fc:	17 06       	cpc	r1, r23
    83fe:	18 06       	cpc	r1, r24
    8400:	09 06       	cpc	r0, r25
    8402:	08 95       	ret

00008404 <__fp_pscB>:
    8404:	00 24       	eor	r0, r0
    8406:	0a 94       	dec	r0
    8408:	12 16       	cp	r1, r18
    840a:	13 06       	cpc	r1, r19
    840c:	14 06       	cpc	r1, r20
    840e:	05 06       	cpc	r0, r21
    8410:	08 95       	ret
    8412:	ee cf       	rjmp	.-36     	; 0x83f0 <__fp_nan>

00008414 <__fp_rempio2>:
    8414:	50 d0       	rcall	.+160    	; 0x84b6 <__fp_splitA>
    8416:	e8 f3       	brcs	.-6      	; 0x8412 <__fp_pscB+0xe>
    8418:	e8 94       	clt
    841a:	e0 e0       	ldi	r30, 0x00	; 0
    841c:	bb 27       	eor	r27, r27
    841e:	9f 57       	subi	r25, 0x7F	; 127
    8420:	f0 f0       	brcs	.+60     	; 0x845e <__fp_rempio2+0x4a>
    8422:	2a ed       	ldi	r18, 0xDA	; 218
    8424:	3f e0       	ldi	r19, 0x0F	; 15
    8426:	49 ec       	ldi	r20, 0xC9	; 201
    8428:	06 c0       	rjmp	.+12     	; 0x8436 <__fp_rempio2+0x22>
    842a:	ee 0f       	add	r30, r30
    842c:	bb 0f       	add	r27, r27
    842e:	66 1f       	adc	r22, r22
    8430:	77 1f       	adc	r23, r23
    8432:	88 1f       	adc	r24, r24
    8434:	28 f0       	brcs	.+10     	; 0x8440 <__fp_rempio2+0x2c>
    8436:	b2 3a       	cpi	r27, 0xA2	; 162
    8438:	62 07       	cpc	r22, r18
    843a:	73 07       	cpc	r23, r19
    843c:	84 07       	cpc	r24, r20
    843e:	28 f0       	brcs	.+10     	; 0x844a <__fp_rempio2+0x36>
    8440:	b2 5a       	subi	r27, 0xA2	; 162
    8442:	62 0b       	sbc	r22, r18
    8444:	73 0b       	sbc	r23, r19
    8446:	84 0b       	sbc	r24, r20
    8448:	e3 95       	inc	r30
    844a:	9a 95       	dec	r25
    844c:	72 f7       	brpl	.-36     	; 0x842a <__fp_rempio2+0x16>
    844e:	80 38       	cpi	r24, 0x80	; 128
    8450:	30 f4       	brcc	.+12     	; 0x845e <__fp_rempio2+0x4a>
    8452:	9a 95       	dec	r25
    8454:	bb 0f       	add	r27, r27
    8456:	66 1f       	adc	r22, r22
    8458:	77 1f       	adc	r23, r23
    845a:	88 1f       	adc	r24, r24
    845c:	d2 f7       	brpl	.-12     	; 0x8452 <__fp_rempio2+0x3e>
    845e:	90 48       	sbci	r25, 0x80	; 128
    8460:	bb cf       	rjmp	.-138    	; 0x83d8 <__fp_mpack_finite>

00008462 <__fp_round>:
    8462:	09 2e       	mov	r0, r25
    8464:	03 94       	inc	r0
    8466:	00 0c       	add	r0, r0
    8468:	11 f4       	brne	.+4      	; 0x846e <__fp_round+0xc>
    846a:	88 23       	and	r24, r24
    846c:	52 f0       	brmi	.+20     	; 0x8482 <__fp_round+0x20>
    846e:	bb 0f       	add	r27, r27
    8470:	40 f4       	brcc	.+16     	; 0x8482 <__fp_round+0x20>
    8472:	bf 2b       	or	r27, r31
    8474:	11 f4       	brne	.+4      	; 0x847a <__fp_round+0x18>
    8476:	60 ff       	sbrs	r22, 0
    8478:	04 c0       	rjmp	.+8      	; 0x8482 <__fp_round+0x20>
    847a:	6f 5f       	subi	r22, 0xFF	; 255
    847c:	7f 4f       	sbci	r23, 0xFF	; 255
    847e:	8f 4f       	sbci	r24, 0xFF	; 255
    8480:	9f 4f       	sbci	r25, 0xFF	; 255
    8482:	08 95       	ret

00008484 <__fp_sinus>:
    8484:	ef 93       	push	r30
    8486:	e0 ff       	sbrs	r30, 0
    8488:	06 c0       	rjmp	.+12     	; 0x8496 <__fp_sinus+0x12>
    848a:	a2 ea       	ldi	r26, 0xA2	; 162
    848c:	2a ed       	ldi	r18, 0xDA	; 218
    848e:	3f e0       	ldi	r19, 0x0F	; 15
    8490:	49 ec       	ldi	r20, 0xC9	; 201
    8492:	5f eb       	ldi	r21, 0xBF	; 191
    8494:	17 de       	rcall	.-978    	; 0x80c4 <__addsf3x>
    8496:	e5 df       	rcall	.-54     	; 0x8462 <__fp_round>
    8498:	0f 90       	pop	r0
    849a:	03 94       	inc	r0
    849c:	01 fc       	sbrc	r0, 1
    849e:	90 58       	subi	r25, 0x80	; 128
    84a0:	ec e8       	ldi	r30, 0x8C	; 140
    84a2:	f0 e0       	ldi	r31, 0x00	; 0
    84a4:	37 c4       	rjmp	.+2158   	; 0x8d14 <__fp_powsodd>

000084a6 <__fp_split3>:
    84a6:	57 fd       	sbrc	r21, 7
    84a8:	90 58       	subi	r25, 0x80	; 128
    84aa:	44 0f       	add	r20, r20
    84ac:	55 1f       	adc	r21, r21
    84ae:	59 f0       	breq	.+22     	; 0x84c6 <__fp_splitA+0x10>
    84b0:	5f 3f       	cpi	r21, 0xFF	; 255
    84b2:	71 f0       	breq	.+28     	; 0x84d0 <__fp_splitA+0x1a>
    84b4:	47 95       	ror	r20

000084b6 <__fp_splitA>:
    84b6:	88 0f       	add	r24, r24
    84b8:	97 fb       	bst	r25, 7
    84ba:	99 1f       	adc	r25, r25
    84bc:	61 f0       	breq	.+24     	; 0x84d6 <__fp_splitA+0x20>
    84be:	9f 3f       	cpi	r25, 0xFF	; 255
    84c0:	79 f0       	breq	.+30     	; 0x84e0 <__fp_splitA+0x2a>
    84c2:	87 95       	ror	r24
    84c4:	08 95       	ret
    84c6:	12 16       	cp	r1, r18
    84c8:	13 06       	cpc	r1, r19
    84ca:	14 06       	cpc	r1, r20
    84cc:	55 1f       	adc	r21, r21
    84ce:	f2 cf       	rjmp	.-28     	; 0x84b4 <__fp_split3+0xe>
    84d0:	46 95       	lsr	r20
    84d2:	f1 df       	rcall	.-30     	; 0x84b6 <__fp_splitA>
    84d4:	08 c0       	rjmp	.+16     	; 0x84e6 <__fp_splitA+0x30>
    84d6:	16 16       	cp	r1, r22
    84d8:	17 06       	cpc	r1, r23
    84da:	18 06       	cpc	r1, r24
    84dc:	99 1f       	adc	r25, r25
    84de:	f1 cf       	rjmp	.-30     	; 0x84c2 <__fp_splitA+0xc>
    84e0:	86 95       	lsr	r24
    84e2:	71 05       	cpc	r23, r1
    84e4:	61 05       	cpc	r22, r1
    84e6:	08 94       	sec
    84e8:	08 95       	ret

000084ea <__fp_trunc>:
    84ea:	e5 df       	rcall	.-54     	; 0x84b6 <__fp_splitA>
    84ec:	a0 f0       	brcs	.+40     	; 0x8516 <__fp_trunc+0x2c>
    84ee:	be e7       	ldi	r27, 0x7E	; 126
    84f0:	b9 17       	cp	r27, r25
    84f2:	88 f4       	brcc	.+34     	; 0x8516 <__fp_trunc+0x2c>
    84f4:	bb 27       	eor	r27, r27
    84f6:	9f 38       	cpi	r25, 0x8F	; 143
    84f8:	60 f4       	brcc	.+24     	; 0x8512 <__fp_trunc+0x28>
    84fa:	16 16       	cp	r1, r22
    84fc:	b1 1d       	adc	r27, r1
    84fe:	67 2f       	mov	r22, r23
    8500:	78 2f       	mov	r23, r24
    8502:	88 27       	eor	r24, r24
    8504:	98 5f       	subi	r25, 0xF8	; 248
    8506:	f7 cf       	rjmp	.-18     	; 0x84f6 <__fp_trunc+0xc>
    8508:	86 95       	lsr	r24
    850a:	77 95       	ror	r23
    850c:	67 95       	ror	r22
    850e:	b1 1d       	adc	r27, r1
    8510:	93 95       	inc	r25
    8512:	96 39       	cpi	r25, 0x96	; 150
    8514:	c8 f3       	brcs	.-14     	; 0x8508 <__fp_trunc+0x1e>
    8516:	08 95       	ret

00008518 <__fp_zero>:
    8518:	e8 94       	clt

0000851a <__fp_szero>:
    851a:	bb 27       	eor	r27, r27
    851c:	66 27       	eor	r22, r22
    851e:	77 27       	eor	r23, r23
    8520:	cb 01       	movw	r24, r22
    8522:	97 f9       	bld	r25, 7
    8524:	08 95       	ret

00008526 <__gesf2>:
    8526:	11 df       	rcall	.-478    	; 0x834a <__fp_cmp>
    8528:	08 f4       	brcc	.+2      	; 0x852c <__gesf2+0x6>
    852a:	8f ef       	ldi	r24, 0xFF	; 255
    852c:	08 95       	ret
    852e:	63 df       	rcall	.-314    	; 0x83f6 <__fp_pscA>
    8530:	19 f0       	breq	.+6      	; 0x8538 <__gesf2+0x12>
    8532:	68 df       	rcall	.-304    	; 0x8404 <__fp_pscB>
    8534:	09 f0       	breq	.+2      	; 0x8538 <__gesf2+0x12>
    8536:	5c cf       	rjmp	.-328    	; 0x83f0 <__fp_nan>
    8538:	2c cf       	rjmp	.-424    	; 0x8392 <__fp_inf>
    853a:	b9 01       	movw	r22, r18
    853c:	ca 01       	movw	r24, r20
    853e:	4a cf       	rjmp	.-364    	; 0x83d4 <__fp_mpack>

00008540 <hypot>:
    8540:	9f 77       	andi	r25, 0x7F	; 127
    8542:	5f 77       	andi	r21, 0x7F	; 127
    8544:	b0 df       	rcall	.-160    	; 0x84a6 <__fp_split3>
    8546:	98 f3       	brcs	.-26     	; 0x852e <__gesf2+0x8>
    8548:	99 23       	and	r25, r25
    854a:	b9 f3       	breq	.-18     	; 0x853a <__gesf2+0x14>
    854c:	55 23       	and	r21, r21
    854e:	b9 f3       	breq	.-18     	; 0x853e <__gesf2+0x18>
    8550:	ff 27       	eor	r31, r31
    8552:	95 17       	cp	r25, r21
    8554:	58 f4       	brcc	.+22     	; 0x856c <hypot+0x2c>
    8556:	e5 2f       	mov	r30, r21
    8558:	e9 1b       	sub	r30, r25
    855a:	ed 30       	cpi	r30, 0x0D	; 13
    855c:	70 f7       	brcc	.-36     	; 0x853a <__gesf2+0x14>
    855e:	5e 3b       	cpi	r21, 0xBE	; 190
    8560:	10 f0       	brcs	.+4      	; 0x8566 <hypot+0x26>
    8562:	f1 e4       	ldi	r31, 0x41	; 65
    8564:	1c c0       	rjmp	.+56     	; 0x859e <hypot+0x5e>
    8566:	90 34       	cpi	r25, 0x40	; 64
    8568:	e0 f4       	brcc	.+56     	; 0x85a2 <hypot+0x62>
    856a:	0a c0       	rjmp	.+20     	; 0x8580 <hypot+0x40>
    856c:	e9 2f       	mov	r30, r25
    856e:	e5 1b       	sub	r30, r21
    8570:	ed 30       	cpi	r30, 0x0D	; 13
    8572:	28 f7       	brcc	.-54     	; 0x853e <__gesf2+0x18>
    8574:	9e 3b       	cpi	r25, 0xBE	; 190
    8576:	10 f0       	brcs	.+4      	; 0x857c <hypot+0x3c>
    8578:	f1 e4       	ldi	r31, 0x41	; 65
    857a:	11 c0       	rjmp	.+34     	; 0x859e <hypot+0x5e>
    857c:	50 34       	cpi	r21, 0x40	; 64
    857e:	88 f4       	brcc	.+34     	; 0x85a2 <hypot+0x62>
    8580:	f9 ea       	ldi	r31, 0xA9	; 169
    8582:	88 23       	and	r24, r24
    8584:	2a f0       	brmi	.+10     	; 0x8590 <hypot+0x50>
    8586:	9a 95       	dec	r25
    8588:	66 0f       	add	r22, r22
    858a:	77 1f       	adc	r23, r23
    858c:	88 1f       	adc	r24, r24
    858e:	da f7       	brpl	.-10     	; 0x8586 <hypot+0x46>
    8590:	44 23       	and	r20, r20
    8592:	2a f0       	brmi	.+10     	; 0x859e <hypot+0x5e>
    8594:	5a 95       	dec	r21
    8596:	22 0f       	add	r18, r18
    8598:	33 1f       	adc	r19, r19
    859a:	44 1f       	adc	r20, r20
    859c:	da f7       	brpl	.-10     	; 0x8594 <hypot+0x54>
    859e:	9f 1b       	sub	r25, r31
    85a0:	5f 1b       	sub	r21, r31
    85a2:	ff 93       	push	r31
    85a4:	1f 93       	push	r17
    85a6:	0f 93       	push	r16
    85a8:	ff 92       	push	r15
    85aa:	ef 92       	push	r14
    85ac:	79 01       	movw	r14, r18
    85ae:	8a 01       	movw	r16, r20
    85b0:	bb 27       	eor	r27, r27
    85b2:	ab 2f       	mov	r26, r27
    85b4:	9b 01       	movw	r18, r22
    85b6:	ac 01       	movw	r20, r24
    85b8:	5f d0       	rcall	.+190    	; 0x8678 <__mulsf3_pse>
    85ba:	97 01       	movw	r18, r14
    85bc:	a8 01       	movw	r20, r16
    85be:	bf 93       	push	r27
    85c0:	7b 01       	movw	r14, r22
    85c2:	8c 01       	movw	r16, r24
    85c4:	aa 27       	eor	r26, r26
    85c6:	ba 2f       	mov	r27, r26
    85c8:	b9 01       	movw	r22, r18
    85ca:	ca 01       	movw	r24, r20
    85cc:	55 d0       	rcall	.+170    	; 0x8678 <__mulsf3_pse>
    85ce:	af 91       	pop	r26
    85d0:	97 01       	movw	r18, r14
    85d2:	a8 01       	movw	r20, r16
    85d4:	ef 90       	pop	r14
    85d6:	ff 90       	pop	r15
    85d8:	0f 91       	pop	r16
    85da:	1f 91       	pop	r17
    85dc:	73 dd       	rcall	.-1306   	; 0x80c4 <__addsf3x>
    85de:	41 df       	rcall	.-382    	; 0x8462 <__fp_round>
    85e0:	a4 d0       	rcall	.+328    	; 0x872a <sqrt>
    85e2:	4f 91       	pop	r20
    85e4:	40 ff       	sbrs	r20, 0
    85e6:	08 95       	ret
    85e8:	55 27       	eor	r21, r21
    85ea:	47 fd       	sbrc	r20, 7
    85ec:	50 95       	com	r21
    85ee:	02 c0       	rjmp	.+4      	; 0x85f4 <ldexp>
    85f0:	d0 ce       	rjmp	.-608    	; 0x8392 <__fp_inf>
    85f2:	f0 ce       	rjmp	.-544    	; 0x83d4 <__fp_mpack>

000085f4 <ldexp>:
    85f4:	60 df       	rcall	.-320    	; 0x84b6 <__fp_splitA>
    85f6:	e8 f3       	brcs	.-6      	; 0x85f2 <hypot+0xb2>
    85f8:	99 23       	and	r25, r25
    85fa:	d9 f3       	breq	.-10     	; 0x85f2 <hypot+0xb2>
    85fc:	94 0f       	add	r25, r20
    85fe:	51 1d       	adc	r21, r1
    8600:	bb f3       	brvs	.-18     	; 0x85f0 <hypot+0xb0>
    8602:	91 50       	subi	r25, 0x01	; 1
    8604:	50 40       	sbci	r21, 0x00	; 0
    8606:	94 f0       	brlt	.+36     	; 0x862c <ldexp+0x38>
    8608:	59 f0       	breq	.+22     	; 0x8620 <ldexp+0x2c>
    860a:	88 23       	and	r24, r24
    860c:	32 f0       	brmi	.+12     	; 0x861a <ldexp+0x26>
    860e:	66 0f       	add	r22, r22
    8610:	77 1f       	adc	r23, r23
    8612:	88 1f       	adc	r24, r24
    8614:	91 50       	subi	r25, 0x01	; 1
    8616:	50 40       	sbci	r21, 0x00	; 0
    8618:	c1 f7       	brne	.-16     	; 0x860a <ldexp+0x16>
    861a:	9e 3f       	cpi	r25, 0xFE	; 254
    861c:	51 05       	cpc	r21, r1
    861e:	44 f7       	brge	.-48     	; 0x85f0 <hypot+0xb0>
    8620:	88 0f       	add	r24, r24
    8622:	91 1d       	adc	r25, r1
    8624:	96 95       	lsr	r25
    8626:	87 95       	ror	r24
    8628:	97 f9       	bld	r25, 7
    862a:	08 95       	ret
    862c:	5f 3f       	cpi	r21, 0xFF	; 255
    862e:	ac f0       	brlt	.+42     	; 0x865a <ldexp+0x66>
    8630:	98 3e       	cpi	r25, 0xE8	; 232
    8632:	9c f0       	brlt	.+38     	; 0x865a <ldexp+0x66>
    8634:	bb 27       	eor	r27, r27
    8636:	86 95       	lsr	r24
    8638:	77 95       	ror	r23
    863a:	67 95       	ror	r22
    863c:	b7 95       	ror	r27
    863e:	08 f4       	brcc	.+2      	; 0x8642 <ldexp+0x4e>
    8640:	b1 60       	ori	r27, 0x01	; 1
    8642:	93 95       	inc	r25
    8644:	c1 f7       	brne	.-16     	; 0x8636 <ldexp+0x42>
    8646:	bb 0f       	add	r27, r27
    8648:	58 f7       	brcc	.-42     	; 0x8620 <ldexp+0x2c>
    864a:	11 f4       	brne	.+4      	; 0x8650 <ldexp+0x5c>
    864c:	60 ff       	sbrs	r22, 0
    864e:	e8 cf       	rjmp	.-48     	; 0x8620 <ldexp+0x2c>
    8650:	6f 5f       	subi	r22, 0xFF	; 255
    8652:	7f 4f       	sbci	r23, 0xFF	; 255
    8654:	8f 4f       	sbci	r24, 0xFF	; 255
    8656:	9f 4f       	sbci	r25, 0xFF	; 255
    8658:	e3 cf       	rjmp	.-58     	; 0x8620 <ldexp+0x2c>
    865a:	5f cf       	rjmp	.-322    	; 0x851a <__fp_szero>

0000865c <__mulsf3>:
    865c:	0b d0       	rcall	.+22     	; 0x8674 <__mulsf3x>
    865e:	01 cf       	rjmp	.-510    	; 0x8462 <__fp_round>
    8660:	ca de       	rcall	.-620    	; 0x83f6 <__fp_pscA>
    8662:	28 f0       	brcs	.+10     	; 0x866e <__mulsf3+0x12>
    8664:	cf de       	rcall	.-610    	; 0x8404 <__fp_pscB>
    8666:	18 f0       	brcs	.+6      	; 0x866e <__mulsf3+0x12>
    8668:	95 23       	and	r25, r21
    866a:	09 f0       	breq	.+2      	; 0x866e <__mulsf3+0x12>
    866c:	92 ce       	rjmp	.-732    	; 0x8392 <__fp_inf>
    866e:	c0 ce       	rjmp	.-640    	; 0x83f0 <__fp_nan>
    8670:	11 24       	eor	r1, r1
    8672:	53 cf       	rjmp	.-346    	; 0x851a <__fp_szero>

00008674 <__mulsf3x>:
    8674:	18 df       	rcall	.-464    	; 0x84a6 <__fp_split3>
    8676:	a0 f3       	brcs	.-24     	; 0x8660 <__mulsf3+0x4>

00008678 <__mulsf3_pse>:
    8678:	95 9f       	mul	r25, r21
    867a:	d1 f3       	breq	.-12     	; 0x8670 <__mulsf3+0x14>
    867c:	95 0f       	add	r25, r21
    867e:	50 e0       	ldi	r21, 0x00	; 0
    8680:	55 1f       	adc	r21, r21
    8682:	62 9f       	mul	r22, r18
    8684:	f0 01       	movw	r30, r0
    8686:	72 9f       	mul	r23, r18
    8688:	bb 27       	eor	r27, r27
    868a:	f0 0d       	add	r31, r0
    868c:	b1 1d       	adc	r27, r1
    868e:	63 9f       	mul	r22, r19
    8690:	aa 27       	eor	r26, r26
    8692:	f0 0d       	add	r31, r0
    8694:	b1 1d       	adc	r27, r1
    8696:	aa 1f       	adc	r26, r26
    8698:	64 9f       	mul	r22, r20
    869a:	66 27       	eor	r22, r22
    869c:	b0 0d       	add	r27, r0
    869e:	a1 1d       	adc	r26, r1
    86a0:	66 1f       	adc	r22, r22
    86a2:	82 9f       	mul	r24, r18
    86a4:	22 27       	eor	r18, r18
    86a6:	b0 0d       	add	r27, r0
    86a8:	a1 1d       	adc	r26, r1
    86aa:	62 1f       	adc	r22, r18
    86ac:	73 9f       	mul	r23, r19
    86ae:	b0 0d       	add	r27, r0
    86b0:	a1 1d       	adc	r26, r1
    86b2:	62 1f       	adc	r22, r18
    86b4:	83 9f       	mul	r24, r19
    86b6:	a0 0d       	add	r26, r0
    86b8:	61 1d       	adc	r22, r1
    86ba:	22 1f       	adc	r18, r18
    86bc:	74 9f       	mul	r23, r20
    86be:	33 27       	eor	r19, r19
    86c0:	a0 0d       	add	r26, r0
    86c2:	61 1d       	adc	r22, r1
    86c4:	23 1f       	adc	r18, r19
    86c6:	84 9f       	mul	r24, r20
    86c8:	60 0d       	add	r22, r0
    86ca:	21 1d       	adc	r18, r1
    86cc:	82 2f       	mov	r24, r18
    86ce:	76 2f       	mov	r23, r22
    86d0:	6a 2f       	mov	r22, r26
    86d2:	11 24       	eor	r1, r1
    86d4:	9f 57       	subi	r25, 0x7F	; 127
    86d6:	50 40       	sbci	r21, 0x00	; 0
    86d8:	8a f0       	brmi	.+34     	; 0x86fc <__mulsf3_pse+0x84>
    86da:	e1 f0       	breq	.+56     	; 0x8714 <__mulsf3_pse+0x9c>
    86dc:	88 23       	and	r24, r24
    86de:	4a f0       	brmi	.+18     	; 0x86f2 <__mulsf3_pse+0x7a>
    86e0:	ee 0f       	add	r30, r30
    86e2:	ff 1f       	adc	r31, r31
    86e4:	bb 1f       	adc	r27, r27
    86e6:	66 1f       	adc	r22, r22
    86e8:	77 1f       	adc	r23, r23
    86ea:	88 1f       	adc	r24, r24
    86ec:	91 50       	subi	r25, 0x01	; 1
    86ee:	50 40       	sbci	r21, 0x00	; 0
    86f0:	a9 f7       	brne	.-22     	; 0x86dc <__mulsf3_pse+0x64>
    86f2:	9e 3f       	cpi	r25, 0xFE	; 254
    86f4:	51 05       	cpc	r21, r1
    86f6:	70 f0       	brcs	.+28     	; 0x8714 <__mulsf3_pse+0x9c>
    86f8:	4c ce       	rjmp	.-872    	; 0x8392 <__fp_inf>
    86fa:	0f cf       	rjmp	.-482    	; 0x851a <__fp_szero>
    86fc:	5f 3f       	cpi	r21, 0xFF	; 255
    86fe:	ec f3       	brlt	.-6      	; 0x86fa <__mulsf3_pse+0x82>
    8700:	98 3e       	cpi	r25, 0xE8	; 232
    8702:	dc f3       	brlt	.-10     	; 0x86fa <__mulsf3_pse+0x82>
    8704:	86 95       	lsr	r24
    8706:	77 95       	ror	r23
    8708:	67 95       	ror	r22
    870a:	b7 95       	ror	r27
    870c:	f7 95       	ror	r31
    870e:	e7 95       	ror	r30
    8710:	9f 5f       	subi	r25, 0xFF	; 255
    8712:	c1 f7       	brne	.-16     	; 0x8704 <__mulsf3_pse+0x8c>
    8714:	fe 2b       	or	r31, r30
    8716:	88 0f       	add	r24, r24
    8718:	91 1d       	adc	r25, r1
    871a:	96 95       	lsr	r25
    871c:	87 95       	ror	r24
    871e:	97 f9       	bld	r25, 7
    8720:	08 95       	ret
    8722:	11 f4       	brne	.+4      	; 0x8728 <__mulsf3_pse+0xb0>
    8724:	0e f4       	brtc	.+2      	; 0x8728 <__mulsf3_pse+0xb0>
    8726:	64 ce       	rjmp	.-824    	; 0x83f0 <__fp_nan>
    8728:	55 ce       	rjmp	.-854    	; 0x83d4 <__fp_mpack>

0000872a <sqrt>:
    872a:	c5 de       	rcall	.-630    	; 0x84b6 <__fp_splitA>
    872c:	d0 f3       	brcs	.-12     	; 0x8722 <__mulsf3_pse+0xaa>
    872e:	99 23       	and	r25, r25
    8730:	d9 f3       	breq	.-10     	; 0x8728 <__mulsf3_pse+0xb0>
    8732:	ce f3       	brts	.-14     	; 0x8726 <__mulsf3_pse+0xae>
    8734:	9f 57       	subi	r25, 0x7F	; 127
    8736:	55 0b       	sbc	r21, r21
    8738:	87 ff       	sbrs	r24, 7
    873a:	e5 d2       	rcall	.+1482   	; 0x8d06 <__fp_norm2>
    873c:	00 24       	eor	r0, r0
    873e:	a0 e6       	ldi	r26, 0x60	; 96
    8740:	40 ea       	ldi	r20, 0xA0	; 160
    8742:	90 01       	movw	r18, r0
    8744:	80 58       	subi	r24, 0x80	; 128
    8746:	56 95       	lsr	r21
    8748:	97 95       	ror	r25
    874a:	28 f4       	brcc	.+10     	; 0x8756 <sqrt+0x2c>
    874c:	80 5c       	subi	r24, 0xC0	; 192
    874e:	66 0f       	add	r22, r22
    8750:	77 1f       	adc	r23, r23
    8752:	88 1f       	adc	r24, r24
    8754:	20 f0       	brcs	.+8      	; 0x875e <sqrt+0x34>
    8756:	26 17       	cp	r18, r22
    8758:	37 07       	cpc	r19, r23
    875a:	48 07       	cpc	r20, r24
    875c:	30 f4       	brcc	.+12     	; 0x876a <sqrt+0x40>
    875e:	62 1b       	sub	r22, r18
    8760:	73 0b       	sbc	r23, r19
    8762:	84 0b       	sbc	r24, r20
    8764:	20 29       	or	r18, r0
    8766:	31 29       	or	r19, r1
    8768:	4a 2b       	or	r20, r26
    876a:	a6 95       	lsr	r26
    876c:	17 94       	ror	r1
    876e:	07 94       	ror	r0
    8770:	20 25       	eor	r18, r0
    8772:	31 25       	eor	r19, r1
    8774:	4a 27       	eor	r20, r26
    8776:	58 f7       	brcc	.-42     	; 0x874e <sqrt+0x24>
    8778:	66 0f       	add	r22, r22
    877a:	77 1f       	adc	r23, r23
    877c:	88 1f       	adc	r24, r24
    877e:	20 f0       	brcs	.+8      	; 0x8788 <sqrt+0x5e>
    8780:	26 17       	cp	r18, r22
    8782:	37 07       	cpc	r19, r23
    8784:	48 07       	cpc	r20, r24
    8786:	30 f4       	brcc	.+12     	; 0x8794 <sqrt+0x6a>
    8788:	62 0b       	sbc	r22, r18
    878a:	73 0b       	sbc	r23, r19
    878c:	84 0b       	sbc	r24, r20
    878e:	20 0d       	add	r18, r0
    8790:	31 1d       	adc	r19, r1
    8792:	41 1d       	adc	r20, r1
    8794:	a0 95       	com	r26
    8796:	81 f7       	brne	.-32     	; 0x8778 <sqrt+0x4e>
    8798:	b9 01       	movw	r22, r18
    879a:	84 2f       	mov	r24, r20
    879c:	91 58       	subi	r25, 0x81	; 129
    879e:	88 0f       	add	r24, r24
    87a0:	96 95       	lsr	r25
    87a2:	87 95       	ror	r24
    87a4:	08 95       	ret

000087a6 <vfprintf>:
    87a6:	2f 92       	push	r2
    87a8:	3f 92       	push	r3
    87aa:	4f 92       	push	r4
    87ac:	5f 92       	push	r5
    87ae:	6f 92       	push	r6
    87b0:	7f 92       	push	r7
    87b2:	8f 92       	push	r8
    87b4:	9f 92       	push	r9
    87b6:	af 92       	push	r10
    87b8:	bf 92       	push	r11
    87ba:	cf 92       	push	r12
    87bc:	df 92       	push	r13
    87be:	ef 92       	push	r14
    87c0:	ff 92       	push	r15
    87c2:	0f 93       	push	r16
    87c4:	1f 93       	push	r17
    87c6:	df 93       	push	r29
    87c8:	cf 93       	push	r28
    87ca:	cd b7       	in	r28, 0x3d	; 61
    87cc:	de b7       	in	r29, 0x3e	; 62
    87ce:	2c 97       	sbiw	r28, 0x0c	; 12
    87d0:	0f b6       	in	r0, 0x3f	; 63
    87d2:	f8 94       	cli
    87d4:	de bf       	out	0x3e, r29	; 62
    87d6:	0f be       	out	0x3f, r0	; 63
    87d8:	cd bf       	out	0x3d, r28	; 61
    87da:	6c 01       	movw	r12, r24
    87dc:	1b 01       	movw	r2, r22
    87de:	8a 01       	movw	r16, r20
    87e0:	fc 01       	movw	r30, r24
    87e2:	17 82       	std	Z+7, r1	; 0x07
    87e4:	16 82       	std	Z+6, r1	; 0x06
    87e6:	83 81       	ldd	r24, Z+3	; 0x03
    87e8:	81 ff       	sbrs	r24, 1
    87ea:	d1 c1       	rjmp	.+930    	; 0x8b8e <vfprintf+0x3e8>
    87ec:	2e 01       	movw	r4, r28
    87ee:	08 94       	sec
    87f0:	41 1c       	adc	r4, r1
    87f2:	51 1c       	adc	r5, r1
    87f4:	f6 01       	movw	r30, r12
    87f6:	93 81       	ldd	r25, Z+3	; 0x03
    87f8:	f1 01       	movw	r30, r2
    87fa:	93 fd       	sbrc	r25, 3
    87fc:	85 91       	lpm	r24, Z+
    87fe:	93 ff       	sbrs	r25, 3
    8800:	81 91       	ld	r24, Z+
    8802:	1f 01       	movw	r2, r30
    8804:	88 23       	and	r24, r24
    8806:	09 f4       	brne	.+2      	; 0x880a <vfprintf+0x64>
    8808:	be c1       	rjmp	.+892    	; 0x8b86 <vfprintf+0x3e0>
    880a:	85 32       	cpi	r24, 0x25	; 37
    880c:	39 f4       	brne	.+14     	; 0x881c <vfprintf+0x76>
    880e:	93 fd       	sbrc	r25, 3
    8810:	85 91       	lpm	r24, Z+
    8812:	93 ff       	sbrs	r25, 3
    8814:	81 91       	ld	r24, Z+
    8816:	1f 01       	movw	r2, r30
    8818:	85 32       	cpi	r24, 0x25	; 37
    881a:	29 f4       	brne	.+10     	; 0x8826 <vfprintf+0x80>
    881c:	90 e0       	ldi	r25, 0x00	; 0
    881e:	b6 01       	movw	r22, r12
    8820:	0e 94 f9 45 	call	0x8bf2	; 0x8bf2 <fputc>
    8824:	e7 cf       	rjmp	.-50     	; 0x87f4 <vfprintf+0x4e>
    8826:	ee 24       	eor	r14, r14
    8828:	ff 24       	eor	r15, r15
    882a:	20 e0       	ldi	r18, 0x00	; 0
    882c:	20 32       	cpi	r18, 0x20	; 32
    882e:	b0 f4       	brcc	.+44     	; 0x885c <vfprintf+0xb6>
    8830:	8b 32       	cpi	r24, 0x2B	; 43
    8832:	69 f0       	breq	.+26     	; 0x884e <vfprintf+0xa8>
    8834:	8c 32       	cpi	r24, 0x2C	; 44
    8836:	28 f4       	brcc	.+10     	; 0x8842 <vfprintf+0x9c>
    8838:	80 32       	cpi	r24, 0x20	; 32
    883a:	51 f0       	breq	.+20     	; 0x8850 <vfprintf+0xaa>
    883c:	83 32       	cpi	r24, 0x23	; 35
    883e:	71 f4       	brne	.+28     	; 0x885c <vfprintf+0xb6>
    8840:	0b c0       	rjmp	.+22     	; 0x8858 <vfprintf+0xb2>
    8842:	8d 32       	cpi	r24, 0x2D	; 45
    8844:	39 f0       	breq	.+14     	; 0x8854 <vfprintf+0xae>
    8846:	80 33       	cpi	r24, 0x30	; 48
    8848:	49 f4       	brne	.+18     	; 0x885c <vfprintf+0xb6>
    884a:	21 60       	ori	r18, 0x01	; 1
    884c:	2c c0       	rjmp	.+88     	; 0x88a6 <vfprintf+0x100>
    884e:	22 60       	ori	r18, 0x02	; 2
    8850:	24 60       	ori	r18, 0x04	; 4
    8852:	29 c0       	rjmp	.+82     	; 0x88a6 <vfprintf+0x100>
    8854:	28 60       	ori	r18, 0x08	; 8
    8856:	27 c0       	rjmp	.+78     	; 0x88a6 <vfprintf+0x100>
    8858:	20 61       	ori	r18, 0x10	; 16
    885a:	25 c0       	rjmp	.+74     	; 0x88a6 <vfprintf+0x100>
    885c:	27 fd       	sbrc	r18, 7
    885e:	2c c0       	rjmp	.+88     	; 0x88b8 <vfprintf+0x112>
    8860:	38 2f       	mov	r19, r24
    8862:	30 53       	subi	r19, 0x30	; 48
    8864:	3a 30       	cpi	r19, 0x0A	; 10
    8866:	98 f4       	brcc	.+38     	; 0x888e <vfprintf+0xe8>
    8868:	26 ff       	sbrs	r18, 6
    886a:	08 c0       	rjmp	.+16     	; 0x887c <vfprintf+0xd6>
    886c:	8e 2d       	mov	r24, r14
    886e:	88 0f       	add	r24, r24
    8870:	e8 2e       	mov	r14, r24
    8872:	ee 0c       	add	r14, r14
    8874:	ee 0c       	add	r14, r14
    8876:	e8 0e       	add	r14, r24
    8878:	e3 0e       	add	r14, r19
    887a:	15 c0       	rjmp	.+42     	; 0x88a6 <vfprintf+0x100>
    887c:	8f 2d       	mov	r24, r15
    887e:	88 0f       	add	r24, r24
    8880:	f8 2e       	mov	r15, r24
    8882:	ff 0c       	add	r15, r15
    8884:	ff 0c       	add	r15, r15
    8886:	f8 0e       	add	r15, r24
    8888:	f3 0e       	add	r15, r19
    888a:	20 62       	ori	r18, 0x20	; 32
    888c:	0c c0       	rjmp	.+24     	; 0x88a6 <vfprintf+0x100>
    888e:	8e 32       	cpi	r24, 0x2E	; 46
    8890:	21 f4       	brne	.+8      	; 0x889a <vfprintf+0xf4>
    8892:	26 fd       	sbrc	r18, 6
    8894:	78 c1       	rjmp	.+752    	; 0x8b86 <vfprintf+0x3e0>
    8896:	20 64       	ori	r18, 0x40	; 64
    8898:	06 c0       	rjmp	.+12     	; 0x88a6 <vfprintf+0x100>
    889a:	8c 36       	cpi	r24, 0x6C	; 108
    889c:	11 f4       	brne	.+4      	; 0x88a2 <vfprintf+0xfc>
    889e:	20 68       	ori	r18, 0x80	; 128
    88a0:	02 c0       	rjmp	.+4      	; 0x88a6 <vfprintf+0x100>
    88a2:	88 36       	cpi	r24, 0x68	; 104
    88a4:	49 f4       	brne	.+18     	; 0x88b8 <vfprintf+0x112>
    88a6:	f1 01       	movw	r30, r2
    88a8:	93 fd       	sbrc	r25, 3
    88aa:	85 91       	lpm	r24, Z+
    88ac:	93 ff       	sbrs	r25, 3
    88ae:	81 91       	ld	r24, Z+
    88b0:	1f 01       	movw	r2, r30
    88b2:	88 23       	and	r24, r24
    88b4:	09 f0       	breq	.+2      	; 0x88b8 <vfprintf+0x112>
    88b6:	ba cf       	rjmp	.-140    	; 0x882c <vfprintf+0x86>
    88b8:	98 2f       	mov	r25, r24
    88ba:	95 54       	subi	r25, 0x45	; 69
    88bc:	93 30       	cpi	r25, 0x03	; 3
    88be:	18 f0       	brcs	.+6      	; 0x88c6 <vfprintf+0x120>
    88c0:	90 52       	subi	r25, 0x20	; 32
    88c2:	93 30       	cpi	r25, 0x03	; 3
    88c4:	28 f4       	brcc	.+10     	; 0x88d0 <vfprintf+0x12a>
    88c6:	0c 5f       	subi	r16, 0xFC	; 252
    88c8:	1f 4f       	sbci	r17, 0xFF	; 255
    88ca:	ff e3       	ldi	r31, 0x3F	; 63
    88cc:	f9 83       	std	Y+1, r31	; 0x01
    88ce:	0d c0       	rjmp	.+26     	; 0x88ea <vfprintf+0x144>
    88d0:	83 36       	cpi	r24, 0x63	; 99
    88d2:	31 f0       	breq	.+12     	; 0x88e0 <vfprintf+0x13a>
    88d4:	83 37       	cpi	r24, 0x73	; 115
    88d6:	71 f0       	breq	.+28     	; 0x88f4 <vfprintf+0x14e>
    88d8:	83 35       	cpi	r24, 0x53	; 83
    88da:	09 f0       	breq	.+2      	; 0x88de <vfprintf+0x138>
    88dc:	60 c0       	rjmp	.+192    	; 0x899e <vfprintf+0x1f8>
    88de:	22 c0       	rjmp	.+68     	; 0x8924 <vfprintf+0x17e>
    88e0:	f8 01       	movw	r30, r16
    88e2:	80 81       	ld	r24, Z
    88e4:	89 83       	std	Y+1, r24	; 0x01
    88e6:	0e 5f       	subi	r16, 0xFE	; 254
    88e8:	1f 4f       	sbci	r17, 0xFF	; 255
    88ea:	42 01       	movw	r8, r4
    88ec:	71 e0       	ldi	r23, 0x01	; 1
    88ee:	a7 2e       	mov	r10, r23
    88f0:	b1 2c       	mov	r11, r1
    88f2:	16 c0       	rjmp	.+44     	; 0x8920 <vfprintf+0x17a>
    88f4:	62 e0       	ldi	r22, 0x02	; 2
    88f6:	66 2e       	mov	r6, r22
    88f8:	71 2c       	mov	r7, r1
    88fa:	60 0e       	add	r6, r16
    88fc:	71 1e       	adc	r7, r17
    88fe:	f8 01       	movw	r30, r16
    8900:	80 80       	ld	r8, Z
    8902:	91 80       	ldd	r9, Z+1	; 0x01
    8904:	26 ff       	sbrs	r18, 6
    8906:	03 c0       	rjmp	.+6      	; 0x890e <vfprintf+0x168>
    8908:	6e 2d       	mov	r22, r14
    890a:	70 e0       	ldi	r23, 0x00	; 0
    890c:	02 c0       	rjmp	.+4      	; 0x8912 <vfprintf+0x16c>
    890e:	6f ef       	ldi	r22, 0xFF	; 255
    8910:	7f ef       	ldi	r23, 0xFF	; 255
    8912:	c4 01       	movw	r24, r8
    8914:	2c 87       	std	Y+12, r18	; 0x0c
    8916:	0e 94 ee 45 	call	0x8bdc	; 0x8bdc <strnlen>
    891a:	5c 01       	movw	r10, r24
    891c:	83 01       	movw	r16, r6
    891e:	2c 85       	ldd	r18, Y+12	; 0x0c
    8920:	2f 77       	andi	r18, 0x7F	; 127
    8922:	17 c0       	rjmp	.+46     	; 0x8952 <vfprintf+0x1ac>
    8924:	52 e0       	ldi	r21, 0x02	; 2
    8926:	65 2e       	mov	r6, r21
    8928:	71 2c       	mov	r7, r1
    892a:	60 0e       	add	r6, r16
    892c:	71 1e       	adc	r7, r17
    892e:	f8 01       	movw	r30, r16
    8930:	80 80       	ld	r8, Z
    8932:	91 80       	ldd	r9, Z+1	; 0x01
    8934:	26 ff       	sbrs	r18, 6
    8936:	03 c0       	rjmp	.+6      	; 0x893e <vfprintf+0x198>
    8938:	6e 2d       	mov	r22, r14
    893a:	70 e0       	ldi	r23, 0x00	; 0
    893c:	02 c0       	rjmp	.+4      	; 0x8942 <vfprintf+0x19c>
    893e:	6f ef       	ldi	r22, 0xFF	; 255
    8940:	7f ef       	ldi	r23, 0xFF	; 255
    8942:	c4 01       	movw	r24, r8
    8944:	2c 87       	std	Y+12, r18	; 0x0c
    8946:	0e 94 e3 45 	call	0x8bc6	; 0x8bc6 <strnlen_P>
    894a:	5c 01       	movw	r10, r24
    894c:	2c 85       	ldd	r18, Y+12	; 0x0c
    894e:	20 68       	ori	r18, 0x80	; 128
    8950:	83 01       	movw	r16, r6
    8952:	23 fd       	sbrc	r18, 3
    8954:	20 c0       	rjmp	.+64     	; 0x8996 <vfprintf+0x1f0>
    8956:	08 c0       	rjmp	.+16     	; 0x8968 <vfprintf+0x1c2>
    8958:	80 e2       	ldi	r24, 0x20	; 32
    895a:	90 e0       	ldi	r25, 0x00	; 0
    895c:	b6 01       	movw	r22, r12
    895e:	2c 87       	std	Y+12, r18	; 0x0c
    8960:	0e 94 f9 45 	call	0x8bf2	; 0x8bf2 <fputc>
    8964:	fa 94       	dec	r15
    8966:	2c 85       	ldd	r18, Y+12	; 0x0c
    8968:	8f 2d       	mov	r24, r15
    896a:	90 e0       	ldi	r25, 0x00	; 0
    896c:	a8 16       	cp	r10, r24
    896e:	b9 06       	cpc	r11, r25
    8970:	98 f3       	brcs	.-26     	; 0x8958 <vfprintf+0x1b2>
    8972:	11 c0       	rjmp	.+34     	; 0x8996 <vfprintf+0x1f0>
    8974:	f4 01       	movw	r30, r8
    8976:	27 fd       	sbrc	r18, 7
    8978:	85 91       	lpm	r24, Z+
    897a:	27 ff       	sbrs	r18, 7
    897c:	81 91       	ld	r24, Z+
    897e:	4f 01       	movw	r8, r30
    8980:	90 e0       	ldi	r25, 0x00	; 0
    8982:	b6 01       	movw	r22, r12
    8984:	2c 87       	std	Y+12, r18	; 0x0c
    8986:	0e 94 f9 45 	call	0x8bf2	; 0x8bf2 <fputc>
    898a:	2c 85       	ldd	r18, Y+12	; 0x0c
    898c:	f1 10       	cpse	r15, r1
    898e:	fa 94       	dec	r15
    8990:	08 94       	sec
    8992:	a1 08       	sbc	r10, r1
    8994:	b1 08       	sbc	r11, r1
    8996:	a1 14       	cp	r10, r1
    8998:	b1 04       	cpc	r11, r1
    899a:	61 f7       	brne	.-40     	; 0x8974 <vfprintf+0x1ce>
    899c:	f1 c0       	rjmp	.+482    	; 0x8b80 <vfprintf+0x3da>
    899e:	84 36       	cpi	r24, 0x64	; 100
    89a0:	11 f0       	breq	.+4      	; 0x89a6 <vfprintf+0x200>
    89a2:	89 36       	cpi	r24, 0x69	; 105
    89a4:	49 f5       	brne	.+82     	; 0x89f8 <vfprintf+0x252>
    89a6:	27 ff       	sbrs	r18, 7
    89a8:	08 c0       	rjmp	.+16     	; 0x89ba <vfprintf+0x214>
    89aa:	f8 01       	movw	r30, r16
    89ac:	60 81       	ld	r22, Z
    89ae:	71 81       	ldd	r23, Z+1	; 0x01
    89b0:	82 81       	ldd	r24, Z+2	; 0x02
    89b2:	93 81       	ldd	r25, Z+3	; 0x03
    89b4:	0c 5f       	subi	r16, 0xFC	; 252
    89b6:	1f 4f       	sbci	r17, 0xFF	; 255
    89b8:	09 c0       	rjmp	.+18     	; 0x89cc <vfprintf+0x226>
    89ba:	f8 01       	movw	r30, r16
    89bc:	60 81       	ld	r22, Z
    89be:	71 81       	ldd	r23, Z+1	; 0x01
    89c0:	88 27       	eor	r24, r24
    89c2:	77 fd       	sbrc	r23, 7
    89c4:	80 95       	com	r24
    89c6:	98 2f       	mov	r25, r24
    89c8:	0e 5f       	subi	r16, 0xFE	; 254
    89ca:	1f 4f       	sbci	r17, 0xFF	; 255
    89cc:	4f e6       	ldi	r20, 0x6F	; 111
    89ce:	b4 2e       	mov	r11, r20
    89d0:	b2 22       	and	r11, r18
    89d2:	97 ff       	sbrs	r25, 7
    89d4:	09 c0       	rjmp	.+18     	; 0x89e8 <vfprintf+0x242>
    89d6:	90 95       	com	r25
    89d8:	80 95       	com	r24
    89da:	70 95       	com	r23
    89dc:	61 95       	neg	r22
    89de:	7f 4f       	sbci	r23, 0xFF	; 255
    89e0:	8f 4f       	sbci	r24, 0xFF	; 255
    89e2:	9f 4f       	sbci	r25, 0xFF	; 255
    89e4:	f0 e8       	ldi	r31, 0x80	; 128
    89e6:	bf 2a       	or	r11, r31
    89e8:	a2 01       	movw	r20, r4
    89ea:	2a e0       	ldi	r18, 0x0A	; 10
    89ec:	30 e0       	ldi	r19, 0x00	; 0
    89ee:	0e 94 25 46 	call	0x8c4a	; 0x8c4a <__ultoa_invert>
    89f2:	78 2e       	mov	r7, r24
    89f4:	74 18       	sub	r7, r4
    89f6:	45 c0       	rjmp	.+138    	; 0x8a82 <vfprintf+0x2dc>
    89f8:	85 37       	cpi	r24, 0x75	; 117
    89fa:	31 f4       	brne	.+12     	; 0x8a08 <vfprintf+0x262>
    89fc:	3f ee       	ldi	r19, 0xEF	; 239
    89fe:	b3 2e       	mov	r11, r19
    8a00:	b2 22       	and	r11, r18
    8a02:	2a e0       	ldi	r18, 0x0A	; 10
    8a04:	30 e0       	ldi	r19, 0x00	; 0
    8a06:	25 c0       	rjmp	.+74     	; 0x8a52 <vfprintf+0x2ac>
    8a08:	99 ef       	ldi	r25, 0xF9	; 249
    8a0a:	b9 2e       	mov	r11, r25
    8a0c:	b2 22       	and	r11, r18
    8a0e:	8f 36       	cpi	r24, 0x6F	; 111
    8a10:	c1 f0       	breq	.+48     	; 0x8a42 <vfprintf+0x29c>
    8a12:	80 37       	cpi	r24, 0x70	; 112
    8a14:	20 f4       	brcc	.+8      	; 0x8a1e <vfprintf+0x278>
    8a16:	88 35       	cpi	r24, 0x58	; 88
    8a18:	09 f0       	breq	.+2      	; 0x8a1c <vfprintf+0x276>
    8a1a:	b5 c0       	rjmp	.+362    	; 0x8b86 <vfprintf+0x3e0>
    8a1c:	0d c0       	rjmp	.+26     	; 0x8a38 <vfprintf+0x292>
    8a1e:	80 37       	cpi	r24, 0x70	; 112
    8a20:	21 f0       	breq	.+8      	; 0x8a2a <vfprintf+0x284>
    8a22:	88 37       	cpi	r24, 0x78	; 120
    8a24:	09 f0       	breq	.+2      	; 0x8a28 <vfprintf+0x282>
    8a26:	af c0       	rjmp	.+350    	; 0x8b86 <vfprintf+0x3e0>
    8a28:	02 c0       	rjmp	.+4      	; 0x8a2e <vfprintf+0x288>
    8a2a:	20 e1       	ldi	r18, 0x10	; 16
    8a2c:	b2 2a       	or	r11, r18
    8a2e:	b4 fe       	sbrs	r11, 4
    8a30:	0b c0       	rjmp	.+22     	; 0x8a48 <vfprintf+0x2a2>
    8a32:	84 e0       	ldi	r24, 0x04	; 4
    8a34:	b8 2a       	or	r11, r24
    8a36:	08 c0       	rjmp	.+16     	; 0x8a48 <vfprintf+0x2a2>
    8a38:	b4 fe       	sbrs	r11, 4
    8a3a:	09 c0       	rjmp	.+18     	; 0x8a4e <vfprintf+0x2a8>
    8a3c:	e6 e0       	ldi	r30, 0x06	; 6
    8a3e:	be 2a       	or	r11, r30
    8a40:	06 c0       	rjmp	.+12     	; 0x8a4e <vfprintf+0x2a8>
    8a42:	28 e0       	ldi	r18, 0x08	; 8
    8a44:	30 e0       	ldi	r19, 0x00	; 0
    8a46:	05 c0       	rjmp	.+10     	; 0x8a52 <vfprintf+0x2ac>
    8a48:	20 e1       	ldi	r18, 0x10	; 16
    8a4a:	30 e0       	ldi	r19, 0x00	; 0
    8a4c:	02 c0       	rjmp	.+4      	; 0x8a52 <vfprintf+0x2ac>
    8a4e:	20 e1       	ldi	r18, 0x10	; 16
    8a50:	32 e0       	ldi	r19, 0x02	; 2
    8a52:	b7 fe       	sbrs	r11, 7
    8a54:	08 c0       	rjmp	.+16     	; 0x8a66 <vfprintf+0x2c0>
    8a56:	f8 01       	movw	r30, r16
    8a58:	60 81       	ld	r22, Z
    8a5a:	71 81       	ldd	r23, Z+1	; 0x01
    8a5c:	82 81       	ldd	r24, Z+2	; 0x02
    8a5e:	93 81       	ldd	r25, Z+3	; 0x03
    8a60:	0c 5f       	subi	r16, 0xFC	; 252
    8a62:	1f 4f       	sbci	r17, 0xFF	; 255
    8a64:	07 c0       	rjmp	.+14     	; 0x8a74 <vfprintf+0x2ce>
    8a66:	f8 01       	movw	r30, r16
    8a68:	60 81       	ld	r22, Z
    8a6a:	71 81       	ldd	r23, Z+1	; 0x01
    8a6c:	80 e0       	ldi	r24, 0x00	; 0
    8a6e:	90 e0       	ldi	r25, 0x00	; 0
    8a70:	0e 5f       	subi	r16, 0xFE	; 254
    8a72:	1f 4f       	sbci	r17, 0xFF	; 255
    8a74:	a2 01       	movw	r20, r4
    8a76:	0e 94 25 46 	call	0x8c4a	; 0x8c4a <__ultoa_invert>
    8a7a:	78 2e       	mov	r7, r24
    8a7c:	74 18       	sub	r7, r4
    8a7e:	ff e7       	ldi	r31, 0x7F	; 127
    8a80:	bf 22       	and	r11, r31
    8a82:	b6 fe       	sbrs	r11, 6
    8a84:	0b c0       	rjmp	.+22     	; 0x8a9c <vfprintf+0x2f6>
    8a86:	2e ef       	ldi	r18, 0xFE	; 254
    8a88:	b2 22       	and	r11, r18
    8a8a:	7e 14       	cp	r7, r14
    8a8c:	38 f4       	brcc	.+14     	; 0x8a9c <vfprintf+0x2f6>
    8a8e:	b4 fe       	sbrs	r11, 4
    8a90:	07 c0       	rjmp	.+14     	; 0x8aa0 <vfprintf+0x2fa>
    8a92:	b2 fc       	sbrc	r11, 2
    8a94:	05 c0       	rjmp	.+10     	; 0x8aa0 <vfprintf+0x2fa>
    8a96:	8f ee       	ldi	r24, 0xEF	; 239
    8a98:	b8 22       	and	r11, r24
    8a9a:	02 c0       	rjmp	.+4      	; 0x8aa0 <vfprintf+0x2fa>
    8a9c:	a7 2c       	mov	r10, r7
    8a9e:	01 c0       	rjmp	.+2      	; 0x8aa2 <vfprintf+0x2fc>
    8aa0:	ae 2c       	mov	r10, r14
    8aa2:	8b 2d       	mov	r24, r11
    8aa4:	90 e0       	ldi	r25, 0x00	; 0
    8aa6:	b4 fe       	sbrs	r11, 4
    8aa8:	0d c0       	rjmp	.+26     	; 0x8ac4 <vfprintf+0x31e>
    8aaa:	fe 01       	movw	r30, r28
    8aac:	e7 0d       	add	r30, r7
    8aae:	f1 1d       	adc	r31, r1
    8ab0:	20 81       	ld	r18, Z
    8ab2:	20 33       	cpi	r18, 0x30	; 48
    8ab4:	19 f4       	brne	.+6      	; 0x8abc <vfprintf+0x316>
    8ab6:	e9 ee       	ldi	r30, 0xE9	; 233
    8ab8:	be 22       	and	r11, r30
    8aba:	09 c0       	rjmp	.+18     	; 0x8ace <vfprintf+0x328>
    8abc:	a3 94       	inc	r10
    8abe:	b2 fe       	sbrs	r11, 2
    8ac0:	06 c0       	rjmp	.+12     	; 0x8ace <vfprintf+0x328>
    8ac2:	04 c0       	rjmp	.+8      	; 0x8acc <vfprintf+0x326>
    8ac4:	86 78       	andi	r24, 0x86	; 134
    8ac6:	90 70       	andi	r25, 0x00	; 0
    8ac8:	00 97       	sbiw	r24, 0x00	; 0
    8aca:	09 f0       	breq	.+2      	; 0x8ace <vfprintf+0x328>
    8acc:	a3 94       	inc	r10
    8ace:	8b 2c       	mov	r8, r11
    8ad0:	99 24       	eor	r9, r9
    8ad2:	b3 fc       	sbrc	r11, 3
    8ad4:	14 c0       	rjmp	.+40     	; 0x8afe <vfprintf+0x358>
    8ad6:	b0 fe       	sbrs	r11, 0
    8ad8:	0f c0       	rjmp	.+30     	; 0x8af8 <vfprintf+0x352>
    8ada:	af 14       	cp	r10, r15
    8adc:	28 f4       	brcc	.+10     	; 0x8ae8 <vfprintf+0x342>
    8ade:	e7 2c       	mov	r14, r7
    8ae0:	ef 0c       	add	r14, r15
    8ae2:	ea 18       	sub	r14, r10
    8ae4:	af 2c       	mov	r10, r15
    8ae6:	08 c0       	rjmp	.+16     	; 0x8af8 <vfprintf+0x352>
    8ae8:	e7 2c       	mov	r14, r7
    8aea:	06 c0       	rjmp	.+12     	; 0x8af8 <vfprintf+0x352>
    8aec:	80 e2       	ldi	r24, 0x20	; 32
    8aee:	90 e0       	ldi	r25, 0x00	; 0
    8af0:	b6 01       	movw	r22, r12
    8af2:	0e 94 f9 45 	call	0x8bf2	; 0x8bf2 <fputc>
    8af6:	a3 94       	inc	r10
    8af8:	af 14       	cp	r10, r15
    8afa:	c0 f3       	brcs	.-16     	; 0x8aec <vfprintf+0x346>
    8afc:	04 c0       	rjmp	.+8      	; 0x8b06 <vfprintf+0x360>
    8afe:	af 14       	cp	r10, r15
    8b00:	10 f4       	brcc	.+4      	; 0x8b06 <vfprintf+0x360>
    8b02:	fa 18       	sub	r15, r10
    8b04:	01 c0       	rjmp	.+2      	; 0x8b08 <vfprintf+0x362>
    8b06:	ff 24       	eor	r15, r15
    8b08:	84 fe       	sbrs	r8, 4
    8b0a:	0f c0       	rjmp	.+30     	; 0x8b2a <vfprintf+0x384>
    8b0c:	80 e3       	ldi	r24, 0x30	; 48
    8b0e:	90 e0       	ldi	r25, 0x00	; 0
    8b10:	b6 01       	movw	r22, r12
    8b12:	0e 94 f9 45 	call	0x8bf2	; 0x8bf2 <fputc>
    8b16:	82 fe       	sbrs	r8, 2
    8b18:	1f c0       	rjmp	.+62     	; 0x8b58 <vfprintf+0x3b2>
    8b1a:	81 fe       	sbrs	r8, 1
    8b1c:	03 c0       	rjmp	.+6      	; 0x8b24 <vfprintf+0x37e>
    8b1e:	88 e5       	ldi	r24, 0x58	; 88
    8b20:	90 e0       	ldi	r25, 0x00	; 0
    8b22:	10 c0       	rjmp	.+32     	; 0x8b44 <vfprintf+0x39e>
    8b24:	88 e7       	ldi	r24, 0x78	; 120
    8b26:	90 e0       	ldi	r25, 0x00	; 0
    8b28:	0d c0       	rjmp	.+26     	; 0x8b44 <vfprintf+0x39e>
    8b2a:	c4 01       	movw	r24, r8
    8b2c:	86 78       	andi	r24, 0x86	; 134
    8b2e:	90 70       	andi	r25, 0x00	; 0
    8b30:	00 97       	sbiw	r24, 0x00	; 0
    8b32:	91 f0       	breq	.+36     	; 0x8b58 <vfprintf+0x3b2>
    8b34:	81 fc       	sbrc	r8, 1
    8b36:	02 c0       	rjmp	.+4      	; 0x8b3c <vfprintf+0x396>
    8b38:	80 e2       	ldi	r24, 0x20	; 32
    8b3a:	01 c0       	rjmp	.+2      	; 0x8b3e <vfprintf+0x398>
    8b3c:	8b e2       	ldi	r24, 0x2B	; 43
    8b3e:	b7 fc       	sbrc	r11, 7
    8b40:	8d e2       	ldi	r24, 0x2D	; 45
    8b42:	90 e0       	ldi	r25, 0x00	; 0
    8b44:	b6 01       	movw	r22, r12
    8b46:	0e 94 f9 45 	call	0x8bf2	; 0x8bf2 <fputc>
    8b4a:	06 c0       	rjmp	.+12     	; 0x8b58 <vfprintf+0x3b2>
    8b4c:	80 e3       	ldi	r24, 0x30	; 48
    8b4e:	90 e0       	ldi	r25, 0x00	; 0
    8b50:	b6 01       	movw	r22, r12
    8b52:	0e 94 f9 45 	call	0x8bf2	; 0x8bf2 <fputc>
    8b56:	ea 94       	dec	r14
    8b58:	7e 14       	cp	r7, r14
    8b5a:	c0 f3       	brcs	.-16     	; 0x8b4c <vfprintf+0x3a6>
    8b5c:	7a 94       	dec	r7
    8b5e:	f2 01       	movw	r30, r4
    8b60:	e7 0d       	add	r30, r7
    8b62:	f1 1d       	adc	r31, r1
    8b64:	80 81       	ld	r24, Z
    8b66:	90 e0       	ldi	r25, 0x00	; 0
    8b68:	b6 01       	movw	r22, r12
    8b6a:	0e 94 f9 45 	call	0x8bf2	; 0x8bf2 <fputc>
    8b6e:	77 20       	and	r7, r7
    8b70:	a9 f7       	brne	.-22     	; 0x8b5c <vfprintf+0x3b6>
    8b72:	06 c0       	rjmp	.+12     	; 0x8b80 <vfprintf+0x3da>
    8b74:	80 e2       	ldi	r24, 0x20	; 32
    8b76:	90 e0       	ldi	r25, 0x00	; 0
    8b78:	b6 01       	movw	r22, r12
    8b7a:	0e 94 f9 45 	call	0x8bf2	; 0x8bf2 <fputc>
    8b7e:	fa 94       	dec	r15
    8b80:	ff 20       	and	r15, r15
    8b82:	c1 f7       	brne	.-16     	; 0x8b74 <vfprintf+0x3ce>
    8b84:	37 ce       	rjmp	.-914    	; 0x87f4 <vfprintf+0x4e>
    8b86:	f6 01       	movw	r30, r12
    8b88:	26 81       	ldd	r18, Z+6	; 0x06
    8b8a:	37 81       	ldd	r19, Z+7	; 0x07
    8b8c:	02 c0       	rjmp	.+4      	; 0x8b92 <vfprintf+0x3ec>
    8b8e:	2f ef       	ldi	r18, 0xFF	; 255
    8b90:	3f ef       	ldi	r19, 0xFF	; 255
    8b92:	c9 01       	movw	r24, r18
    8b94:	2c 96       	adiw	r28, 0x0c	; 12
    8b96:	0f b6       	in	r0, 0x3f	; 63
    8b98:	f8 94       	cli
    8b9a:	de bf       	out	0x3e, r29	; 62
    8b9c:	0f be       	out	0x3f, r0	; 63
    8b9e:	cd bf       	out	0x3d, r28	; 61
    8ba0:	cf 91       	pop	r28
    8ba2:	df 91       	pop	r29
    8ba4:	1f 91       	pop	r17
    8ba6:	0f 91       	pop	r16
    8ba8:	ff 90       	pop	r15
    8baa:	ef 90       	pop	r14
    8bac:	df 90       	pop	r13
    8bae:	cf 90       	pop	r12
    8bb0:	bf 90       	pop	r11
    8bb2:	af 90       	pop	r10
    8bb4:	9f 90       	pop	r9
    8bb6:	8f 90       	pop	r8
    8bb8:	7f 90       	pop	r7
    8bba:	6f 90       	pop	r6
    8bbc:	5f 90       	pop	r5
    8bbe:	4f 90       	pop	r4
    8bc0:	3f 90       	pop	r3
    8bc2:	2f 90       	pop	r2
    8bc4:	08 95       	ret

00008bc6 <strnlen_P>:
    8bc6:	fc 01       	movw	r30, r24
    8bc8:	05 90       	lpm	r0, Z+
    8bca:	61 50       	subi	r22, 0x01	; 1
    8bcc:	70 40       	sbci	r23, 0x00	; 0
    8bce:	01 10       	cpse	r0, r1
    8bd0:	d8 f7       	brcc	.-10     	; 0x8bc8 <strnlen_P+0x2>
    8bd2:	80 95       	com	r24
    8bd4:	90 95       	com	r25
    8bd6:	8e 0f       	add	r24, r30
    8bd8:	9f 1f       	adc	r25, r31
    8bda:	08 95       	ret

00008bdc <strnlen>:
    8bdc:	fc 01       	movw	r30, r24
    8bde:	61 50       	subi	r22, 0x01	; 1
    8be0:	70 40       	sbci	r23, 0x00	; 0
    8be2:	01 90       	ld	r0, Z+
    8be4:	01 10       	cpse	r0, r1
    8be6:	d8 f7       	brcc	.-10     	; 0x8bde <strnlen+0x2>
    8be8:	80 95       	com	r24
    8bea:	90 95       	com	r25
    8bec:	8e 0f       	add	r24, r30
    8bee:	9f 1f       	adc	r25, r31
    8bf0:	08 95       	ret

00008bf2 <fputc>:
    8bf2:	0f 93       	push	r16
    8bf4:	1f 93       	push	r17
    8bf6:	cf 93       	push	r28
    8bf8:	df 93       	push	r29
    8bfa:	8c 01       	movw	r16, r24
    8bfc:	eb 01       	movw	r28, r22
    8bfe:	8b 81       	ldd	r24, Y+3	; 0x03
    8c00:	81 ff       	sbrs	r24, 1
    8c02:	1b c0       	rjmp	.+54     	; 0x8c3a <fputc+0x48>
    8c04:	82 ff       	sbrs	r24, 2
    8c06:	0d c0       	rjmp	.+26     	; 0x8c22 <fputc+0x30>
    8c08:	2e 81       	ldd	r18, Y+6	; 0x06
    8c0a:	3f 81       	ldd	r19, Y+7	; 0x07
    8c0c:	8c 81       	ldd	r24, Y+4	; 0x04
    8c0e:	9d 81       	ldd	r25, Y+5	; 0x05
    8c10:	28 17       	cp	r18, r24
    8c12:	39 07       	cpc	r19, r25
    8c14:	64 f4       	brge	.+24     	; 0x8c2e <fputc+0x3c>
    8c16:	e8 81       	ld	r30, Y
    8c18:	f9 81       	ldd	r31, Y+1	; 0x01
    8c1a:	01 93       	st	Z+, r16
    8c1c:	f9 83       	std	Y+1, r31	; 0x01
    8c1e:	e8 83       	st	Y, r30
    8c20:	06 c0       	rjmp	.+12     	; 0x8c2e <fputc+0x3c>
    8c22:	e8 85       	ldd	r30, Y+8	; 0x08
    8c24:	f9 85       	ldd	r31, Y+9	; 0x09
    8c26:	80 2f       	mov	r24, r16
    8c28:	09 95       	icall
    8c2a:	00 97       	sbiw	r24, 0x00	; 0
    8c2c:	31 f4       	brne	.+12     	; 0x8c3a <fputc+0x48>
    8c2e:	8e 81       	ldd	r24, Y+6	; 0x06
    8c30:	9f 81       	ldd	r25, Y+7	; 0x07
    8c32:	01 96       	adiw	r24, 0x01	; 1
    8c34:	9f 83       	std	Y+7, r25	; 0x07
    8c36:	8e 83       	std	Y+6, r24	; 0x06
    8c38:	02 c0       	rjmp	.+4      	; 0x8c3e <fputc+0x4c>
    8c3a:	0f ef       	ldi	r16, 0xFF	; 255
    8c3c:	1f ef       	ldi	r17, 0xFF	; 255
    8c3e:	c8 01       	movw	r24, r16
    8c40:	df 91       	pop	r29
    8c42:	cf 91       	pop	r28
    8c44:	1f 91       	pop	r17
    8c46:	0f 91       	pop	r16
    8c48:	08 95       	ret

00008c4a <__ultoa_invert>:
    8c4a:	fa 01       	movw	r30, r20
    8c4c:	aa 27       	eor	r26, r26
    8c4e:	28 30       	cpi	r18, 0x08	; 8
    8c50:	51 f1       	breq	.+84     	; 0x8ca6 <__ultoa_invert+0x5c>
    8c52:	20 31       	cpi	r18, 0x10	; 16
    8c54:	81 f1       	breq	.+96     	; 0x8cb6 <__ultoa_invert+0x6c>
    8c56:	e8 94       	clt
    8c58:	6f 93       	push	r22
    8c5a:	6e 7f       	andi	r22, 0xFE	; 254
    8c5c:	6e 5f       	subi	r22, 0xFE	; 254
    8c5e:	7f 4f       	sbci	r23, 0xFF	; 255
    8c60:	8f 4f       	sbci	r24, 0xFF	; 255
    8c62:	9f 4f       	sbci	r25, 0xFF	; 255
    8c64:	af 4f       	sbci	r26, 0xFF	; 255
    8c66:	b1 e0       	ldi	r27, 0x01	; 1
    8c68:	3e d0       	rcall	.+124    	; 0x8ce6 <__ultoa_invert+0x9c>
    8c6a:	b4 e0       	ldi	r27, 0x04	; 4
    8c6c:	3c d0       	rcall	.+120    	; 0x8ce6 <__ultoa_invert+0x9c>
    8c6e:	67 0f       	add	r22, r23
    8c70:	78 1f       	adc	r23, r24
    8c72:	89 1f       	adc	r24, r25
    8c74:	9a 1f       	adc	r25, r26
    8c76:	a1 1d       	adc	r26, r1
    8c78:	68 0f       	add	r22, r24
    8c7a:	79 1f       	adc	r23, r25
    8c7c:	8a 1f       	adc	r24, r26
    8c7e:	91 1d       	adc	r25, r1
    8c80:	a1 1d       	adc	r26, r1
    8c82:	6a 0f       	add	r22, r26
    8c84:	71 1d       	adc	r23, r1
    8c86:	81 1d       	adc	r24, r1
    8c88:	91 1d       	adc	r25, r1
    8c8a:	a1 1d       	adc	r26, r1
    8c8c:	20 d0       	rcall	.+64     	; 0x8cce <__ultoa_invert+0x84>
    8c8e:	09 f4       	brne	.+2      	; 0x8c92 <__ultoa_invert+0x48>
    8c90:	68 94       	set
    8c92:	3f 91       	pop	r19
    8c94:	2a e0       	ldi	r18, 0x0A	; 10
    8c96:	26 9f       	mul	r18, r22
    8c98:	11 24       	eor	r1, r1
    8c9a:	30 19       	sub	r19, r0
    8c9c:	30 5d       	subi	r19, 0xD0	; 208
    8c9e:	31 93       	st	Z+, r19
    8ca0:	de f6       	brtc	.-74     	; 0x8c58 <__ultoa_invert+0xe>
    8ca2:	cf 01       	movw	r24, r30
    8ca4:	08 95       	ret
    8ca6:	46 2f       	mov	r20, r22
    8ca8:	47 70       	andi	r20, 0x07	; 7
    8caa:	40 5d       	subi	r20, 0xD0	; 208
    8cac:	41 93       	st	Z+, r20
    8cae:	b3 e0       	ldi	r27, 0x03	; 3
    8cb0:	0f d0       	rcall	.+30     	; 0x8cd0 <__ultoa_invert+0x86>
    8cb2:	c9 f7       	brne	.-14     	; 0x8ca6 <__ultoa_invert+0x5c>
    8cb4:	f6 cf       	rjmp	.-20     	; 0x8ca2 <__ultoa_invert+0x58>
    8cb6:	46 2f       	mov	r20, r22
    8cb8:	4f 70       	andi	r20, 0x0F	; 15
    8cba:	40 5d       	subi	r20, 0xD0	; 208
    8cbc:	4a 33       	cpi	r20, 0x3A	; 58
    8cbe:	18 f0       	brcs	.+6      	; 0x8cc6 <__ultoa_invert+0x7c>
    8cc0:	49 5d       	subi	r20, 0xD9	; 217
    8cc2:	31 fd       	sbrc	r19, 1
    8cc4:	40 52       	subi	r20, 0x20	; 32
    8cc6:	41 93       	st	Z+, r20
    8cc8:	02 d0       	rcall	.+4      	; 0x8cce <__ultoa_invert+0x84>
    8cca:	a9 f7       	brne	.-22     	; 0x8cb6 <__ultoa_invert+0x6c>
    8ccc:	ea cf       	rjmp	.-44     	; 0x8ca2 <__ultoa_invert+0x58>
    8cce:	b4 e0       	ldi	r27, 0x04	; 4
    8cd0:	a6 95       	lsr	r26
    8cd2:	97 95       	ror	r25
    8cd4:	87 95       	ror	r24
    8cd6:	77 95       	ror	r23
    8cd8:	67 95       	ror	r22
    8cda:	ba 95       	dec	r27
    8cdc:	c9 f7       	brne	.-14     	; 0x8cd0 <__ultoa_invert+0x86>
    8cde:	00 97       	sbiw	r24, 0x00	; 0
    8ce0:	61 05       	cpc	r22, r1
    8ce2:	71 05       	cpc	r23, r1
    8ce4:	08 95       	ret
    8ce6:	9b 01       	movw	r18, r22
    8ce8:	ac 01       	movw	r20, r24
    8cea:	0a 2e       	mov	r0, r26
    8cec:	06 94       	lsr	r0
    8cee:	57 95       	ror	r21
    8cf0:	47 95       	ror	r20
    8cf2:	37 95       	ror	r19
    8cf4:	27 95       	ror	r18
    8cf6:	ba 95       	dec	r27
    8cf8:	c9 f7       	brne	.-14     	; 0x8cec <__ultoa_invert+0xa2>
    8cfa:	62 0f       	add	r22, r18
    8cfc:	73 1f       	adc	r23, r19
    8cfe:	84 1f       	adc	r24, r20
    8d00:	95 1f       	adc	r25, r21
    8d02:	a0 1d       	adc	r26, r0
    8d04:	08 95       	ret

00008d06 <__fp_norm2>:
    8d06:	91 50       	subi	r25, 0x01	; 1
    8d08:	50 40       	sbci	r21, 0x00	; 0
    8d0a:	66 0f       	add	r22, r22
    8d0c:	77 1f       	adc	r23, r23
    8d0e:	88 1f       	adc	r24, r24
    8d10:	d2 f7       	brpl	.-12     	; 0x8d06 <__fp_norm2>
    8d12:	08 95       	ret

00008d14 <__fp_powsodd>:
    8d14:	9f 93       	push	r25
    8d16:	8f 93       	push	r24
    8d18:	7f 93       	push	r23
    8d1a:	6f 93       	push	r22
    8d1c:	ff 93       	push	r31
    8d1e:	ef 93       	push	r30
    8d20:	9b 01       	movw	r18, r22
    8d22:	ac 01       	movw	r20, r24
    8d24:	9b dc       	rcall	.-1738   	; 0x865c <__mulsf3>
    8d26:	ef 91       	pop	r30
    8d28:	ff 91       	pop	r31
    8d2a:	05 d0       	rcall	.+10     	; 0x8d36 <__fp_powser>
    8d2c:	2f 91       	pop	r18
    8d2e:	3f 91       	pop	r19
    8d30:	4f 91       	pop	r20
    8d32:	5f 91       	pop	r21
    8d34:	93 cc       	rjmp	.-1754   	; 0x865c <__mulsf3>

00008d36 <__fp_powser>:
    8d36:	df 93       	push	r29
    8d38:	cf 93       	push	r28
    8d3a:	1f 93       	push	r17
    8d3c:	0f 93       	push	r16
    8d3e:	ff 92       	push	r15
    8d40:	ef 92       	push	r14
    8d42:	df 92       	push	r13
    8d44:	7b 01       	movw	r14, r22
    8d46:	8c 01       	movw	r16, r24
    8d48:	68 94       	set
    8d4a:	05 c0       	rjmp	.+10     	; 0x8d56 <__fp_powser+0x20>
    8d4c:	da 2e       	mov	r13, r26
    8d4e:	ef 01       	movw	r28, r30
    8d50:	91 dc       	rcall	.-1758   	; 0x8674 <__mulsf3x>
    8d52:	fe 01       	movw	r30, r28
    8d54:	e8 94       	clt
    8d56:	a5 91       	lpm	r26, Z+
    8d58:	25 91       	lpm	r18, Z+
    8d5a:	35 91       	lpm	r19, Z+
    8d5c:	45 91       	lpm	r20, Z+
    8d5e:	55 91       	lpm	r21, Z+
    8d60:	ae f3       	brts	.-22     	; 0x8d4c <__fp_powser+0x16>
    8d62:	ef 01       	movw	r28, r30
    8d64:	af d9       	rcall	.-3234   	; 0x80c4 <__addsf3x>
    8d66:	fe 01       	movw	r30, r28
    8d68:	97 01       	movw	r18, r14
    8d6a:	a8 01       	movw	r20, r16
    8d6c:	da 94       	dec	r13
    8d6e:	79 f7       	brne	.-34     	; 0x8d4e <__fp_powser+0x18>
    8d70:	df 90       	pop	r13
    8d72:	ef 90       	pop	r14
    8d74:	ff 90       	pop	r15
    8d76:	0f 91       	pop	r16
    8d78:	1f 91       	pop	r17
    8d7a:	cf 91       	pop	r28
    8d7c:	df 91       	pop	r29
    8d7e:	08 95       	ret

00008d80 <__udivmodqi4>:
    8d80:	99 1b       	sub	r25, r25
    8d82:	79 e0       	ldi	r23, 0x09	; 9
    8d84:	04 c0       	rjmp	.+8      	; 0x8d8e <__udivmodqi4_ep>

00008d86 <__udivmodqi4_loop>:
    8d86:	99 1f       	adc	r25, r25
    8d88:	96 17       	cp	r25, r22
    8d8a:	08 f0       	brcs	.+2      	; 0x8d8e <__udivmodqi4_ep>
    8d8c:	96 1b       	sub	r25, r22

00008d8e <__udivmodqi4_ep>:
    8d8e:	88 1f       	adc	r24, r24
    8d90:	7a 95       	dec	r23
    8d92:	c9 f7       	brne	.-14     	; 0x8d86 <__udivmodqi4_loop>
    8d94:	80 95       	com	r24
    8d96:	08 95       	ret

00008d98 <__divmodhi4>:
    8d98:	97 fb       	bst	r25, 7
    8d9a:	09 2e       	mov	r0, r25
    8d9c:	07 26       	eor	r0, r23
    8d9e:	0a d0       	rcall	.+20     	; 0x8db4 <__divmodhi4_neg1>
    8da0:	77 fd       	sbrc	r23, 7
    8da2:	04 d0       	rcall	.+8      	; 0x8dac <__divmodhi4_neg2>
    8da4:	0c d0       	rcall	.+24     	; 0x8dbe <__udivmodhi4>
    8da6:	06 d0       	rcall	.+12     	; 0x8db4 <__divmodhi4_neg1>
    8da8:	00 20       	and	r0, r0
    8daa:	1a f4       	brpl	.+6      	; 0x8db2 <__divmodhi4_exit>

00008dac <__divmodhi4_neg2>:
    8dac:	70 95       	com	r23
    8dae:	61 95       	neg	r22
    8db0:	7f 4f       	sbci	r23, 0xFF	; 255

00008db2 <__divmodhi4_exit>:
    8db2:	08 95       	ret

00008db4 <__divmodhi4_neg1>:
    8db4:	f6 f7       	brtc	.-4      	; 0x8db2 <__divmodhi4_exit>
    8db6:	90 95       	com	r25
    8db8:	81 95       	neg	r24
    8dba:	9f 4f       	sbci	r25, 0xFF	; 255
    8dbc:	08 95       	ret

00008dbe <__udivmodhi4>:
    8dbe:	aa 1b       	sub	r26, r26
    8dc0:	bb 1b       	sub	r27, r27
    8dc2:	51 e1       	ldi	r21, 0x11	; 17
    8dc4:	07 c0       	rjmp	.+14     	; 0x8dd4 <__udivmodhi4_ep>

00008dc6 <__udivmodhi4_loop>:
    8dc6:	aa 1f       	adc	r26, r26
    8dc8:	bb 1f       	adc	r27, r27
    8dca:	a6 17       	cp	r26, r22
    8dcc:	b7 07       	cpc	r27, r23
    8dce:	10 f0       	brcs	.+4      	; 0x8dd4 <__udivmodhi4_ep>
    8dd0:	a6 1b       	sub	r26, r22
    8dd2:	b7 0b       	sbc	r27, r23

00008dd4 <__udivmodhi4_ep>:
    8dd4:	88 1f       	adc	r24, r24
    8dd6:	99 1f       	adc	r25, r25
    8dd8:	5a 95       	dec	r21
    8dda:	a9 f7       	brne	.-22     	; 0x8dc6 <__udivmodhi4_loop>
    8ddc:	80 95       	com	r24
    8dde:	90 95       	com	r25
    8de0:	bc 01       	movw	r22, r24
    8de2:	cd 01       	movw	r24, r26
    8de4:	08 95       	ret

00008de6 <_exit>:
    8de6:	f8 94       	cli

00008de8 <__stop_program>:
    8de8:	ff cf       	rjmp	.-2      	; 0x8de8 <__stop_program>
